TN:
SF:/usr/include/c++/4.8.2/bits/alloc_traits.h
FN:253,_ZNSt16allocator_traitsISaISt10shared_ptrIN5lgxZJ2IS3AAIEEEE12_S_constructIS4_IRKS4_EEENSt9enable_ifIXsrNS6_18__construct_helperIT_IDpT0_EEE5valueEvE4typeERS5_PSC_DpOSD_
FN:280,_ZNSt16allocator_traitsISaISt10shared_ptrIN5lgxZJ2IS3AAIEEEE10_S_destroyIS4_EENSt9enable_ifIXsrNS6_16__destroy_helperIT_EE5valueEvE4typeERS5_PSA_
FN:305,_ZNSt16allocator_traitsISaISt10shared_ptrIN5lgxZJ2IS3AAIEEEE11_S_max_sizeIKS5_EENSt9enable_ifIXsrNS6_16__maxsize_helperIT_EE5valueEmE4typeERSB_
FN:337,_ZNSt16allocator_traitsISaISt10shared_ptrIN5lgxZJ2IS3AAIEEEE9_S_selectIKS5_EENSt9enable_ifIXntsrNS6_15__select_helperIT_EE5valueESB_E4typeERSB_
FN:391,_ZNSt16allocator_traitsISaISt10shared_ptrIN5lgxZJ2IS3AAIEEEE9constructIS4_IRKS4_EEEDTcl12_S_constructfp_fp0_spcl7forwardIT0_Efp1_EEERS5_PT_DpOSA_
FN:404,_ZNSt16allocator_traitsISaISt10shared_ptrIN5lgxZJ2IS3AAIEEEE7destroyIS4_EEvRS5_PT_
FN:415,_ZNSt16allocator_traitsISaISt10shared_ptrIN5lgxZJ2IS3AAIEEEE8max_sizeERKS5_
FN:427,_ZNSt16allocator_traitsISaISt10shared_ptrIN5lgxZJ2IS3AAIEEEE37select_on_container_copy_constructionERKS5_
FNDA:39,_ZNSt16allocator_traitsISaISt10shared_ptrIN5lgxZJ2IS3AAIEEEE12_S_constructIS4_IRKS4_EEENSt9enable_ifIXsrNS6_18__construct_helperIT_IDpT0_EEE5valueEvE4typeERS5_PSC_DpOSD_
FNDA:0,_ZNSt16allocator_traitsISaISt10shared_ptrIN5lgxZJ2IS3AAIEEEE10_S_destroyIS4_EENSt9enable_ifIXsrNS6_16__destroy_helperIT_EE5valueEvE4typeERS5_PSA_
FNDA:6,_ZNSt16allocator_traitsISaISt10shared_ptrIN5lgxZJ2IS3AAIEEEE11_S_max_sizeIKS5_EENSt9enable_ifIXsrNS6_16__maxsize_helperIT_EE5valueEmE4typeERSB_
FNDA:28,_ZNSt16allocator_traitsISaISt10shared_ptrIN5lgxZJ2IS3AAIEEEE9_S_selectIKS5_EENSt9enable_ifIXntsrNS6_15__select_helperIT_EE5valueESB_E4typeERSB_
FNDA:39,_ZNSt16allocator_traitsISaISt10shared_ptrIN5lgxZJ2IS3AAIEEEE9constructIS4_IRKS4_EEEDTcl12_S_constructfp_fp0_spcl7forwardIT0_Efp1_EEERS5_PT_DpOSA_
FNDA:0,_ZNSt16allocator_traitsISaISt10shared_ptrIN5lgxZJ2IS3AAIEEEE7destroyIS4_EEvRS5_PT_
FNDA:6,_ZNSt16allocator_traitsISaISt10shared_ptrIN5lgxZJ2IS3AAIEEEE8max_sizeERKS5_
FNDA:28,_ZNSt16allocator_traitsISaISt10shared_ptrIN5lgxZJ2IS3AAIEEEE37select_on_container_copy_constructionERKS5_
FNF:8
FNH:6
DA:253,39
DA:254,39
DA:280,0
DA:281,0
DA:305,6
DA:306,6
DA:337,28
DA:338,28
DA:391,39
DA:393,39
DA:404,0
DA:405,0
DA:415,6
DA:416,6
DA:427,28
DA:428,28
LF:16
LH:12
end_of_record
SF:/usr/include/c++/4.8.2/bits/allocator.h
FN:113,_ZNSaISt10shared_ptrIN5lgxZJ2IS3AAIEEEC2Ev
FN:115,_ZNSaISt10shared_ptrIN5lgxZJ2IS3AAIEEEC2ERKS4_
FN:121,_ZNSaISt10shared_ptrIN5lgxZJ2IS3AAIEEED2Ev
FNDA:1,_ZNSaISt10shared_ptrIN5lgxZJ2IS3AAIEEEC2Ev
FNDA:56,_ZNSaISt10shared_ptrIN5lgxZJ2IS3AAIEEEC2ERKS4_
FNDA:0,_ZNSaISt10shared_ptrIN5lgxZJ2IS3AAIEEED2Ev
FNF:3
FNH:2
DA:113,1
DA:115,56
DA:116,56
DA:121,0
LF:4
LH:3
end_of_record
SF:/usr/include/c++/4.8.2/bits/move.h
FN:47,_ZSt11__addressofISt10shared_ptrIN5lgxZJ2IS3AAIEEEPT_RS5_
FN:76,_ZSt7forwardISt10shared_ptrIN5lgxZJ2IS3AAIEEEOT_RNSt16remove_referenceIS5_E4typeE
FN:76,_ZSt7forwardIRKSt10shared_ptrIN5lgxZJ2IS3AAIEEEOT_RNSt16remove_referenceIS7_E4typeE
FN:101,_ZSt4moveIRSt10shared_ptrIN5lgxZJ2IS4CallEEEONSt16remove_referenceIT_E4typeEOS7_
FN:101,_ZSt4moveIRSt10shared_ptrIN5lgxZJ2IS3CmpEEEONSt16remove_referenceIT_E4typeEOS7_
FN:101,_ZSt4moveIRSt10shared_ptrIN5lgxZJ2IS2JgEEEONSt16remove_referenceIT_E4typeEOS7_
FN:101,_ZSt4moveIRSt10shared_ptrIN5lgxZJ2IS2JeEEEONSt16remove_referenceIT_E4typeEOS7_
FN:101,_ZSt4moveIRSt10shared_ptrIN5lgxZJ2IS5LabelEEEONSt16remove_referenceIT_E4typeEOS7_
FN:101,_ZSt4moveIRSt10shared_ptrIN5lgxZJ2IS4IMulEEEONSt16remove_referenceIT_E4typeEOS7_
FN:101,_ZSt4moveIRSt10shared_ptrIN5lgxZJ2IS2JlEEEONSt16remove_referenceIT_E4typeEOS7_
FN:101,_ZSt4moveIRSt10shared_ptrIN5lgxZJ2IS3JleEEEONSt16remove_referenceIT_E4typeEOS7_
FN:101,_ZSt4moveIRSt10shared_ptrIN5lgxZJ2IS3SubEEEONSt16remove_referenceIT_E4typeEOS7_
FN:101,_ZSt4moveIRSt10shared_ptrIN5lgxZJ2IS4IDivEEEONSt16remove_referenceIT_E4typeEOS7_
FN:101,_ZSt4moveIRSt10shared_ptrIN5lgxZJ2IS4MoveEEEONSt16remove_referenceIT_E4typeEOS7_
FN:101,_ZSt4moveIRSt10shared_ptrIN5lgxZJ2IS3JneEEEONSt16remove_referenceIT_E4typeEOS7_
FN:101,_ZSt4moveIRSt10shared_ptrIN5lgxZJ2IS3AddEEEONSt16remove_referenceIT_E4typeEOS7_
FN:101,_ZSt4moveIRSt10shared_ptrIN5lgxZJ2IS3AAIEEEONSt16remove_referenceIT_E4typeEOS7_
FN:101,_ZSt4moveIRSt10shared_ptrIN5lgxZJ2IS3JgeEEEONSt16remove_referenceIT_E4typeEOS7_
FN:101,_ZSt4moveIRSt10shared_ptrIN5lgxZJ2IS3XorEEEONSt16remove_referenceIT_E4typeEOS7_
FN:101,_ZSt4moveIRSt10shared_ptrIN5lgxZJ2IS3JmpEEEONSt16remove_referenceIT_E4typeEOS7_
FNDA:0,_ZSt11__addressofISt10shared_ptrIN5lgxZJ2IS3AAIEEEPT_RS5_
FNDA:3,_ZSt7forwardISt10shared_ptrIN5lgxZJ2IS3AAIEEEOT_RNSt16remove_referenceIS5_E4typeE
FNDA:156,_ZSt7forwardIRKSt10shared_ptrIN5lgxZJ2IS3AAIEEEOT_RNSt16remove_referenceIS7_E4typeE
FNDA:2,_ZSt4moveIRSt10shared_ptrIN5lgxZJ2IS4CallEEEONSt16remove_referenceIT_E4typeEOS7_
FNDA:4,_ZSt4moveIRSt10shared_ptrIN5lgxZJ2IS3XorEEEONSt16remove_referenceIT_E4typeEOS7_
FNDA:1,_ZSt4moveIRSt10shared_ptrIN5lgxZJ2IS4IDivEEEONSt16remove_referenceIT_E4typeEOS7_
FNDA:1,_ZSt4moveIRSt10shared_ptrIN5lgxZJ2IS4IMulEEEONSt16remove_referenceIT_E4typeEOS7_
FNDA:2,_ZSt4moveIRSt10shared_ptrIN5lgxZJ2IS3SubEEEONSt16remove_referenceIT_E4typeEOS7_
FNDA:0,_ZSt4moveIRSt10shared_ptrIN5lgxZJ2IS3AddEEEONSt16remove_referenceIT_E4typeEOS7_
FNDA:11,_ZSt4moveIRSt10shared_ptrIN5lgxZJ2IS4MoveEEEONSt16remove_referenceIT_E4typeEOS7_
FNDA:1,_ZSt4moveIRSt10shared_ptrIN5lgxZJ2IS3JgeEEEONSt16remove_referenceIT_E4typeEOS7_
FNDA:1,_ZSt4moveIRSt10shared_ptrIN5lgxZJ2IS2JgEEEONSt16remove_referenceIT_E4typeEOS7_
FNDA:1,_ZSt4moveIRSt10shared_ptrIN5lgxZJ2IS3JleEEEONSt16remove_referenceIT_E4typeEOS7_
FNDA:2,_ZSt4moveIRSt10shared_ptrIN5lgxZJ2IS2JlEEEONSt16remove_referenceIT_E4typeEOS7_
FNDA:1,_ZSt4moveIRSt10shared_ptrIN5lgxZJ2IS3JneEEEONSt16remove_referenceIT_E4typeEOS7_
FNDA:1,_ZSt4moveIRSt10shared_ptrIN5lgxZJ2IS2JeEEEONSt16remove_referenceIT_E4typeEOS7_
FNDA:7,_ZSt4moveIRSt10shared_ptrIN5lgxZJ2IS3CmpEEEONSt16remove_referenceIT_E4typeEOS7_
FNDA:1,_ZSt4moveIRSt10shared_ptrIN5lgxZJ2IS3JmpEEEONSt16remove_referenceIT_E4typeEOS7_
FNDA:6,_ZSt4moveIRSt10shared_ptrIN5lgxZJ2IS3AAIEEEONSt16remove_referenceIT_E4typeEOS7_
FNDA:3,_ZSt4moveIRSt10shared_ptrIN5lgxZJ2IS5LabelEEEONSt16remove_referenceIT_E4typeEOS7_
FNF:20
FNH:18
DA:47,0
DA:50,0
DA:76,159
DA:77,159
DA:101,45
DA:102,45
LF:6
LH:4
end_of_record
SF:/usr/include/c++/4.8.2/bits/shared_ptr.h
FN:93,_ZNSt10shared_ptrIN5lgxZJ2IS3XorEED2Ev
FN:93,_ZNSt10shared_ptrIN5lgxZJ2IS4MoveEED2Ev
FN:93,_ZNSt10shared_ptrIN5lgxZJ2IS3CmpEED2Ev
FN:93,_ZNSt10shared_ptrIN5lgxZJ2IS3JgeEED2Ev
FN:93,_ZNSt10shared_ptrIN5lgxZJ2IS2JeEED2Ev
FN:93,_ZNSt10shared_ptrIN5lgxZJ2IS4CallEED2Ev
FN:93,_ZNSt10shared_ptrIN5lgxZJ2IS3SubEED2Ev
FN:93,_ZNSt10shared_ptrIN5lgxZJ2IS3AAIEED2Ev
FN:93,_ZNSt10shared_ptrIN5lgxZJ2IS2JlEED2Ev
FN:93,_ZNSt10shared_ptrIN5lgxZJ2IS3JneEED2Ev
FN:93,_ZNSt10shared_ptrIN5lgxZJ2IS3JleEED2Ev
FN:93,_ZNSt10shared_ptrIN5lgxZJ2IS2JgEED2Ev
FN:93,_ZNSt10shared_ptrIN5lgxZJ2IS3AddEED2Ev
FN:93,_ZNSt10shared_ptrIN5lgxZJ2IS4IMulEED2Ev
FN:93,_ZNSt10shared_ptrIN5lgxZJ2IS3JmpEED2Ev
FN:93,_ZNSt10shared_ptrIN5lgxZJ2IS4IDivEED2Ev
FN:93,_ZNSt10shared_ptrIN5lgxZJ2IS5LabelEED2Ev
FN:103,_ZNSt10shared_ptrIN5lgxZJ2IS3AAIEEC2ERKS3_
FN:112,_ZNSt10shared_ptrIN5lgxZJ2IS5LabelEEC2IS2_EEPT_
FN:112,_ZNSt10shared_ptrIN5lgxZJ2IS4IDivEEC2IS2_EEPT_
FN:112,_ZNSt10shared_ptrIN5lgxZJ2IS2JlEEC2IS2_EEPT_
FN:112,_ZNSt10shared_ptrIN5lgxZJ2IS3JmpEEC2IS2_EEPT_
FN:112,_ZNSt10shared_ptrIN5lgxZJ2IS4MoveEEC2IS2_EEPT_
FN:112,_ZNSt10shared_ptrIN5lgxZJ2IS2JgEEC2IS2_EEPT_
FN:112,_ZNSt10shared_ptrIN5lgxZJ2IS3CmpEEC2IS2_EEPT_
FN:112,_ZNSt10shared_ptrIN5lgxZJ2IS3XorEEC2IS2_EEPT_
FN:112,_ZNSt10shared_ptrIN5lgxZJ2IS4IMulEEC2IS2_EEPT_
FN:112,_ZNSt10shared_ptrIN5lgxZJ2IS3JgeEEC2IS2_EEPT_
FN:112,_ZNSt10shared_ptrIN5lgxZJ2IS3JneEEC2IS2_EEPT_
FN:112,_ZNSt10shared_ptrIN5lgxZJ2IS2JeEEC2IS2_EEPT_
FN:112,_ZNSt10shared_ptrIN5lgxZJ2IS4CallEEC2IS2_EEPT_
FN:112,_ZNSt10shared_ptrIN5lgxZJ2IS3AddEEC2IS2_EEPT_
FN:112,_ZNSt10shared_ptrIN5lgxZJ2IS3JleEEC2IS2_EEPT_
FN:112,_ZNSt10shared_ptrIN5lgxZJ2IS3SubEEC2IS2_EEPT_
FN:226,_ZNSt10shared_ptrIN5lgxZJ2IS3AAIEEC2EOS3_
FN:236,_ZNSt10shared_ptrIN5lgxZJ2IS3AAIEEC2INS1_3JleEvEEOS_IT_E
FN:236,_ZNSt10shared_ptrIN5lgxZJ2IS3AAIEEC2INS1_3JgeEvEEOS_IT_E
FN:236,_ZNSt10shared_ptrIN5lgxZJ2IS3AAIEEC2INS1_2JgEvEEOS_IT_E
FN:236,_ZNSt10shared_ptrIN5lgxZJ2IS3AAIEEC2INS1_3AddEvEEOS_IT_E
FN:236,_ZNSt10shared_ptrIN5lgxZJ2IS3AAIEEC2INS1_4MoveEvEEOS_IT_E
FN:236,_ZNSt10shared_ptrIN5lgxZJ2IS3AAIEEC2INS1_4IDivEvEEOS_IT_E
FN:236,_ZNSt10shared_ptrIN5lgxZJ2IS3AAIEEC2INS1_3SubEvEEOS_IT_E
FN:236,_ZNSt10shared_ptrIN5lgxZJ2IS3AAIEEC2INS1_3XorEvEEOS_IT_E
FN:236,_ZNSt10shared_ptrIN5lgxZJ2IS3AAIEEC2INS1_2JlEvEEOS_IT_E
FN:236,_ZNSt10shared_ptrIN5lgxZJ2IS3AAIEEC2INS1_3CmpEvEEOS_IT_E
FN:236,_ZNSt10shared_ptrIN5lgxZJ2IS3AAIEEC2INS1_4IMulEvEEOS_IT_E
FN:236,_ZNSt10shared_ptrIN5lgxZJ2IS3AAIEEC2INS1_4CallEvEEOS_IT_E
FN:236,_ZNSt10shared_ptrIN5lgxZJ2IS3AAIEEC2INS1_2JeEvEEOS_IT_E
FN:236,_ZNSt10shared_ptrIN5lgxZJ2IS3AAIEEC2INS1_3JmpEvEEOS_IT_E
FN:236,_ZNSt10shared_ptrIN5lgxZJ2IS3AAIEEC2INS1_5LabelEvEEOS_IT_E
FN:236,_ZNSt10shared_ptrIN5lgxZJ2IS3AAIEEC2INS1_3JneEvEEOS_IT_E
FNDA:2,_ZNSt10shared_ptrIN5lgxZJ2IS4CallEED2Ev
FNDA:4,_ZNSt10shared_ptrIN5lgxZJ2IS3XorEED2Ev
FNDA:1,_ZNSt10shared_ptrIN5lgxZJ2IS4IDivEED2Ev
FNDA:1,_ZNSt10shared_ptrIN5lgxZJ2IS4IMulEED2Ev
FNDA:2,_ZNSt10shared_ptrIN5lgxZJ2IS3SubEED2Ev
FNDA:0,_ZNSt10shared_ptrIN5lgxZJ2IS3AddEED2Ev
FNDA:11,_ZNSt10shared_ptrIN5lgxZJ2IS4MoveEED2Ev
FNDA:1,_ZNSt10shared_ptrIN5lgxZJ2IS3JgeEED2Ev
FNDA:1,_ZNSt10shared_ptrIN5lgxZJ2IS2JgEED2Ev
FNDA:1,_ZNSt10shared_ptrIN5lgxZJ2IS3JleEED2Ev
FNDA:2,_ZNSt10shared_ptrIN5lgxZJ2IS2JlEED2Ev
FNDA:1,_ZNSt10shared_ptrIN5lgxZJ2IS3JneEED2Ev
FNDA:1,_ZNSt10shared_ptrIN5lgxZJ2IS2JeEED2Ev
FNDA:7,_ZNSt10shared_ptrIN5lgxZJ2IS3CmpEED2Ev
FNDA:1,_ZNSt10shared_ptrIN5lgxZJ2IS3JmpEED2Ev
FNDA:0,_ZNSt10shared_ptrIN5lgxZJ2IS3AAIEED2Ev
FNDA:3,_ZNSt10shared_ptrIN5lgxZJ2IS5LabelEED2Ev
FNDA:0,_ZNSt10shared_ptrIN5lgxZJ2IS3AAIEEC2ERKS3_
FNDA:2,_ZNSt10shared_ptrIN5lgxZJ2IS4CallEEC2IS2_EEPT_
FNDA:4,_ZNSt10shared_ptrIN5lgxZJ2IS3XorEEC2IS2_EEPT_
FNDA:1,_ZNSt10shared_ptrIN5lgxZJ2IS4IDivEEC2IS2_EEPT_
FNDA:1,_ZNSt10shared_ptrIN5lgxZJ2IS4IMulEEC2IS2_EEPT_
FNDA:2,_ZNSt10shared_ptrIN5lgxZJ2IS3SubEEC2IS2_EEPT_
FNDA:0,_ZNSt10shared_ptrIN5lgxZJ2IS3AddEEC2IS2_EEPT_
FNDA:11,_ZNSt10shared_ptrIN5lgxZJ2IS4MoveEEC2IS2_EEPT_
FNDA:1,_ZNSt10shared_ptrIN5lgxZJ2IS3JgeEEC2IS2_EEPT_
FNDA:1,_ZNSt10shared_ptrIN5lgxZJ2IS2JgEEC2IS2_EEPT_
FNDA:1,_ZNSt10shared_ptrIN5lgxZJ2IS3JleEEC2IS2_EEPT_
FNDA:2,_ZNSt10shared_ptrIN5lgxZJ2IS2JlEEC2IS2_EEPT_
FNDA:1,_ZNSt10shared_ptrIN5lgxZJ2IS3JneEEC2IS2_EEPT_
FNDA:1,_ZNSt10shared_ptrIN5lgxZJ2IS2JeEEC2IS2_EEPT_
FNDA:7,_ZNSt10shared_ptrIN5lgxZJ2IS3CmpEEC2IS2_EEPT_
FNDA:1,_ZNSt10shared_ptrIN5lgxZJ2IS3JmpEEC2IS2_EEPT_
FNDA:3,_ZNSt10shared_ptrIN5lgxZJ2IS5LabelEEC2IS2_EEPT_
FNDA:3,_ZNSt10shared_ptrIN5lgxZJ2IS3AAIEEC2EOS3_
FNDA:2,_ZNSt10shared_ptrIN5lgxZJ2IS3AAIEEC2INS1_4CallEvEEOS_IT_E
FNDA:4,_ZNSt10shared_ptrIN5lgxZJ2IS3AAIEEC2INS1_3XorEvEEOS_IT_E
FNDA:1,_ZNSt10shared_ptrIN5lgxZJ2IS3AAIEEC2INS1_4IDivEvEEOS_IT_E
FNDA:1,_ZNSt10shared_ptrIN5lgxZJ2IS3AAIEEC2INS1_4IMulEvEEOS_IT_E
FNDA:2,_ZNSt10shared_ptrIN5lgxZJ2IS3AAIEEC2INS1_3SubEvEEOS_IT_E
FNDA:0,_ZNSt10shared_ptrIN5lgxZJ2IS3AAIEEC2INS1_3AddEvEEOS_IT_E
FNDA:11,_ZNSt10shared_ptrIN5lgxZJ2IS3AAIEEC2INS1_4MoveEvEEOS_IT_E
FNDA:1,_ZNSt10shared_ptrIN5lgxZJ2IS3AAIEEC2INS1_3JgeEvEEOS_IT_E
FNDA:1,_ZNSt10shared_ptrIN5lgxZJ2IS3AAIEEC2INS1_2JgEvEEOS_IT_E
FNDA:1,_ZNSt10shared_ptrIN5lgxZJ2IS3AAIEEC2INS1_3JleEvEEOS_IT_E
FNDA:2,_ZNSt10shared_ptrIN5lgxZJ2IS3AAIEEC2INS1_2JlEvEEOS_IT_E
FNDA:1,_ZNSt10shared_ptrIN5lgxZJ2IS3AAIEEC2INS1_3JneEvEEOS_IT_E
FNDA:1,_ZNSt10shared_ptrIN5lgxZJ2IS3AAIEEC2INS1_2JeEvEEOS_IT_E
FNDA:7,_ZNSt10shared_ptrIN5lgxZJ2IS3AAIEEC2INS1_3CmpEvEEOS_IT_E
FNDA:1,_ZNSt10shared_ptrIN5lgxZJ2IS3AAIEEC2INS1_3JmpEvEEOS_IT_E
FNDA:3,_ZNSt10shared_ptrIN5lgxZJ2IS3AAIEEC2INS1_5LabelEvEEOS_IT_E
FNF:51
FNH:46
DA:93,39
DA:103,0
DA:112,39
DA:113,39
DA:226,3
DA:227,3
DA:236,39
DA:237,39
LF:8
LH:7
end_of_record
SF:/usr/include/c++/4.8.2/bits/shared_ptr_base.h
FN:86,_ZNSt11_Mutex_baseILN9__gnu_cxx12_Lock_policyE2EEC2Ev
FN:109,_ZNSt16_Sp_counted_baseILN9__gnu_cxx12_Lock_policyE2EEC2Ev
FN:113,_ZNSt16_Sp_counted_baseILN9__gnu_cxx12_Lock_policyE2EED2Ev
FN:113,_ZNSt16_Sp_counted_baseILN9__gnu_cxx12_Lock_policyE2EED0Ev
FN:123,_ZNSt16_Sp_counted_baseILN9__gnu_cxx12_Lock_policyE2EE10_M_destroyEv
FN:130,_ZNSt16_Sp_counted_baseILN9__gnu_cxx12_Lock_policyE2EE15_M_add_ref_copyEv
FN:137,_ZNSt16_Sp_counted_baseILN9__gnu_cxx12_Lock_policyE2EE10_M_releaseEv
FN:281,_ZNSt15_Sp_counted_ptrIPN5lgxZJ2IS3JgeELN9__gnu_cxx12_Lock_policyE2EED2Ev
FN:281,_ZNSt15_Sp_counted_ptrIPN5lgxZJ2IS3AddELN9__gnu_cxx12_Lock_policyE2EED2Ev
FN:281,_ZNSt15_Sp_counted_ptrIPN5lgxZJ2IS3AddELN9__gnu_cxx12_Lock_policyE2EED0Ev
FN:281,_ZNSt15_Sp_counted_ptrIPN5lgxZJ2IS4IMulELN9__gnu_cxx12_Lock_policyE2EED0Ev
FN:281,_ZNSt15_Sp_counted_ptrIPN5lgxZJ2IS3CmpELN9__gnu_cxx12_Lock_policyE2EED0Ev
FN:281,_ZNSt15_Sp_counted_ptrIPN5lgxZJ2IS4MoveELN9__gnu_cxx12_Lock_policyE2EED0Ev
FN:281,_ZNSt15_Sp_counted_ptrIPN5lgxZJ2IS5LabelELN9__gnu_cxx12_Lock_policyE2EED2Ev
FN:281,_ZNSt15_Sp_counted_ptrIPN5lgxZJ2IS2JlELN9__gnu_cxx12_Lock_policyE2EED0Ev
FN:281,_ZNSt15_Sp_counted_ptrIPN5lgxZJ2IS4IDivELN9__gnu_cxx12_Lock_policyE2EED0Ev
FN:281,_ZNSt15_Sp_counted_ptrIPN5lgxZJ2IS3XorELN9__gnu_cxx12_Lock_policyE2EED2Ev
FN:281,_ZNSt15_Sp_counted_ptrIPN5lgxZJ2IS4MoveELN9__gnu_cxx12_Lock_policyE2EED2Ev
FN:281,_ZNSt15_Sp_counted_ptrIPN5lgxZJ2IS3JmpELN9__gnu_cxx12_Lock_policyE2EED0Ev
FN:281,_ZNSt15_Sp_counted_ptrIPN5lgxZJ2IS2JlELN9__gnu_cxx12_Lock_policyE2EED2Ev
FN:281,_ZNSt15_Sp_counted_ptrIPN5lgxZJ2IS4CallELN9__gnu_cxx12_Lock_policyE2EED2Ev
FN:281,_ZNSt15_Sp_counted_ptrIPN5lgxZJ2IS4IMulELN9__gnu_cxx12_Lock_policyE2EED2Ev
FN:281,_ZNSt15_Sp_counted_ptrIPN5lgxZJ2IS3SubELN9__gnu_cxx12_Lock_policyE2EED2Ev
FN:281,_ZNSt15_Sp_counted_ptrIPN5lgxZJ2IS3JmpELN9__gnu_cxx12_Lock_policyE2EED2Ev
FN:281,_ZNSt15_Sp_counted_ptrIPN5lgxZJ2IS2JgELN9__gnu_cxx12_Lock_policyE2EED2Ev
FN:281,_ZNSt15_Sp_counted_ptrIPN5lgxZJ2IS2JgELN9__gnu_cxx12_Lock_policyE2EED0Ev
FN:281,_ZNSt15_Sp_counted_ptrIPN5lgxZJ2IS3JleELN9__gnu_cxx12_Lock_policyE2EED0Ev
FN:281,_ZNSt15_Sp_counted_ptrIPN5lgxZJ2IS4CallELN9__gnu_cxx12_Lock_policyE2EED0Ev
FN:281,_ZNSt15_Sp_counted_ptrIPN5lgxZJ2IS2JeELN9__gnu_cxx12_Lock_policyE2EED2Ev
FN:281,_ZNSt15_Sp_counted_ptrIPN5lgxZJ2IS3XorELN9__gnu_cxx12_Lock_policyE2EED0Ev
FN:281,_ZNSt15_Sp_counted_ptrIPN5lgxZJ2IS3CmpELN9__gnu_cxx12_Lock_policyE2EED2Ev
FN:281,_ZNSt15_Sp_counted_ptrIPN5lgxZJ2IS4IDivELN9__gnu_cxx12_Lock_policyE2EED2Ev
FN:281,_ZNSt15_Sp_counted_ptrIPN5lgxZJ2IS3SubELN9__gnu_cxx12_Lock_policyE2EED0Ev
FN:281,_ZNSt15_Sp_counted_ptrIPN5lgxZJ2IS3JleELN9__gnu_cxx12_Lock_policyE2EED2Ev
FN:281,_ZNSt15_Sp_counted_ptrIPN5lgxZJ2IS3JneELN9__gnu_cxx12_Lock_policyE2EED0Ev
FN:281,_ZNSt15_Sp_counted_ptrIPN5lgxZJ2IS5LabelELN9__gnu_cxx12_Lock_policyE2EED0Ev
FN:281,_ZNSt15_Sp_counted_ptrIPN5lgxZJ2IS3JgeELN9__gnu_cxx12_Lock_policyE2EED0Ev
FN:281,_ZNSt15_Sp_counted_ptrIPN5lgxZJ2IS2JeELN9__gnu_cxx12_Lock_policyE2EED0Ev
FN:281,_ZNSt15_Sp_counted_ptrIPN5lgxZJ2IS3JneELN9__gnu_cxx12_Lock_policyE2EED2Ev
FN:285,_ZNSt15_Sp_counted_ptrIPN5lgxZJ2IS2JlELN9__gnu_cxx12_Lock_policyE2EEC2ES3_
FN:285,_ZNSt15_Sp_counted_ptrIPN5lgxZJ2IS3AddELN9__gnu_cxx12_Lock_policyE2EEC2ES3_
FN:285,_ZNSt15_Sp_counted_ptrIPN5lgxZJ2IS5LabelELN9__gnu_cxx12_Lock_policyE2EEC2ES3_
FN:285,_ZNSt15_Sp_counted_ptrIPN5lgxZJ2IS2JeELN9__gnu_cxx12_Lock_policyE2EEC2ES3_
FN:285,_ZNSt15_Sp_counted_ptrIPN5lgxZJ2IS4MoveELN9__gnu_cxx12_Lock_policyE2EEC2ES3_
FN:285,_ZNSt15_Sp_counted_ptrIPN5lgxZJ2IS4CallELN9__gnu_cxx12_Lock_policyE2EEC2ES3_
FN:285,_ZNSt15_Sp_counted_ptrIPN5lgxZJ2IS4IDivELN9__gnu_cxx12_Lock_policyE2EEC2ES3_
FN:285,_ZNSt15_Sp_counted_ptrIPN5lgxZJ2IS3JleELN9__gnu_cxx12_Lock_policyE2EEC2ES3_
FN:285,_ZNSt15_Sp_counted_ptrIPN5lgxZJ2IS3SubELN9__gnu_cxx12_Lock_policyE2EEC2ES3_
FN:285,_ZNSt15_Sp_counted_ptrIPN5lgxZJ2IS3JneELN9__gnu_cxx12_Lock_policyE2EEC2ES3_
FN:285,_ZNSt15_Sp_counted_ptrIPN5lgxZJ2IS3CmpELN9__gnu_cxx12_Lock_policyE2EEC2ES3_
FN:285,_ZNSt15_Sp_counted_ptrIPN5lgxZJ2IS3XorELN9__gnu_cxx12_Lock_policyE2EEC2ES3_
FN:285,_ZNSt15_Sp_counted_ptrIPN5lgxZJ2IS3JgeELN9__gnu_cxx12_Lock_policyE2EEC2ES3_
FN:285,_ZNSt15_Sp_counted_ptrIPN5lgxZJ2IS4IMulELN9__gnu_cxx12_Lock_policyE2EEC2ES3_
FN:285,_ZNSt15_Sp_counted_ptrIPN5lgxZJ2IS3JmpELN9__gnu_cxx12_Lock_policyE2EEC2ES3_
FN:285,_ZNSt15_Sp_counted_ptrIPN5lgxZJ2IS2JgELN9__gnu_cxx12_Lock_policyE2EEC2ES3_
FN:289,_ZNSt15_Sp_counted_ptrIPN5lgxZJ2IS3JleELN9__gnu_cxx12_Lock_policyE2EE10_M_disposeEv
FN:289,_ZNSt15_Sp_counted_ptrIPN5lgxZJ2IS2JlELN9__gnu_cxx12_Lock_policyE2EE10_M_disposeEv
FN:289,_ZNSt15_Sp_counted_ptrIPN5lgxZJ2IS3JneELN9__gnu_cxx12_Lock_policyE2EE10_M_disposeEv
FN:289,_ZNSt15_Sp_counted_ptrIPN5lgxZJ2IS4IDivELN9__gnu_cxx12_Lock_policyE2EE10_M_disposeEv
FN:289,_ZNSt15_Sp_counted_ptrIPN5lgxZJ2IS3AddELN9__gnu_cxx12_Lock_policyE2EE10_M_disposeEv
FN:289,_ZNSt15_Sp_counted_ptrIPN5lgxZJ2IS3XorELN9__gnu_cxx12_Lock_policyE2EE10_M_disposeEv
FN:289,_ZNSt15_Sp_counted_ptrIPN5lgxZJ2IS2JgELN9__gnu_cxx12_Lock_policyE2EE10_M_disposeEv
FN:289,_ZNSt15_Sp_counted_ptrIPN5lgxZJ2IS4CallELN9__gnu_cxx12_Lock_policyE2EE10_M_disposeEv
FN:289,_ZNSt15_Sp_counted_ptrIPN5lgxZJ2IS3JmpELN9__gnu_cxx12_Lock_policyE2EE10_M_disposeEv
FN:289,_ZNSt15_Sp_counted_ptrIPN5lgxZJ2IS3CmpELN9__gnu_cxx12_Lock_policyE2EE10_M_disposeEv
FN:289,_ZNSt15_Sp_counted_ptrIPN5lgxZJ2IS5LabelELN9__gnu_cxx12_Lock_policyE2EE10_M_disposeEv
FN:289,_ZNSt15_Sp_counted_ptrIPN5lgxZJ2IS4IMulELN9__gnu_cxx12_Lock_policyE2EE10_M_disposeEv
FN:289,_ZNSt15_Sp_counted_ptrIPN5lgxZJ2IS3JgeELN9__gnu_cxx12_Lock_policyE2EE10_M_disposeEv
FN:289,_ZNSt15_Sp_counted_ptrIPN5lgxZJ2IS2JeELN9__gnu_cxx12_Lock_policyE2EE10_M_disposeEv
FN:289,_ZNSt15_Sp_counted_ptrIPN5lgxZJ2IS4MoveELN9__gnu_cxx12_Lock_policyE2EE10_M_disposeEv
FN:289,_ZNSt15_Sp_counted_ptrIPN5lgxZJ2IS3SubELN9__gnu_cxx12_Lock_policyE2EE10_M_disposeEv
FN:293,_ZNSt15_Sp_counted_ptrIPN5lgxZJ2IS2JgELN9__gnu_cxx12_Lock_policyE2EE10_M_destroyEv
FN:293,_ZNSt15_Sp_counted_ptrIPN5lgxZJ2IS4IMulELN9__gnu_cxx12_Lock_policyE2EE10_M_destroyEv
FN:293,_ZNSt15_Sp_counted_ptrIPN5lgxZJ2IS5LabelELN9__gnu_cxx12_Lock_policyE2EE10_M_destroyEv
FN:293,_ZNSt15_Sp_counted_ptrIPN5lgxZJ2IS4MoveELN9__gnu_cxx12_Lock_policyE2EE10_M_destroyEv
FN:293,_ZNSt15_Sp_counted_ptrIPN5lgxZJ2IS4IDivELN9__gnu_cxx12_Lock_policyE2EE10_M_destroyEv
FN:293,_ZNSt15_Sp_counted_ptrIPN5lgxZJ2IS3SubELN9__gnu_cxx12_Lock_policyE2EE10_M_destroyEv
FN:293,_ZNSt15_Sp_counted_ptrIPN5lgxZJ2IS3JmpELN9__gnu_cxx12_Lock_policyE2EE10_M_destroyEv
FN:293,_ZNSt15_Sp_counted_ptrIPN5lgxZJ2IS3AddELN9__gnu_cxx12_Lock_policyE2EE10_M_destroyEv
FN:293,_ZNSt15_Sp_counted_ptrIPN5lgxZJ2IS3JgeELN9__gnu_cxx12_Lock_policyE2EE10_M_destroyEv
FN:293,_ZNSt15_Sp_counted_ptrIPN5lgxZJ2IS2JlELN9__gnu_cxx12_Lock_policyE2EE10_M_destroyEv
FN:293,_ZNSt15_Sp_counted_ptrIPN5lgxZJ2IS4CallELN9__gnu_cxx12_Lock_policyE2EE10_M_destroyEv
FN:293,_ZNSt15_Sp_counted_ptrIPN5lgxZJ2IS3XorELN9__gnu_cxx12_Lock_policyE2EE10_M_destroyEv
FN:293,_ZNSt15_Sp_counted_ptrIPN5lgxZJ2IS2JeELN9__gnu_cxx12_Lock_policyE2EE10_M_destroyEv
FN:293,_ZNSt15_Sp_counted_ptrIPN5lgxZJ2IS3CmpELN9__gnu_cxx12_Lock_policyE2EE10_M_destroyEv
FN:293,_ZNSt15_Sp_counted_ptrIPN5lgxZJ2IS3JneELN9__gnu_cxx12_Lock_policyE2EE10_M_destroyEv
FN:293,_ZNSt15_Sp_counted_ptrIPN5lgxZJ2IS3JleELN9__gnu_cxx12_Lock_policyE2EE10_M_destroyEv
FN:297,_ZNSt15_Sp_counted_ptrIPN5lgxZJ2IS3CmpELN9__gnu_cxx12_Lock_policyE2EE14_M_get_deleterERKSt9type_info
FN:297,_ZNSt15_Sp_counted_ptrIPN5lgxZJ2IS5LabelELN9__gnu_cxx12_Lock_policyE2EE14_M_get_deleterERKSt9type_info
FN:297,_ZNSt15_Sp_counted_ptrIPN5lgxZJ2IS4IMulELN9__gnu_cxx12_Lock_policyE2EE14_M_get_deleterERKSt9type_info
FN:297,_ZNSt15_Sp_counted_ptrIPN5lgxZJ2IS2JeELN9__gnu_cxx12_Lock_policyE2EE14_M_get_deleterERKSt9type_info
FN:297,_ZNSt15_Sp_counted_ptrIPN5lgxZJ2IS2JgELN9__gnu_cxx12_Lock_policyE2EE14_M_get_deleterERKSt9type_info
FN:297,_ZNSt15_Sp_counted_ptrIPN5lgxZJ2IS4IDivELN9__gnu_cxx12_Lock_policyE2EE14_M_get_deleterERKSt9type_info
FN:297,_ZNSt15_Sp_counted_ptrIPN5lgxZJ2IS3JmpELN9__gnu_cxx12_Lock_policyE2EE14_M_get_deleterERKSt9type_info
FN:297,_ZNSt15_Sp_counted_ptrIPN5lgxZJ2IS3JgeELN9__gnu_cxx12_Lock_policyE2EE14_M_get_deleterERKSt9type_info
FN:297,_ZNSt15_Sp_counted_ptrIPN5lgxZJ2IS3JneELN9__gnu_cxx12_Lock_policyE2EE14_M_get_deleterERKSt9type_info
FN:297,_ZNSt15_Sp_counted_ptrIPN5lgxZJ2IS3XorELN9__gnu_cxx12_Lock_policyE2EE14_M_get_deleterERKSt9type_info
FN:297,_ZNSt15_Sp_counted_ptrIPN5lgxZJ2IS4MoveELN9__gnu_cxx12_Lock_policyE2EE14_M_get_deleterERKSt9type_info
FN:297,_ZNSt15_Sp_counted_ptrIPN5lgxZJ2IS2JlELN9__gnu_cxx12_Lock_policyE2EE14_M_get_deleterERKSt9type_info
FN:297,_ZNSt15_Sp_counted_ptrIPN5lgxZJ2IS3JleELN9__gnu_cxx12_Lock_policyE2EE14_M_get_deleterERKSt9type_info
FN:297,_ZNSt15_Sp_counted_ptrIPN5lgxZJ2IS4CallELN9__gnu_cxx12_Lock_policyE2EE14_M_get_deleterERKSt9type_info
FN:297,_ZNSt15_Sp_counted_ptrIPN5lgxZJ2IS3AddELN9__gnu_cxx12_Lock_policyE2EE14_M_get_deleterERKSt9type_info
FN:297,_ZNSt15_Sp_counted_ptrIPN5lgxZJ2IS3SubELN9__gnu_cxx12_Lock_policyE2EE14_M_get_deleterERKSt9type_info
FN:443,_ZNSt14__shared_countILN9__gnu_cxx12_Lock_policyE2EEC2Ev
FN:448,_ZNSt14__shared_countILN9__gnu_cxx12_Lock_policyE2EEC2IPN5lgxZJ2IS5LabelEEET_
FN:448,_ZNSt14__shared_countILN9__gnu_cxx12_Lock_policyE2EEC2IPN5lgxZJ2IS3XorEEET_
FN:448,_ZNSt14__shared_countILN9__gnu_cxx12_Lock_policyE2EEC2IPN5lgxZJ2IS2JgEEET_
FN:448,_ZNSt14__shared_countILN9__gnu_cxx12_Lock_policyE2EEC2IPN5lgxZJ2IS3JgeEEET_
FN:448,_ZNSt14__shared_countILN9__gnu_cxx12_Lock_policyE2EEC2IPN5lgxZJ2IS3JmpEEET_
FN:448,_ZNSt14__shared_countILN9__gnu_cxx12_Lock_policyE2EEC2IPN5lgxZJ2IS4MoveEEET_
FN:448,_ZNSt14__shared_countILN9__gnu_cxx12_Lock_policyE2EEC2IPN5lgxZJ2IS2JeEEET_
FN:448,_ZNSt14__shared_countILN9__gnu_cxx12_Lock_policyE2EEC2IPN5lgxZJ2IS3JleEEET_
FN:448,_ZNSt14__shared_countILN9__gnu_cxx12_Lock_policyE2EEC2IPN5lgxZJ2IS3AddEEET_
FN:448,_ZNSt14__shared_countILN9__gnu_cxx12_Lock_policyE2EEC2IPN5lgxZJ2IS2JlEEET_
FN:448,_ZNSt14__shared_countILN9__gnu_cxx12_Lock_policyE2EEC2IPN5lgxZJ2IS4CallEEET_
FN:448,_ZNSt14__shared_countILN9__gnu_cxx12_Lock_policyE2EEC2IPN5lgxZJ2IS3SubEEET_
FN:448,_ZNSt14__shared_countILN9__gnu_cxx12_Lock_policyE2EEC2IPN5lgxZJ2IS4IMulEEET_
FN:448,_ZNSt14__shared_countILN9__gnu_cxx12_Lock_policyE2EEC2IPN5lgxZJ2IS3JneEEET_
FN:448,_ZNSt14__shared_countILN9__gnu_cxx12_Lock_policyE2EEC2IPN5lgxZJ2IS4IDivEEET_
FN:448,_ZNSt14__shared_countILN9__gnu_cxx12_Lock_policyE2EEC2IPN5lgxZJ2IS3CmpEEET_
FN:543,_ZNSt14__shared_countILN9__gnu_cxx12_Lock_policyE2EED2Ev
FN:549,_ZNSt14__shared_countILN9__gnu_cxx12_Lock_policyE2EEC2ERKS2_
FN:572,_ZNSt14__shared_countILN9__gnu_cxx12_Lock_policyE2EE7_M_swapERS2_
FN:723,_ZSt32__enable_shared_from_this_helperILN9__gnu_cxx12_Lock_policyE2EEvRKSt14__shared_countIXT_EEz
FN:738,_ZNSt12__shared_ptrIN5lgxZJ2IS3XorELN9__gnu_cxx12_Lock_policyE2EEC2IS2_EEPT_
FN:738,_ZNSt12__shared_ptrIN5lgxZJ2IS3JneELN9__gnu_cxx12_Lock_policyE2EEC2IS2_EEPT_
FN:738,_ZNSt12__shared_ptrIN5lgxZJ2IS4IMulELN9__gnu_cxx12_Lock_policyE2EEC2IS2_EEPT_
FN:738,_ZNSt12__shared_ptrIN5lgxZJ2IS3JleELN9__gnu_cxx12_Lock_policyE2EEC2IS2_EEPT_
FN:738,_ZNSt12__shared_ptrIN5lgxZJ2IS3SubELN9__gnu_cxx12_Lock_policyE2EEC2IS2_EEPT_
FN:738,_ZNSt12__shared_ptrIN5lgxZJ2IS2JgELN9__gnu_cxx12_Lock_policyE2EEC2IS2_EEPT_
FN:738,_ZNSt12__shared_ptrIN5lgxZJ2IS4IDivELN9__gnu_cxx12_Lock_policyE2EEC2IS2_EEPT_
FN:738,_ZNSt12__shared_ptrIN5lgxZJ2IS4MoveELN9__gnu_cxx12_Lock_policyE2EEC2IS2_EEPT_
FN:738,_ZNSt12__shared_ptrIN5lgxZJ2IS3CmpELN9__gnu_cxx12_Lock_policyE2EEC2IS2_EEPT_
FN:738,_ZNSt12__shared_ptrIN5lgxZJ2IS3JgeELN9__gnu_cxx12_Lock_policyE2EEC2IS2_EEPT_
FN:738,_ZNSt12__shared_ptrIN5lgxZJ2IS3AddELN9__gnu_cxx12_Lock_policyE2EEC2IS2_EEPT_
FN:738,_ZNSt12__shared_ptrIN5lgxZJ2IS2JlELN9__gnu_cxx12_Lock_policyE2EEC2IS2_EEPT_
FN:738,_ZNSt12__shared_ptrIN5lgxZJ2IS2JeELN9__gnu_cxx12_Lock_policyE2EEC2IS2_EEPT_
FN:738,_ZNSt12__shared_ptrIN5lgxZJ2IS3JmpELN9__gnu_cxx12_Lock_policyE2EEC2IS2_EEPT_
FN:738,_ZNSt12__shared_ptrIN5lgxZJ2IS4CallELN9__gnu_cxx12_Lock_policyE2EEC2IS2_EEPT_
FN:738,_ZNSt12__shared_ptrIN5lgxZJ2IS5LabelELN9__gnu_cxx12_Lock_policyE2EEC2IS2_EEPT_
FN:779,_ZNSt12__shared_ptrIN5lgxZJ2IS3AAIELN9__gnu_cxx12_Lock_policyE2EEC2ERKS5_
FN:781,_ZNSt12__shared_ptrIN5lgxZJ2IS3CmpELN9__gnu_cxx12_Lock_policyE2EED2Ev
FN:781,_ZNSt12__shared_ptrIN5lgxZJ2IS2JeELN9__gnu_cxx12_Lock_policyE2EED2Ev
FN:781,_ZNSt12__shared_ptrIN5lgxZJ2IS3XorELN9__gnu_cxx12_Lock_policyE2EED2Ev
FN:781,_ZNSt12__shared_ptrIN5lgxZJ2IS3AAIELN9__gnu_cxx12_Lock_policyE2EED2Ev
FN:781,_ZNSt12__shared_ptrIN5lgxZJ2IS3AddELN9__gnu_cxx12_Lock_policyE2EED2Ev
FN:781,_ZNSt12__shared_ptrIN5lgxZJ2IS2JgELN9__gnu_cxx12_Lock_policyE2EED2Ev
FN:781,_ZNSt12__shared_ptrIN5lgxZJ2IS3JneELN9__gnu_cxx12_Lock_policyE2EED2Ev
FN:781,_ZNSt12__shared_ptrIN5lgxZJ2IS4IMulELN9__gnu_cxx12_Lock_policyE2EED2Ev
FN:781,_ZNSt12__shared_ptrIN5lgxZJ2IS5LabelELN9__gnu_cxx12_Lock_policyE2EED2Ev
FN:781,_ZNSt12__shared_ptrIN5lgxZJ2IS3JmpELN9__gnu_cxx12_Lock_policyE2EED2Ev
FN:781,_ZNSt12__shared_ptrIN5lgxZJ2IS4CallELN9__gnu_cxx12_Lock_policyE2EED2Ev
FN:781,_ZNSt12__shared_ptrIN5lgxZJ2IS4MoveELN9__gnu_cxx12_Lock_policyE2EED2Ev
FN:781,_ZNSt12__shared_ptrIN5lgxZJ2IS4IDivELN9__gnu_cxx12_Lock_policyE2EED2Ev
FN:781,_ZNSt12__shared_ptrIN5lgxZJ2IS3JgeELN9__gnu_cxx12_Lock_policyE2EED2Ev
FN:781,_ZNSt12__shared_ptrIN5lgxZJ2IS3SubELN9__gnu_cxx12_Lock_policyE2EED2Ev
FN:781,_ZNSt12__shared_ptrIN5lgxZJ2IS2JlELN9__gnu_cxx12_Lock_policyE2EED2Ev
FN:781,_ZNSt12__shared_ptrIN5lgxZJ2IS3JleELN9__gnu_cxx12_Lock_policyE2EED2Ev
FN:789,_ZNSt12__shared_ptrIN5lgxZJ2IS3AAIELN9__gnu_cxx12_Lock_policyE2EEC2EOS5_
FN:798,_ZNSt12__shared_ptrIN5lgxZJ2IS3AAIELN9__gnu_cxx12_Lock_policyE2EEC2INS1_3CmpEvEEOS_IT_LS4_2EE
FN:798,_ZNSt12__shared_ptrIN5lgxZJ2IS3AAIELN9__gnu_cxx12_Lock_policyE2EEC2INS1_5LabelEvEEOS_IT_LS4_2EE
FN:798,_ZNSt12__shared_ptrIN5lgxZJ2IS3AAIELN9__gnu_cxx12_Lock_policyE2EEC2INS1_3JmpEvEEOS_IT_LS4_2EE
FN:798,_ZNSt12__shared_ptrIN5lgxZJ2IS3AAIELN9__gnu_cxx12_Lock_policyE2EEC2INS1_2JgEvEEOS_IT_LS4_2EE
FN:798,_ZNSt12__shared_ptrIN5lgxZJ2IS3AAIELN9__gnu_cxx12_Lock_policyE2EEC2INS1_4IDivEvEEOS_IT_LS4_2EE
FN:798,_ZNSt12__shared_ptrIN5lgxZJ2IS3AAIELN9__gnu_cxx12_Lock_policyE2EEC2INS1_3JleEvEEOS_IT_LS4_2EE
FN:798,_ZNSt12__shared_ptrIN5lgxZJ2IS3AAIELN9__gnu_cxx12_Lock_policyE2EEC2INS1_4MoveEvEEOS_IT_LS4_2EE
FN:798,_ZNSt12__shared_ptrIN5lgxZJ2IS3AAIELN9__gnu_cxx12_Lock_policyE2EEC2INS1_4IMulEvEEOS_IT_LS4_2EE
FN:798,_ZNSt12__shared_ptrIN5lgxZJ2IS3AAIELN9__gnu_cxx12_Lock_policyE2EEC2INS1_3XorEvEEOS_IT_LS4_2EE
FN:798,_ZNSt12__shared_ptrIN5lgxZJ2IS3AAIELN9__gnu_cxx12_Lock_policyE2EEC2INS1_4CallEvEEOS_IT_LS4_2EE
FN:798,_ZNSt12__shared_ptrIN5lgxZJ2IS3AAIELN9__gnu_cxx12_Lock_policyE2EEC2INS1_3JneEvEEOS_IT_LS4_2EE
FN:798,_ZNSt12__shared_ptrIN5lgxZJ2IS3AAIELN9__gnu_cxx12_Lock_policyE2EEC2INS1_3AddEvEEOS_IT_LS4_2EE
FN:798,_ZNSt12__shared_ptrIN5lgxZJ2IS3AAIELN9__gnu_cxx12_Lock_policyE2EEC2INS1_2JlEvEEOS_IT_LS4_2EE
FN:798,_ZNSt12__shared_ptrIN5lgxZJ2IS3AAIELN9__gnu_cxx12_Lock_policyE2EEC2INS1_3JgeEvEEOS_IT_LS4_2EE
FN:798,_ZNSt12__shared_ptrIN5lgxZJ2IS3AAIELN9__gnu_cxx12_Lock_policyE2EEC2INS1_3SubEvEEOS_IT_LS4_2EE
FN:798,_ZNSt12__shared_ptrIN5lgxZJ2IS3AAIELN9__gnu_cxx12_Lock_policyE2EEC2INS1_2JeEvEEOS_IT_LS4_2EE
FNDA:39,_ZNSt11_Mutex_baseILN9__gnu_cxx12_Lock_policyE2EEC2Ev
FNDA:39,_ZNSt16_Sp_counted_baseILN9__gnu_cxx12_Lock_policyE2EEC2Ev
FNDA:0,_ZNSt16_Sp_counted_baseILN9__gnu_cxx12_Lock_policyE2EED0Ev
FNDA:36,_ZNSt16_Sp_counted_baseILN9__gnu_cxx12_Lock_policyE2EED2Ev
FNDA:0,_ZNSt16_Sp_counted_baseILN9__gnu_cxx12_Lock_policyE2EE10_M_destroyEv
FNDA:0,_ZNSt16_Sp_counted_baseILN9__gnu_cxx12_Lock_policyE2EE15_M_add_ref_copyEv
FNDA:0,_ZNSt16_Sp_counted_baseILN9__gnu_cxx12_Lock_policyE2EE10_M_releaseEv
FNDA:2,_ZNSt15_Sp_counted_ptrIPN5lgxZJ2IS5LabelELN9__gnu_cxx12_Lock_policyE2EED0Ev
FNDA:2,_ZNSt15_Sp_counted_ptrIPN5lgxZJ2IS5LabelELN9__gnu_cxx12_Lock_policyE2EED2Ev
FNDA:1,_ZNSt15_Sp_counted_ptrIPN5lgxZJ2IS3JmpELN9__gnu_cxx12_Lock_policyE2EED0Ev
FNDA:1,_ZNSt15_Sp_counted_ptrIPN5lgxZJ2IS3JmpELN9__gnu_cxx12_Lock_policyE2EED2Ev
FNDA:7,_ZNSt15_Sp_counted_ptrIPN5lgxZJ2IS3CmpELN9__gnu_cxx12_Lock_policyE2EED0Ev
FNDA:7,_ZNSt15_Sp_counted_ptrIPN5lgxZJ2IS3CmpELN9__gnu_cxx12_Lock_policyE2EED2Ev
FNDA:1,_ZNSt15_Sp_counted_ptrIPN5lgxZJ2IS2JeELN9__gnu_cxx12_Lock_policyE2EED0Ev
FNDA:1,_ZNSt15_Sp_counted_ptrIPN5lgxZJ2IS2JeELN9__gnu_cxx12_Lock_policyE2EED2Ev
FNDA:1,_ZNSt15_Sp_counted_ptrIPN5lgxZJ2IS3JneELN9__gnu_cxx12_Lock_policyE2EED0Ev
FNDA:1,_ZNSt15_Sp_counted_ptrIPN5lgxZJ2IS3JneELN9__gnu_cxx12_Lock_policyE2EED2Ev
FNDA:2,_ZNSt15_Sp_counted_ptrIPN5lgxZJ2IS2JlELN9__gnu_cxx12_Lock_policyE2EED0Ev
FNDA:2,_ZNSt15_Sp_counted_ptrIPN5lgxZJ2IS2JlELN9__gnu_cxx12_Lock_policyE2EED2Ev
FNDA:1,_ZNSt15_Sp_counted_ptrIPN5lgxZJ2IS3JleELN9__gnu_cxx12_Lock_policyE2EED0Ev
FNDA:1,_ZNSt15_Sp_counted_ptrIPN5lgxZJ2IS3JleELN9__gnu_cxx12_Lock_policyE2EED2Ev
FNDA:1,_ZNSt15_Sp_counted_ptrIPN5lgxZJ2IS2JgELN9__gnu_cxx12_Lock_policyE2EED0Ev
FNDA:1,_ZNSt15_Sp_counted_ptrIPN5lgxZJ2IS2JgELN9__gnu_cxx12_Lock_policyE2EED2Ev
FNDA:1,_ZNSt15_Sp_counted_ptrIPN5lgxZJ2IS3JgeELN9__gnu_cxx12_Lock_policyE2EED0Ev
FNDA:1,_ZNSt15_Sp_counted_ptrIPN5lgxZJ2IS3JgeELN9__gnu_cxx12_Lock_policyE2EED2Ev
FNDA:9,_ZNSt15_Sp_counted_ptrIPN5lgxZJ2IS4MoveELN9__gnu_cxx12_Lock_policyE2EED0Ev
FNDA:9,_ZNSt15_Sp_counted_ptrIPN5lgxZJ2IS4MoveELN9__gnu_cxx12_Lock_policyE2EED2Ev
FNDA:0,_ZNSt15_Sp_counted_ptrIPN5lgxZJ2IS3AddELN9__gnu_cxx12_Lock_policyE2EED0Ev
FNDA:0,_ZNSt15_Sp_counted_ptrIPN5lgxZJ2IS3AddELN9__gnu_cxx12_Lock_policyE2EED2Ev
FNDA:2,_ZNSt15_Sp_counted_ptrIPN5lgxZJ2IS3SubELN9__gnu_cxx12_Lock_policyE2EED0Ev
FNDA:2,_ZNSt15_Sp_counted_ptrIPN5lgxZJ2IS3SubELN9__gnu_cxx12_Lock_policyE2EED2Ev
FNDA:1,_ZNSt15_Sp_counted_ptrIPN5lgxZJ2IS4IMulELN9__gnu_cxx12_Lock_policyE2EED0Ev
FNDA:1,_ZNSt15_Sp_counted_ptrIPN5lgxZJ2IS4IMulELN9__gnu_cxx12_Lock_policyE2EED2Ev
FNDA:1,_ZNSt15_Sp_counted_ptrIPN5lgxZJ2IS4IDivELN9__gnu_cxx12_Lock_policyE2EED0Ev
FNDA:1,_ZNSt15_Sp_counted_ptrIPN5lgxZJ2IS4IDivELN9__gnu_cxx12_Lock_policyE2EED2Ev
FNDA:4,_ZNSt15_Sp_counted_ptrIPN5lgxZJ2IS3XorELN9__gnu_cxx12_Lock_policyE2EED0Ev
FNDA:4,_ZNSt15_Sp_counted_ptrIPN5lgxZJ2IS3XorELN9__gnu_cxx12_Lock_policyE2EED2Ev
FNDA:2,_ZNSt15_Sp_counted_ptrIPN5lgxZJ2IS4CallELN9__gnu_cxx12_Lock_policyE2EED0Ev
FNDA:2,_ZNSt15_Sp_counted_ptrIPN5lgxZJ2IS4CallELN9__gnu_cxx12_Lock_policyE2EED2Ev
FNDA:2,_ZNSt15_Sp_counted_ptrIPN5lgxZJ2IS4CallELN9__gnu_cxx12_Lock_policyE2EEC2ES3_
FNDA:4,_ZNSt15_Sp_counted_ptrIPN5lgxZJ2IS3XorELN9__gnu_cxx12_Lock_policyE2EEC2ES3_
FNDA:1,_ZNSt15_Sp_counted_ptrIPN5lgxZJ2IS4IDivELN9__gnu_cxx12_Lock_policyE2EEC2ES3_
FNDA:1,_ZNSt15_Sp_counted_ptrIPN5lgxZJ2IS4IMulELN9__gnu_cxx12_Lock_policyE2EEC2ES3_
FNDA:2,_ZNSt15_Sp_counted_ptrIPN5lgxZJ2IS3SubELN9__gnu_cxx12_Lock_policyE2EEC2ES3_
FNDA:0,_ZNSt15_Sp_counted_ptrIPN5lgxZJ2IS3AddELN9__gnu_cxx12_Lock_policyE2EEC2ES3_
FNDA:11,_ZNSt15_Sp_counted_ptrIPN5lgxZJ2IS4MoveELN9__gnu_cxx12_Lock_policyE2EEC2ES3_
FNDA:1,_ZNSt15_Sp_counted_ptrIPN5lgxZJ2IS3JgeELN9__gnu_cxx12_Lock_policyE2EEC2ES3_
FNDA:1,_ZNSt15_Sp_counted_ptrIPN5lgxZJ2IS2JgELN9__gnu_cxx12_Lock_policyE2EEC2ES3_
FNDA:1,_ZNSt15_Sp_counted_ptrIPN5lgxZJ2IS3JleELN9__gnu_cxx12_Lock_policyE2EEC2ES3_
FNDA:2,_ZNSt15_Sp_counted_ptrIPN5lgxZJ2IS2JlELN9__gnu_cxx12_Lock_policyE2EEC2ES3_
FNDA:1,_ZNSt15_Sp_counted_ptrIPN5lgxZJ2IS3JneELN9__gnu_cxx12_Lock_policyE2EEC2ES3_
FNDA:1,_ZNSt15_Sp_counted_ptrIPN5lgxZJ2IS2JeELN9__gnu_cxx12_Lock_policyE2EEC2ES3_
FNDA:7,_ZNSt15_Sp_counted_ptrIPN5lgxZJ2IS3CmpELN9__gnu_cxx12_Lock_policyE2EEC2ES3_
FNDA:1,_ZNSt15_Sp_counted_ptrIPN5lgxZJ2IS3JmpELN9__gnu_cxx12_Lock_policyE2EEC2ES3_
FNDA:3,_ZNSt15_Sp_counted_ptrIPN5lgxZJ2IS5LabelELN9__gnu_cxx12_Lock_policyE2EEC2ES3_
FNDA:2,_ZNSt15_Sp_counted_ptrIPN5lgxZJ2IS5LabelELN9__gnu_cxx12_Lock_policyE2EE10_M_disposeEv
FNDA:1,_ZNSt15_Sp_counted_ptrIPN5lgxZJ2IS3JmpELN9__gnu_cxx12_Lock_policyE2EE10_M_disposeEv
FNDA:7,_ZNSt15_Sp_counted_ptrIPN5lgxZJ2IS3CmpELN9__gnu_cxx12_Lock_policyE2EE10_M_disposeEv
FNDA:1,_ZNSt15_Sp_counted_ptrIPN5lgxZJ2IS2JeELN9__gnu_cxx12_Lock_policyE2EE10_M_disposeEv
FNDA:1,_ZNSt15_Sp_counted_ptrIPN5lgxZJ2IS3JneELN9__gnu_cxx12_Lock_policyE2EE10_M_disposeEv
FNDA:2,_ZNSt15_Sp_counted_ptrIPN5lgxZJ2IS2JlELN9__gnu_cxx12_Lock_policyE2EE10_M_disposeEv
FNDA:1,_ZNSt15_Sp_counted_ptrIPN5lgxZJ2IS3JleELN9__gnu_cxx12_Lock_policyE2EE10_M_disposeEv
FNDA:1,_ZNSt15_Sp_counted_ptrIPN5lgxZJ2IS2JgELN9__gnu_cxx12_Lock_policyE2EE10_M_disposeEv
FNDA:1,_ZNSt15_Sp_counted_ptrIPN5lgxZJ2IS3JgeELN9__gnu_cxx12_Lock_policyE2EE10_M_disposeEv
FNDA:9,_ZNSt15_Sp_counted_ptrIPN5lgxZJ2IS4MoveELN9__gnu_cxx12_Lock_policyE2EE10_M_disposeEv
FNDA:0,_ZNSt15_Sp_counted_ptrIPN5lgxZJ2IS3AddELN9__gnu_cxx12_Lock_policyE2EE10_M_disposeEv
FNDA:2,_ZNSt15_Sp_counted_ptrIPN5lgxZJ2IS3SubELN9__gnu_cxx12_Lock_policyE2EE10_M_disposeEv
FNDA:1,_ZNSt15_Sp_counted_ptrIPN5lgxZJ2IS4IMulELN9__gnu_cxx12_Lock_policyE2EE10_M_disposeEv
FNDA:1,_ZNSt15_Sp_counted_ptrIPN5lgxZJ2IS4IDivELN9__gnu_cxx12_Lock_policyE2EE10_M_disposeEv
FNDA:4,_ZNSt15_Sp_counted_ptrIPN5lgxZJ2IS3XorELN9__gnu_cxx12_Lock_policyE2EE10_M_disposeEv
FNDA:2,_ZNSt15_Sp_counted_ptrIPN5lgxZJ2IS4CallELN9__gnu_cxx12_Lock_policyE2EE10_M_disposeEv
FNDA:2,_ZNSt15_Sp_counted_ptrIPN5lgxZJ2IS5LabelELN9__gnu_cxx12_Lock_policyE2EE10_M_destroyEv
FNDA:1,_ZNSt15_Sp_counted_ptrIPN5lgxZJ2IS3JmpELN9__gnu_cxx12_Lock_policyE2EE10_M_destroyEv
FNDA:7,_ZNSt15_Sp_counted_ptrIPN5lgxZJ2IS3CmpELN9__gnu_cxx12_Lock_policyE2EE10_M_destroyEv
FNDA:1,_ZNSt15_Sp_counted_ptrIPN5lgxZJ2IS2JeELN9__gnu_cxx12_Lock_policyE2EE10_M_destroyEv
FNDA:1,_ZNSt15_Sp_counted_ptrIPN5lgxZJ2IS3JneELN9__gnu_cxx12_Lock_policyE2EE10_M_destroyEv
FNDA:2,_ZNSt15_Sp_counted_ptrIPN5lgxZJ2IS2JlELN9__gnu_cxx12_Lock_policyE2EE10_M_destroyEv
FNDA:1,_ZNSt15_Sp_counted_ptrIPN5lgxZJ2IS3JleELN9__gnu_cxx12_Lock_policyE2EE10_M_destroyEv
FNDA:1,_ZNSt15_Sp_counted_ptrIPN5lgxZJ2IS2JgELN9__gnu_cxx12_Lock_policyE2EE10_M_destroyEv
FNDA:1,_ZNSt15_Sp_counted_ptrIPN5lgxZJ2IS3JgeELN9__gnu_cxx12_Lock_policyE2EE10_M_destroyEv
FNDA:9,_ZNSt15_Sp_counted_ptrIPN5lgxZJ2IS4MoveELN9__gnu_cxx12_Lock_policyE2EE10_M_destroyEv
FNDA:0,_ZNSt15_Sp_counted_ptrIPN5lgxZJ2IS3AddELN9__gnu_cxx12_Lock_policyE2EE10_M_destroyEv
FNDA:2,_ZNSt15_Sp_counted_ptrIPN5lgxZJ2IS3SubELN9__gnu_cxx12_Lock_policyE2EE10_M_destroyEv
FNDA:1,_ZNSt15_Sp_counted_ptrIPN5lgxZJ2IS4IMulELN9__gnu_cxx12_Lock_policyE2EE10_M_destroyEv
FNDA:1,_ZNSt15_Sp_counted_ptrIPN5lgxZJ2IS4IDivELN9__gnu_cxx12_Lock_policyE2EE10_M_destroyEv
FNDA:4,_ZNSt15_Sp_counted_ptrIPN5lgxZJ2IS3XorELN9__gnu_cxx12_Lock_policyE2EE10_M_destroyEv
FNDA:2,_ZNSt15_Sp_counted_ptrIPN5lgxZJ2IS4CallELN9__gnu_cxx12_Lock_policyE2EE10_M_destroyEv
FNDA:0,_ZNSt15_Sp_counted_ptrIPN5lgxZJ2IS5LabelELN9__gnu_cxx12_Lock_policyE2EE14_M_get_deleterERKSt9type_info
FNDA:0,_ZNSt15_Sp_counted_ptrIPN5lgxZJ2IS3JmpELN9__gnu_cxx12_Lock_policyE2EE14_M_get_deleterERKSt9type_info
FNDA:0,_ZNSt15_Sp_counted_ptrIPN5lgxZJ2IS3CmpELN9__gnu_cxx12_Lock_policyE2EE14_M_get_deleterERKSt9type_info
FNDA:0,_ZNSt15_Sp_counted_ptrIPN5lgxZJ2IS2JeELN9__gnu_cxx12_Lock_policyE2EE14_M_get_deleterERKSt9type_info
FNDA:0,_ZNSt15_Sp_counted_ptrIPN5lgxZJ2IS3JneELN9__gnu_cxx12_Lock_policyE2EE14_M_get_deleterERKSt9type_info
FNDA:0,_ZNSt15_Sp_counted_ptrIPN5lgxZJ2IS2JlELN9__gnu_cxx12_Lock_policyE2EE14_M_get_deleterERKSt9type_info
FNDA:0,_ZNSt15_Sp_counted_ptrIPN5lgxZJ2IS3JleELN9__gnu_cxx12_Lock_policyE2EE14_M_get_deleterERKSt9type_info
FNDA:0,_ZNSt15_Sp_counted_ptrIPN5lgxZJ2IS2JgELN9__gnu_cxx12_Lock_policyE2EE14_M_get_deleterERKSt9type_info
FNDA:0,_ZNSt15_Sp_counted_ptrIPN5lgxZJ2IS3JgeELN9__gnu_cxx12_Lock_policyE2EE14_M_get_deleterERKSt9type_info
FNDA:0,_ZNSt15_Sp_counted_ptrIPN5lgxZJ2IS4MoveELN9__gnu_cxx12_Lock_policyE2EE14_M_get_deleterERKSt9type_info
FNDA:0,_ZNSt15_Sp_counted_ptrIPN5lgxZJ2IS3AddELN9__gnu_cxx12_Lock_policyE2EE14_M_get_deleterERKSt9type_info
FNDA:0,_ZNSt15_Sp_counted_ptrIPN5lgxZJ2IS3SubELN9__gnu_cxx12_Lock_policyE2EE14_M_get_deleterERKSt9type_info
FNDA:0,_ZNSt15_Sp_counted_ptrIPN5lgxZJ2IS4IMulELN9__gnu_cxx12_Lock_policyE2EE14_M_get_deleterERKSt9type_info
FNDA:0,_ZNSt15_Sp_counted_ptrIPN5lgxZJ2IS4IDivELN9__gnu_cxx12_Lock_policyE2EE14_M_get_deleterERKSt9type_info
FNDA:0,_ZNSt15_Sp_counted_ptrIPN5lgxZJ2IS3XorELN9__gnu_cxx12_Lock_policyE2EE14_M_get_deleterERKSt9type_info
FNDA:0,_ZNSt15_Sp_counted_ptrIPN5lgxZJ2IS4CallELN9__gnu_cxx12_Lock_policyE2EE14_M_get_deleterERKSt9type_info
FNDA:42,_ZNSt14__shared_countILN9__gnu_cxx12_Lock_policyE2EEC2Ev
FNDA:2,_ZNSt14__shared_countILN9__gnu_cxx12_Lock_policyE2EEC2IPN5lgxZJ2IS4CallEEET_
FNDA:4,_ZNSt14__shared_countILN9__gnu_cxx12_Lock_policyE2EEC2IPN5lgxZJ2IS3XorEEET_
FNDA:1,_ZNSt14__shared_countILN9__gnu_cxx12_Lock_policyE2EEC2IPN5lgxZJ2IS4IDivEEET_
FNDA:1,_ZNSt14__shared_countILN9__gnu_cxx12_Lock_policyE2EEC2IPN5lgxZJ2IS4IMulEEET_
FNDA:2,_ZNSt14__shared_countILN9__gnu_cxx12_Lock_policyE2EEC2IPN5lgxZJ2IS3SubEEET_
FNDA:0,_ZNSt14__shared_countILN9__gnu_cxx12_Lock_policyE2EEC2IPN5lgxZJ2IS3AddEEET_
FNDA:11,_ZNSt14__shared_countILN9__gnu_cxx12_Lock_policyE2EEC2IPN5lgxZJ2IS4MoveEEET_
FNDA:1,_ZNSt14__shared_countILN9__gnu_cxx12_Lock_policyE2EEC2IPN5lgxZJ2IS3JgeEEET_
FNDA:1,_ZNSt14__shared_countILN9__gnu_cxx12_Lock_policyE2EEC2IPN5lgxZJ2IS2JgEEET_
FNDA:1,_ZNSt14__shared_countILN9__gnu_cxx12_Lock_policyE2EEC2IPN5lgxZJ2IS3JleEEET_
FNDA:2,_ZNSt14__shared_countILN9__gnu_cxx12_Lock_policyE2EEC2IPN5lgxZJ2IS2JlEEET_
FNDA:1,_ZNSt14__shared_countILN9__gnu_cxx12_Lock_policyE2EEC2IPN5lgxZJ2IS3JneEEET_
FNDA:1,_ZNSt14__shared_countILN9__gnu_cxx12_Lock_policyE2EEC2IPN5lgxZJ2IS2JeEEET_
FNDA:7,_ZNSt14__shared_countILN9__gnu_cxx12_Lock_policyE2EEC2IPN5lgxZJ2IS3CmpEEET_
FNDA:1,_ZNSt14__shared_countILN9__gnu_cxx12_Lock_policyE2EEC2IPN5lgxZJ2IS3JmpEEET_
FNDA:3,_ZNSt14__shared_countILN9__gnu_cxx12_Lock_policyE2EEC2IPN5lgxZJ2IS5LabelEEET_
FNDA:0,_ZNSt14__shared_countILN9__gnu_cxx12_Lock_policyE2EED2Ev
FNDA:0,_ZNSt14__shared_countILN9__gnu_cxx12_Lock_policyE2EEC2ERKS2_
FNDA:42,_ZNSt14__shared_countILN9__gnu_cxx12_Lock_policyE2EE7_M_swapERS2_
FNDA:39,_ZSt32__enable_shared_from_this_helperILN9__gnu_cxx12_Lock_policyE2EEvRKSt14__shared_countIXT_EEz
FNDA:2,_ZNSt12__shared_ptrIN5lgxZJ2IS4CallELN9__gnu_cxx12_Lock_policyE2EEC2IS2_EEPT_
FNDA:4,_ZNSt12__shared_ptrIN5lgxZJ2IS3XorELN9__gnu_cxx12_Lock_policyE2EEC2IS2_EEPT_
FNDA:1,_ZNSt12__shared_ptrIN5lgxZJ2IS4IDivELN9__gnu_cxx12_Lock_policyE2EEC2IS2_EEPT_
FNDA:1,_ZNSt12__shared_ptrIN5lgxZJ2IS4IMulELN9__gnu_cxx12_Lock_policyE2EEC2IS2_EEPT_
FNDA:2,_ZNSt12__shared_ptrIN5lgxZJ2IS3SubELN9__gnu_cxx12_Lock_policyE2EEC2IS2_EEPT_
FNDA:0,_ZNSt12__shared_ptrIN5lgxZJ2IS3AddELN9__gnu_cxx12_Lock_policyE2EEC2IS2_EEPT_
FNDA:11,_ZNSt12__shared_ptrIN5lgxZJ2IS4MoveELN9__gnu_cxx12_Lock_policyE2EEC2IS2_EEPT_
FNDA:1,_ZNSt12__shared_ptrIN5lgxZJ2IS3JgeELN9__gnu_cxx12_Lock_policyE2EEC2IS2_EEPT_
FNDA:1,_ZNSt12__shared_ptrIN5lgxZJ2IS2JgELN9__gnu_cxx12_Lock_policyE2EEC2IS2_EEPT_
FNDA:1,_ZNSt12__shared_ptrIN5lgxZJ2IS3JleELN9__gnu_cxx12_Lock_policyE2EEC2IS2_EEPT_
FNDA:2,_ZNSt12__shared_ptrIN5lgxZJ2IS2JlELN9__gnu_cxx12_Lock_policyE2EEC2IS2_EEPT_
FNDA:1,_ZNSt12__shared_ptrIN5lgxZJ2IS3JneELN9__gnu_cxx12_Lock_policyE2EEC2IS2_EEPT_
FNDA:1,_ZNSt12__shared_ptrIN5lgxZJ2IS2JeELN9__gnu_cxx12_Lock_policyE2EEC2IS2_EEPT_
FNDA:7,_ZNSt12__shared_ptrIN5lgxZJ2IS3CmpELN9__gnu_cxx12_Lock_policyE2EEC2IS2_EEPT_
FNDA:1,_ZNSt12__shared_ptrIN5lgxZJ2IS3JmpELN9__gnu_cxx12_Lock_policyE2EEC2IS2_EEPT_
FNDA:3,_ZNSt12__shared_ptrIN5lgxZJ2IS5LabelELN9__gnu_cxx12_Lock_policyE2EEC2IS2_EEPT_
FNDA:0,_ZNSt12__shared_ptrIN5lgxZJ2IS3AAIELN9__gnu_cxx12_Lock_policyE2EEC2ERKS5_
FNDA:2,_ZNSt12__shared_ptrIN5lgxZJ2IS4CallELN9__gnu_cxx12_Lock_policyE2EED2Ev
FNDA:4,_ZNSt12__shared_ptrIN5lgxZJ2IS3XorELN9__gnu_cxx12_Lock_policyE2EED2Ev
FNDA:1,_ZNSt12__shared_ptrIN5lgxZJ2IS4IDivELN9__gnu_cxx12_Lock_policyE2EED2Ev
FNDA:1,_ZNSt12__shared_ptrIN5lgxZJ2IS4IMulELN9__gnu_cxx12_Lock_policyE2EED2Ev
FNDA:2,_ZNSt12__shared_ptrIN5lgxZJ2IS3SubELN9__gnu_cxx12_Lock_policyE2EED2Ev
FNDA:0,_ZNSt12__shared_ptrIN5lgxZJ2IS3AddELN9__gnu_cxx12_Lock_policyE2EED2Ev
FNDA:11,_ZNSt12__shared_ptrIN5lgxZJ2IS4MoveELN9__gnu_cxx12_Lock_policyE2EED2Ev
FNDA:1,_ZNSt12__shared_ptrIN5lgxZJ2IS3JgeELN9__gnu_cxx12_Lock_policyE2EED2Ev
FNDA:1,_ZNSt12__shared_ptrIN5lgxZJ2IS2JgELN9__gnu_cxx12_Lock_policyE2EED2Ev
FNDA:1,_ZNSt12__shared_ptrIN5lgxZJ2IS3JleELN9__gnu_cxx12_Lock_policyE2EED2Ev
FNDA:2,_ZNSt12__shared_ptrIN5lgxZJ2IS2JlELN9__gnu_cxx12_Lock_policyE2EED2Ev
FNDA:1,_ZNSt12__shared_ptrIN5lgxZJ2IS3JneELN9__gnu_cxx12_Lock_policyE2EED2Ev
FNDA:1,_ZNSt12__shared_ptrIN5lgxZJ2IS2JeELN9__gnu_cxx12_Lock_policyE2EED2Ev
FNDA:7,_ZNSt12__shared_ptrIN5lgxZJ2IS3CmpELN9__gnu_cxx12_Lock_policyE2EED2Ev
FNDA:1,_ZNSt12__shared_ptrIN5lgxZJ2IS3JmpELN9__gnu_cxx12_Lock_policyE2EED2Ev
FNDA:0,_ZNSt12__shared_ptrIN5lgxZJ2IS3AAIELN9__gnu_cxx12_Lock_policyE2EED2Ev
FNDA:3,_ZNSt12__shared_ptrIN5lgxZJ2IS5LabelELN9__gnu_cxx12_Lock_policyE2EED2Ev
FNDA:3,_ZNSt12__shared_ptrIN5lgxZJ2IS3AAIELN9__gnu_cxx12_Lock_policyE2EEC2EOS5_
FNDA:2,_ZNSt12__shared_ptrIN5lgxZJ2IS3AAIELN9__gnu_cxx12_Lock_policyE2EEC2INS1_4CallEvEEOS_IT_LS4_2EE
FNDA:4,_ZNSt12__shared_ptrIN5lgxZJ2IS3AAIELN9__gnu_cxx12_Lock_policyE2EEC2INS1_3XorEvEEOS_IT_LS4_2EE
FNDA:1,_ZNSt12__shared_ptrIN5lgxZJ2IS3AAIELN9__gnu_cxx12_Lock_policyE2EEC2INS1_4IDivEvEEOS_IT_LS4_2EE
FNDA:1,_ZNSt12__shared_ptrIN5lgxZJ2IS3AAIELN9__gnu_cxx12_Lock_policyE2EEC2INS1_4IMulEvEEOS_IT_LS4_2EE
FNDA:2,_ZNSt12__shared_ptrIN5lgxZJ2IS3AAIELN9__gnu_cxx12_Lock_policyE2EEC2INS1_3SubEvEEOS_IT_LS4_2EE
FNDA:0,_ZNSt12__shared_ptrIN5lgxZJ2IS3AAIELN9__gnu_cxx12_Lock_policyE2EEC2INS1_3AddEvEEOS_IT_LS4_2EE
FNDA:11,_ZNSt12__shared_ptrIN5lgxZJ2IS3AAIELN9__gnu_cxx12_Lock_policyE2EEC2INS1_4MoveEvEEOS_IT_LS4_2EE
FNDA:1,_ZNSt12__shared_ptrIN5lgxZJ2IS3AAIELN9__gnu_cxx12_Lock_policyE2EEC2INS1_3JgeEvEEOS_IT_LS4_2EE
FNDA:1,_ZNSt12__shared_ptrIN5lgxZJ2IS3AAIELN9__gnu_cxx12_Lock_policyE2EEC2INS1_2JgEvEEOS_IT_LS4_2EE
FNDA:1,_ZNSt12__shared_ptrIN5lgxZJ2IS3AAIELN9__gnu_cxx12_Lock_policyE2EEC2INS1_3JleEvEEOS_IT_LS4_2EE
FNDA:2,_ZNSt12__shared_ptrIN5lgxZJ2IS3AAIELN9__gnu_cxx12_Lock_policyE2EEC2INS1_2JlEvEEOS_IT_LS4_2EE
FNDA:1,_ZNSt12__shared_ptrIN5lgxZJ2IS3AAIELN9__gnu_cxx12_Lock_policyE2EEC2INS1_3JneEvEEOS_IT_LS4_2EE
FNDA:1,_ZNSt12__shared_ptrIN5lgxZJ2IS3AAIELN9__gnu_cxx12_Lock_policyE2EEC2INS1_2JeEvEEOS_IT_LS4_2EE
FNDA:7,_ZNSt12__shared_ptrIN5lgxZJ2IS3AAIELN9__gnu_cxx12_Lock_policyE2EEC2INS1_3CmpEvEEOS_IT_LS4_2EE
FNDA:1,_ZNSt12__shared_ptrIN5lgxZJ2IS3AAIELN9__gnu_cxx12_Lock_policyE2EEC2INS1_3JmpEvEEOS_IT_LS4_2EE
FNDA:3,_ZNSt12__shared_ptrIN5lgxZJ2IS3AAIELN9__gnu_cxx12_Lock_policyE2EEC2INS1_5LabelEvEEOS_IT_LS4_2EE
FNF:175
FNH:142
DA:86,39
DA:109,39
DA:110,39
DA:113,36
DA:114,36
DA:123,0
DA:124,0
DA:130,0
DA:131,0
DA:137,0
DA:141,0
DA:144,0
DA:157,0
DA:158,0
DA:161,0
DA:164,0
DA:281,72
DA:285,39
DA:286,39
DA:289,36
DA:290,36
DA:293,36
DA:294,36
DA:297,0
DA:298,0
DA:443,42
DA:444,42
DA:448,39
DA:452,39
DA:454,0
DA:456,0
DA:457,0
DA:459,39
DA:543,0
DA:545,0
DA:546,0
DA:547,0
DA:549,0
DA:550,0
DA:552,0
DA:553,0
DA:554,0
DA:572,42
DA:574,42
DA:575,42
DA:576,42
DA:577,42
DA:723,39
DA:724,39
DA:738,39
DA:739,39
DA:743,39
DA:744,39
DA:779,0
DA:781,39
DA:789,3
DA:790,3
DA:792,3
DA:793,3
DA:794,3
DA:798,39
DA:799,39
DA:801,39
DA:802,39
DA:803,39
LF:65
LH:39
end_of_record
SF:/usr/include/c++/4.8.2/bits/stl_algobase.h
FN:216,_ZSt3maxImERKT_S2_S2_
FNDA:0,_ZSt3maxImERKT_S2_S2_
FNF:1
FNH:0
DA:216,0
DA:221,0
DA:222,0
DA:223,0
LF:4
LH:0
end_of_record
SF:/usr/include/c++/4.8.2/bits/stl_construct.h
FN:74,_ZSt10_ConstructISt10shared_ptrIN5lgxZJ2IS3AAIEEIRKS4_EEvPT_DpOT0_
FN:74,_ZSt10_ConstructISt10shared_ptrIN5lgxZJ2IS3AAIEEIS4_EEvPT_DpOT0_
FN:92,_ZSt8_DestroyISt10shared_ptrIN5lgxZJ2IS3AAIEEEvPT_
FN:100,_ZNSt12_Destroy_auxILb0EE9__destroyIPSt10shared_ptrIN5lgxZJ2IS3AAIEEEEvT_S8_
FN:122,_ZSt8_DestroyIPSt10shared_ptrIN5lgxZJ2IS3AAIEEEvT_S6_
FN:148,_ZSt8_DestroyIPSt10shared_ptrIN5lgxZJ2IS3AAIEES4_EvT_S6_RSaIT0_E
FNDA:3,_ZSt10_ConstructISt10shared_ptrIN5lgxZJ2IS3AAIEEIS4_EEvPT_DpOT0_
FNDA:36,_ZSt10_ConstructISt10shared_ptrIN5lgxZJ2IS3AAIEEIRKS4_EEvPT_DpOT0_
FNDA:0,_ZSt8_DestroyISt10shared_ptrIN5lgxZJ2IS3AAIEEEvPT_
FNDA:0,_ZNSt12_Destroy_auxILb0EE9__destroyIPSt10shared_ptrIN5lgxZJ2IS3AAIEEEEvT_S8_
FNDA:0,_ZSt8_DestroyIPSt10shared_ptrIN5lgxZJ2IS3AAIEEEvT_S6_
FNDA:0,_ZSt8_DestroyIPSt10shared_ptrIN5lgxZJ2IS3AAIEES4_EvT_S6_RSaIT0_E
FNF:6
FNH:2
DA:74,39
DA:75,39
DA:92,0
DA:93,0
DA:100,0
DA:102,0
DA:103,0
DA:104,0
DA:122,0
DA:126,0
DA:128,0
DA:148,0
DA:151,0
DA:152,0
LF:14
LH:2
end_of_record
SF:/usr/include/c++/4.8.2/bits/stl_iterator.h
FN:726,_ZN9__gnu_cxx17__normal_iteratorIPKSt10shared_ptrIN5lgxZJ2IS3AAIEESt6vectorIS5_SaIS5_EEEC2ERKS7_
FN:726,_ZN9__gnu_cxx17__normal_iteratorIPP15IR_myStatement_St6vectorIS2_SaIS2_EEEC2ERKS3_
FN:738,_ZNK9__gnu_cxx17__normal_iteratorIPP15IR_myStatement_St6vectorIS2_SaIS2_EEEdeEv
FN:738,_ZNK9__gnu_cxx17__normal_iteratorIPKSt10shared_ptrIN5lgxZJ2IS3AAIEESt6vectorIS5_SaIS5_EEEdeEv
FN:746,_ZN9__gnu_cxx17__normal_iteratorIPP15IR_myStatement_St6vectorIS2_SaIS2_EEEppEv
FN:746,_ZN9__gnu_cxx17__normal_iteratorIPKSt10shared_ptrIN5lgxZJ2IS3AAIEESt6vectorIS5_SaIS5_EEEppEv
FN:790,_ZNK9__gnu_cxx17__normal_iteratorIPP15IR_myStatement_St6vectorIS2_SaIS2_EEE4baseEv
FN:790,_ZNK9__gnu_cxx17__normal_iteratorIPKSt10shared_ptrIN5lgxZJ2IS3AAIEESt6vectorIS5_SaIS5_EEE4baseEv
FN:823,_ZN9__gnu_cxxneIPP15IR_myStatement_St6vectorIS2_SaIS2_EEEEbRKNS_17__normal_iteratorIT_T0_EESC_
FN:823,_ZN9__gnu_cxxneIPKSt10shared_ptrIN5lgxZJ2IS3AAIEESt6vectorIS5_SaIS5_EEEEbRKNS_17__normal_iteratorIT_T0_EESG_
FN:950,_ZNSt13move_iteratorIPSt10shared_ptrIN5lgxZJ2IS3AAIEEEC2ES5_
FN:958,_ZNKSt13move_iteratorIPSt10shared_ptrIN5lgxZJ2IS3AAIEEE4baseEv
FN:962,_ZNKSt13move_iteratorIPSt10shared_ptrIN5lgxZJ2IS3AAIEEEdeEv
FN:970,_ZNSt13move_iteratorIPSt10shared_ptrIN5lgxZJ2IS3AAIEEEppEv
FN:1037,_ZSteqIPSt10shared_ptrIN5lgxZJ2IS3AAIEEEbRKSt13move_iteratorIT_ESA_
FN:1049,_ZStneIPSt10shared_ptrIN5lgxZJ2IS3AAIEEEbRKSt13move_iteratorIT_ESA_
FN:1132,_ZSt32__make_move_if_noexcept_iteratorIPSt10shared_ptrIN5lgxZJ2IS3AAIEESt13move_iteratorIS5_EET0_T_
FNDA:0,_ZN9__gnu_cxx17__normal_iteratorIPKSt10shared_ptrIN5lgxZJ2IS3AAIEESt6vectorIS5_SaIS5_EEEC2ERKS7_
FNDA:2,_ZN9__gnu_cxx17__normal_iteratorIPP15IR_myStatement_St6vectorIS2_SaIS2_EEEC2ERKS3_
FNDA:36,_ZNK9__gnu_cxx17__normal_iteratorIPKSt10shared_ptrIN5lgxZJ2IS3AAIEESt6vectorIS5_SaIS5_EEEdeEv
FNDA:3,_ZNK9__gnu_cxx17__normal_iteratorIPP15IR_myStatement_St6vectorIS2_SaIS2_EEEdeEv
FNDA:36,_ZN9__gnu_cxx17__normal_iteratorIPKSt10shared_ptrIN5lgxZJ2IS3AAIEESt6vectorIS5_SaIS5_EEEppEv
FNDA:3,_ZN9__gnu_cxx17__normal_iteratorIPP15IR_myStatement_St6vectorIS2_SaIS2_EEEppEv
FNDA:0,_ZNK9__gnu_cxx17__normal_iteratorIPKSt10shared_ptrIN5lgxZJ2IS3AAIEESt6vectorIS5_SaIS5_EEE4baseEv
FNDA:8,_ZNK9__gnu_cxx17__normal_iteratorIPP15IR_myStatement_St6vectorIS2_SaIS2_EEE4baseEv
FNDA:64,_ZN9__gnu_cxxneIPKSt10shared_ptrIN5lgxZJ2IS3AAIEESt6vectorIS5_SaIS5_EEEEbRKNS_17__normal_iteratorIT_T0_EESG_
FNDA:4,_ZN9__gnu_cxxneIPP15IR_myStatement_St6vectorIS2_SaIS2_EEEEbRKNS_17__normal_iteratorIT_T0_EESC_
FNDA:6,_ZNSt13move_iteratorIPSt10shared_ptrIN5lgxZJ2IS3AAIEEEC2ES5_
FNDA:12,_ZNKSt13move_iteratorIPSt10shared_ptrIN5lgxZJ2IS3AAIEEE4baseEv
FNDA:3,_ZNKSt13move_iteratorIPSt10shared_ptrIN5lgxZJ2IS3AAIEEEdeEv
FNDA:3,_ZNSt13move_iteratorIPSt10shared_ptrIN5lgxZJ2IS3AAIEEEppEv
FNDA:6,_ZSteqIPSt10shared_ptrIN5lgxZJ2IS3AAIEEEbRKSt13move_iteratorIT_ESA_
FNDA:6,_ZStneIPSt10shared_ptrIN5lgxZJ2IS3AAIEEEbRKSt13move_iteratorIT_ESA_
FNDA:6,_ZSt32__make_move_if_noexcept_iteratorIPSt10shared_ptrIN5lgxZJ2IS3AAIEESt13move_iteratorIS5_EET0_T_
FNF:17
FNH:15
DA:726,2
DA:738,39
DA:739,39
DA:746,39
DA:748,39
DA:749,39
DA:790,8
DA:791,8
DA:823,68
DA:825,68
DA:950,6
DA:951,6
DA:958,12
DA:959,12
DA:962,3
DA:963,3
DA:970,3
DA:972,3
DA:973,3
DA:1037,6
DA:1039,6
DA:1049,6
DA:1051,6
DA:1132,6
DA:1133,6
LF:25
LH:25
end_of_record
SF:/usr/include/c++/4.8.2/bits/stl_uninitialized.h
FN:68,_ZNSt20__uninitialized_copyILb0EE13__uninit_copyIN9__gnu_cxx17__normal_iteratorIPKSt10shared_ptrIN5lgxZJ2IS3AAIEESt6vectorIS8_SaIS8_EEEEPS8_EET0_T_SH_SG_
FN:68,_ZNSt20__uninitialized_copyILb0EE13__uninit_copyISt13move_iteratorIPSt10shared_ptrIN5lgxZJ2IS3AAIEEES8_EET0_T_SB_SA_
FN:107,_ZSt18uninitialized_copyIN9__gnu_cxx17__normal_iteratorIPKSt10shared_ptrIN5lgxZJ2IS3AAIEESt6vectorIS6_SaIS6_EEEEPS6_ET0_T_SF_SE_
FN:107,_ZSt18uninitialized_copyISt13move_iteratorIPSt10shared_ptrIN5lgxZJ2IS3AAIEEES6_ET0_T_S9_S8_
FN:256,_ZSt22__uninitialized_copy_aIN9__gnu_cxx17__normal_iteratorIPKSt10shared_ptrIN5lgxZJ2IS3AAIEESt6vectorIS6_SaIS6_EEEEPS6_S6_ET0_T_SF_SE_RSaIT1_E
FN:256,_ZSt22__uninitialized_copy_aISt13move_iteratorIPSt10shared_ptrIN5lgxZJ2IS3AAIEEES6_S5_ET0_T_S9_S8_RSaIT1_E
FN:274,_ZSt34__uninitialized_move_if_noexcept_aIPSt10shared_ptrIN5lgxZJ2IS3AAIEES5_SaIS4_EET0_T_S8_S7_RT1_
FNDA:3,_ZNSt20__uninitialized_copyILb0EE13__uninit_copyISt13move_iteratorIPSt10shared_ptrIN5lgxZJ2IS3AAIEEES8_EET0_T_SB_SA_
FNDA:28,_ZNSt20__uninitialized_copyILb0EE13__uninit_copyIN9__gnu_cxx17__normal_iteratorIPKSt10shared_ptrIN5lgxZJ2IS3AAIEESt6vectorIS8_SaIS8_EEEEPS8_EET0_T_SH_SG_
FNDA:3,_ZSt18uninitialized_copyISt13move_iteratorIPSt10shared_ptrIN5lgxZJ2IS3AAIEEES6_ET0_T_S9_S8_
FNDA:28,_ZSt18uninitialized_copyIN9__gnu_cxx17__normal_iteratorIPKSt10shared_ptrIN5lgxZJ2IS3AAIEESt6vectorIS6_SaIS6_EEEEPS6_ET0_T_SF_SE_
FNDA:3,_ZSt22__uninitialized_copy_aISt13move_iteratorIPSt10shared_ptrIN5lgxZJ2IS3AAIEEES6_S5_ET0_T_S9_S8_RSaIT1_E
FNDA:28,_ZSt22__uninitialized_copy_aIN9__gnu_cxx17__normal_iteratorIPKSt10shared_ptrIN5lgxZJ2IS3AAIEESt6vectorIS6_SaIS6_EEEEPS6_S6_ET0_T_SF_SE_RSaIT1_E
FNDA:3,_ZSt34__uninitialized_move_if_noexcept_aIPSt10shared_ptrIN5lgxZJ2IS3AAIEES5_SaIS4_EET0_T_S8_S7_RT1_
FNF:7
FNH:7
DA:68,31
DA:71,31
DA:74,70
DA:75,39
DA:76,31
DA:78,0
DA:80,0
DA:81,0
DA:107,31
DA:117,31
DA:256,31
DA:258,31
DA:274,3
DA:281,3
LF:14
LH:11
end_of_record
SF:/usr/include/c++/4.8.2/bits/stl_vector.h
FN:79,_ZNSt12_Vector_baseISt10shared_ptrIN5lgxZJ2IS3AAIEESaIS4_EE12_Vector_implD2Ev
FN:86,_ZNSt12_Vector_baseISt10shared_ptrIN5lgxZJ2IS3AAIEESaIS4_EE12_Vector_implC2Ev
FN:90,_ZNSt12_Vector_baseISt10shared_ptrIN5lgxZJ2IS3AAIEESaIS4_EE12_Vector_implC2ERKS5_
FN:113,_ZNSt12_Vector_baseISt10shared_ptrIN5lgxZJ2IS3AAIEESaIS4_EE19_M_get_Tp_allocatorEv
FN:117,_ZNKSt12_Vector_baseISt10shared_ptrIN5lgxZJ2IS3AAIEESaIS4_EE19_M_get_Tp_allocatorEv
FN:124,_ZNSt12_Vector_baseISt10shared_ptrIN5lgxZJ2IS3AAIEESaIS4_EEC2Ev
FN:134,_ZNSt12_Vector_baseISt10shared_ptrIN5lgxZJ2IS3AAIEESaIS4_EEC2EmRKS5_
FN:159,_ZNSt12_Vector_baseISt10shared_ptrIN5lgxZJ2IS3AAIEESaIS4_EED2Ev
FN:167,_ZNSt12_Vector_baseISt10shared_ptrIN5lgxZJ2IS3AAIEESaIS4_EE11_M_allocateEm
FN:171,_ZNSt12_Vector_baseISt10shared_ptrIN5lgxZJ2IS3AAIEESaIS4_EE13_M_deallocateEPS4_m
FN:179,_ZNSt12_Vector_baseISt10shared_ptrIN5lgxZJ2IS3AAIEESaIS4_EE17_M_create_storageEm
FN:248,_ZNSt6vectorISt10shared_ptrIN5lgxZJ2IS3AAIEESaIS4_EEC2Ev
FN:310,_ZNSt6vectorISt10shared_ptrIN5lgxZJ2IS3AAIEESaIS4_EEC2ERKS6_
FN:414,_ZNSt6vectorISt10shared_ptrIN5lgxZJ2IS3AAIEESaIS4_EED2Ev
FN:538,_ZNSt6vectorIP15IR_myStatement_SaIS1_EE5beginEv
FN:547,_ZNKSt6vectorISt10shared_ptrIN5lgxZJ2IS3AAIEESaIS4_EE5beginEv
FN:556,_ZNSt6vectorIP15IR_myStatement_SaIS1_EE3endEv
FN:565,_ZNKSt6vectorISt10shared_ptrIN5lgxZJ2IS3AAIEESaIS4_EE3endEv
FN:645,_ZNKSt6vectorISt10shared_ptrIN5lgxZJ2IS3AAIEESaIS4_EE4sizeEv
FN:650,_ZNKSt6vectorISt10shared_ptrIN5lgxZJ2IS3AAIEESaIS4_EE8max_sizeEv
FN:901,_ZNSt6vectorISt10shared_ptrIN5lgxZJ2IS3AAIEESaIS4_EE9push_backERKS4_
FN:1125,_ZNSt6vectorISt10shared_ptrIN5lgxZJ2IS3AAIEESaIS4_EE5clearEv
FN:1336,_ZNKSt6vectorISt10shared_ptrIN5lgxZJ2IS3AAIEESaIS4_EE12_M_check_lenEmPKc
FN:1350,_ZNSt6vectorISt10shared_ptrIN5lgxZJ2IS3AAIEESaIS4_EE15_M_erase_at_endEPS4_
FNDA:0,_ZNSt12_Vector_baseISt10shared_ptrIN5lgxZJ2IS3AAIEESaIS4_EE12_Vector_implD2Ev
FNDA:1,_ZNSt12_Vector_baseISt10shared_ptrIN5lgxZJ2IS3AAIEESaIS4_EE12_Vector_implC2Ev
FNDA:28,_ZNSt12_Vector_baseISt10shared_ptrIN5lgxZJ2IS3AAIEESaIS4_EE12_Vector_implC2ERKS5_
FNDA:0,_ZNSt12_Vector_baseISt10shared_ptrIN5lgxZJ2IS3AAIEESaIS4_EE19_M_get_Tp_allocatorEv
FNDA:34,_ZNKSt12_Vector_baseISt10shared_ptrIN5lgxZJ2IS3AAIEESaIS4_EE19_M_get_Tp_allocatorEv
FNDA:1,_ZNSt12_Vector_baseISt10shared_ptrIN5lgxZJ2IS3AAIEESaIS4_EEC2Ev
FNDA:28,_ZNSt12_Vector_baseISt10shared_ptrIN5lgxZJ2IS3AAIEESaIS4_EEC2EmRKS5_
FNDA:0,_ZNSt12_Vector_baseISt10shared_ptrIN5lgxZJ2IS3AAIEESaIS4_EED2Ev
FNDA:31,_ZNSt12_Vector_baseISt10shared_ptrIN5lgxZJ2IS3AAIEESaIS4_EE11_M_allocateEm
FNDA:0,_ZNSt12_Vector_baseISt10shared_ptrIN5lgxZJ2IS3AAIEESaIS4_EE13_M_deallocateEPS4_m
FNDA:28,_ZNSt12_Vector_baseISt10shared_ptrIN5lgxZJ2IS3AAIEESaIS4_EE17_M_create_storageEm
FNDA:1,_ZNSt6vectorISt10shared_ptrIN5lgxZJ2IS3AAIEESaIS4_EEC2Ev
FNDA:28,_ZNSt6vectorISt10shared_ptrIN5lgxZJ2IS3AAIEESaIS4_EEC2ERKS6_
FNDA:0,_ZNSt6vectorISt10shared_ptrIN5lgxZJ2IS3AAIEESaIS4_EED2Ev
FNDA:1,_ZNSt6vectorIP15IR_myStatement_SaIS1_EE5beginEv
FNDA:0,_ZNKSt6vectorISt10shared_ptrIN5lgxZJ2IS3AAIEESaIS4_EE5beginEv
FNDA:1,_ZNSt6vectorIP15IR_myStatement_SaIS1_EE3endEv
FNDA:0,_ZNKSt6vectorISt10shared_ptrIN5lgxZJ2IS3AAIEESaIS4_EE3endEv
FNDA:0,_ZNKSt6vectorISt10shared_ptrIN5lgxZJ2IS3AAIEESaIS4_EE4sizeEv
FNDA:6,_ZNKSt6vectorISt10shared_ptrIN5lgxZJ2IS3AAIEESaIS4_EE8max_sizeEv
FNDA:39,_ZNSt6vectorISt10shared_ptrIN5lgxZJ2IS3AAIEESaIS4_EE9push_backERKS4_
FNDA:32,_ZNSt6vectorISt10shared_ptrIN5lgxZJ2IS3AAIEESaIS4_EE5clearEv
FNDA:3,_ZNKSt6vectorISt10shared_ptrIN5lgxZJ2IS3AAIEESaIS4_EE12_M_check_lenEmPKc
FNDA:32,_ZNSt6vectorISt10shared_ptrIN5lgxZJ2IS3AAIEESaIS4_EE15_M_erase_at_endEPS4_
FNF:24
FNH:16
DA:79,0
DA:86,1
DA:87,1
DA:88,1
DA:90,28
DA:91,28
DA:92,28
DA:113,0
DA:114,0
DA:117,34
DA:118,34
DA:124,1
DA:125,1
DA:134,28
DA:135,28
DA:136,28
DA:159,0
DA:160,0
DA:161,0
DA:167,31
DA:168,31
DA:171,0
DA:173,0
DA:174,0
DA:175,0
DA:179,28
DA:181,28
DA:182,28
DA:183,28
DA:184,28
DA:248,1
DA:249,1
DA:310,28
DA:312,28
DA:313,28
DA:316,28
DA:317,28
DA:414,0
DA:415,0
DA:416,0
DA:538,1
DA:539,1
DA:547,0
DA:548,0
DA:556,1
DA:557,1
DA:565,0
DA:566,0
DA:645,0
DA:646,0
DA:650,6
DA:651,6
DA:901,39
DA:903,39
DA:905,36
DA:906,36
DA:907,36
DA:911,3
DA:915,39
DA:1125,32
DA:1126,32
DA:1336,3
DA:1338,3
DA:1339,0
DA:1341,3
DA:1342,3
DA:1350,32
DA:1352,32
DA:1353,32
DA:1354,32
LF:70
LH:50
end_of_record
SF:/usr/include/c++/4.8.2/bits/vector.tcc
FN:399,_ZNSt6vectorISt10shared_ptrIN5lgxZJ2IS3AAIEESaIS4_EE19_M_emplace_back_auxIIRKS4_EEEvDpOT_
FNDA:3,_ZNSt6vectorISt10shared_ptrIN5lgxZJ2IS3AAIEESaIS4_EE19_M_emplace_back_auxIIRKS4_EEEvDpOT_
FNF:1
FNH:1
DA:399,3
DA:403,3
DA:404,3
DA:405,3
DA:408,6
DA:409,6
DA:410,3
DA:412,3
DA:415,3
DA:417,3
DA:419,0
DA:421,0
DA:422,0
DA:424,0
DA:425,0
DA:426,0
DA:428,3
DA:429,3
DA:430,3
DA:432,3
DA:433,3
DA:434,3
DA:435,3
DA:436,3
LF:24
LH:18
end_of_record
SF:/usr/include/c++/4.8.2/ext/alloc_traits.h
FN:166,_ZN9__gnu_cxx14__alloc_traitsISaISt10shared_ptrIN5lgxZJ2IS3AAIEEEE17_S_select_on_copyERKS6_
FNDA:28,_ZN9__gnu_cxx14__alloc_traitsISaISt10shared_ptrIN5lgxZJ2IS3AAIEEEE17_S_select_on_copyERKS6_
FNF:1
FNH:1
DA:166,28
DA:167,28
LF:2
LH:2
end_of_record
SF:/usr/include/c++/4.8.2/ext/atomicity.h
FN:48,_ZN9__gnu_cxxL18__exchange_and_addEPVii
FN:52,_ZN9__gnu_cxxL12__atomic_addEPVii
FN:65,_ZN9__gnu_cxxL25__exchange_and_add_singleEPii
FN:73,_ZN9__gnu_cxxL19__atomic_add_singleEPii
FN:78,_ZN9__gnu_cxxL27__exchange_and_add_dispatchEPii
FN:92,_ZN9__gnu_cxxL21__atomic_add_dispatchEPii
FNDA:0,_ZN9__gnu_cxxL18__exchange_and_addEPVii
FNDA:0,_ZN9__gnu_cxxL12__atomic_addEPVii
FNDA:0,_ZN9__gnu_cxxL25__exchange_and_add_singleEPii
FNDA:0,_ZN9__gnu_cxxL19__atomic_add_singleEPii
FNDA:0,_ZN9__gnu_cxxL27__exchange_and_add_dispatchEPii
FNDA:0,_ZN9__gnu_cxxL21__atomic_add_dispatchEPii
FNF:6
FNH:0
DA:48,0
DA:49,0
DA:52,0
DA:53,0
DA:65,0
DA:67,0
DA:68,0
DA:69,0
DA:73,0
DA:74,0
DA:78,0
DA:81,0
DA:82,0
DA:84,0
DA:92,0
DA:95,0
DA:96,0
DA:98,0
DA:102,0
LF:19
LH:0
end_of_record
SF:/usr/include/c++/4.8.2/ext/new_allocator.h
FN:79,_ZN9__gnu_cxx13new_allocatorISt10shared_ptrIN5lgxZJ2IS3AAIEEEC2Ev
FN:81,_ZN9__gnu_cxx13new_allocatorISt10shared_ptrIN5lgxZJ2IS3AAIEEEC2ERKS6_
FN:86,_ZN9__gnu_cxx13new_allocatorISt10shared_ptrIN5lgxZJ2IS3AAIEEED2Ev
FN:99,_ZN9__gnu_cxx13new_allocatorISt10shared_ptrIN5lgxZJ2IS3AAIEEE8allocateEmPKv
FN:109,_ZN9__gnu_cxx13new_allocatorISt10shared_ptrIN5lgxZJ2IS3AAIEEE10deallocateEPS5_m
FN:113,_ZNK9__gnu_cxx13new_allocatorISt10shared_ptrIN5lgxZJ2IS3AAIEEE8max_sizeEv
FN:119,_ZN9__gnu_cxx13new_allocatorISt10shared_ptrIN5lgxZJ2IS3AAIEEE9constructIS5_IRKS5_EEEvPT_DpOT0_
FN:124,_ZN9__gnu_cxx13new_allocatorISt10shared_ptrIN5lgxZJ2IS3AAIEEE7destroyIS5_EEvPT_
FNDA:1,_ZN9__gnu_cxx13new_allocatorISt10shared_ptrIN5lgxZJ2IS3AAIEEEC2Ev
FNDA:56,_ZN9__gnu_cxx13new_allocatorISt10shared_ptrIN5lgxZJ2IS3AAIEEEC2ERKS6_
FNDA:0,_ZN9__gnu_cxx13new_allocatorISt10shared_ptrIN5lgxZJ2IS3AAIEEED2Ev
FNDA:28,_ZN9__gnu_cxx13new_allocatorISt10shared_ptrIN5lgxZJ2IS3AAIEEE8allocateEmPKv
FNDA:0,_ZN9__gnu_cxx13new_allocatorISt10shared_ptrIN5lgxZJ2IS3AAIEEE10deallocateEPS5_m
FNDA:34,_ZNK9__gnu_cxx13new_allocatorISt10shared_ptrIN5lgxZJ2IS3AAIEEE8max_sizeEv
FNDA:39,_ZN9__gnu_cxx13new_allocatorISt10shared_ptrIN5lgxZJ2IS3AAIEEE9constructIS5_IRKS5_EEEvPT_DpOT0_
FNDA:0,_ZN9__gnu_cxx13new_allocatorISt10shared_ptrIN5lgxZJ2IS3AAIEEE7destroyIS5_EEvPT_
FNF:8
FNH:5
DA:79,1
DA:81,56
DA:86,0
DA:99,28
DA:101,28
DA:102,0
DA:104,28
DA:109,0
DA:110,0
DA:113,34
DA:114,34
DA:119,39
DA:120,39
DA:124,0
LF:14
LH:9
end_of_record
SF:/usr/include/c++/4.8.2/new
FN:109,_ZnwmPv
FNDA:0,_ZnwmPv
FNF:1
FNH:0
DA:109,0
DA:110,0
LF:2
LH:0
end_of_record
SF:/usr/include/c++/4.8.2/x86_64-redhat-linux/bits/gthr-default.h
FN:247,_ZL18__gthread_active_pv
FNDA:0,_ZL18__gthread_active_pv
FNF:1
FNH:0
DA:247,0
DA:251,0
LF:2
LH:0
end_of_record
SF:/root/Tiger-Compiler/Compiler/myMunch.cpp
FN:28,_ZN5lgxZJ2IS5Munch5StateEP15IR_myStatement_
FN:48,_ZN5lgxZJ2IS5Munch10LabelStateEP15IR_myStatement_
FN:53,_ZN5lgxZJ2IS5Munch9JumpStateEP15IR_myStatement_
FN:58,_ZN5lgxZJ2IS5Munch10CJumpStateEP15IR_myStatement_
FN:64,_ZN5lgxZJ2IS5Munch11GenerateCmpEP15IR_myStatement_
FN:89,_ZN5lgxZJ2IS5Munch16GenerateJumpableEP15IR_myStatement_
FN:116,_ZN5lgxZJ2IS5Munch9MoveStateEP15IR_myStatement_
FN:129,_ZN5lgxZJ2IS5Munch19LeftMemoryMoveStateEP9IR_myExp_S3_
FN:160,_ZN5lgxZJ2IS5Munch21LeftRegisterMoveStateEP9IR_myExp_S3_
FN:202,_ZN5lgxZJ2IS5Munch8ExpStateEP15IR_myStatement_
FN:209,_ZN5lgxZJ2IS5Munch6PutInsESt10shared_ptrINS0_3AAIEE
FN:216,_ZN5lgxZJ2IS5Munch6GetInsEv
FN:223,_ZN5lgxZJ2IS5Munch5ResetEv
FN:231,_ZN5lgxZJ2IS5Munch3ExpEP9IR_myExp_
FN:249,_ZN5lgxZJ2IS5Munch6BinExpEP9IR_myExp_
FN:306,_ZN5lgxZJ2IS5Munch9BinAddExpEP9IR_myExp_
FN:311,_ZN5lgxZJ2IS5Munch9BinSubExpEP9IR_myExp_
FN:316,_ZN5lgxZJ2IS5Munch9BinMulExpEP9IR_myExp_
FN:321,_ZN5lgxZJ2IS5Munch9BinDivExpEP9IR_myExp_
FN:326,_ZN5lgxZJ2IS5Munch9BinXorExpEP9IR_myExp_
FN:336,_ZN5lgxZJ2IS5Munch6MemExpEP9IR_myExp_
FN:348,_ZN5lgxZJ2IS5Munch7TempExpEP9IR_myExp_
FN:353,_ZN5lgxZJ2IS5Munch7ESeqExpEP9IR_myExp_
FN:361,_ZN5lgxZJ2IS5Munch7NameExpEP9IR_myExp_
FN:367,_ZN5lgxZJ2IS5Munch8ConstExpEP9IR_myExp_
FN:375,_ZN5lgxZJ2IS5Munch7CallExpEP9IR_myExp_
FN:386,_ZN5lgxZJ2IS5Munch10GetArgRegsEP13IR_myExpList_
FN:409,_ZN5lgxZJ2IS5Munch3AllESt6vectorIP15IR_myStatement_SaIS4_EE
FN:415,_Z41__static_initialization_and_destruction_0ii
FN:415,_GLOBAL__sub_I__ZN5lgxZJ2IS5Munch3insE
FNDA:20,_ZN5lgxZJ2IS5Munch5StateEP15IR_myStatement_
FNDA:3,_ZN5lgxZJ2IS5Munch10LabelStateEP15IR_myStatement_
FNDA:1,_ZN5lgxZJ2IS5Munch9JumpStateEP15IR_myStatement_
FNDA:7,_ZN5lgxZJ2IS5Munch10CJumpStateEP15IR_myStatement_
FNDA:7,_ZN5lgxZJ2IS5Munch11GenerateCmpEP15IR_myStatement_
FNDA:7,_ZN5lgxZJ2IS5Munch16GenerateJumpableEP15IR_myStatement_
FNDA:5,_ZN5lgxZJ2IS5Munch9MoveStateEP15IR_myStatement_
FNDA:2,_ZN5lgxZJ2IS5Munch19LeftMemoryMoveStateEP9IR_myExp_S3_
FNDA:3,_ZN5lgxZJ2IS5Munch21LeftRegisterMoveStateEP9IR_myExp_S3_
FNDA:2,_ZN5lgxZJ2IS5Munch8ExpStateEP15IR_myStatement_
FNDA:39,_ZN5lgxZJ2IS5Munch6PutInsESt10shared_ptrINS0_3AAIEE
FNDA:28,_ZN5lgxZJ2IS5Munch6GetInsEv
FNDA:32,_ZN5lgxZJ2IS5Munch5ResetEv
FNDA:19,_ZN5lgxZJ2IS5Munch3ExpEP9IR_myExp_
FNDA:8,_ZN5lgxZJ2IS5Munch6BinExpEP9IR_myExp_
FNDA:0,_ZN5lgxZJ2IS5Munch9BinAddExpEP9IR_myExp_
FNDA:2,_ZN5lgxZJ2IS5Munch9BinSubExpEP9IR_myExp_
FNDA:1,_ZN5lgxZJ2IS5Munch9BinMulExpEP9IR_myExp_
FNDA:1,_ZN5lgxZJ2IS5Munch9BinDivExpEP9IR_myExp_
FNDA:4,_ZN5lgxZJ2IS5Munch9BinXorExpEP9IR_myExp_
FNDA:2,_ZN5lgxZJ2IS5Munch6MemExpEP9IR_myExp_
FNDA:2,_ZN5lgxZJ2IS5Munch7TempExpEP9IR_myExp_
FNDA:2,_ZN5lgxZJ2IS5Munch7ESeqExpEP9IR_myExp_
FNDA:0,_ZN5lgxZJ2IS5Munch7NameExpEP9IR_myExp_
FNDA:2,_ZN5lgxZJ2IS5Munch8ConstExpEP9IR_myExp_
FNDA:2,_ZN5lgxZJ2IS5Munch7CallExpEP9IR_myExp_
FNDA:2,_ZN5lgxZJ2IS5Munch10GetArgRegsEP13IR_myExpList_
FNDA:1,_ZN5lgxZJ2IS5Munch3AllESt6vectorIP15IR_myStatement_SaIS4_EE
FNDA:1,_GLOBAL__sub_I__ZN5lgxZJ2IS5Munch3insE
FNDA:1,_Z41__static_initialization_and_destruction_0ii
FNF:30
FNH:28
DA:22,1
DA:28,20
DA:30,20
DA:32,18
DA:35,3
DA:37,1
DA:39,7
DA:41,5
DA:43,2
DA:44,0
DA:48,3
DA:50,3
DA:53,1
DA:55,1
DA:58,7
DA:60,7
DA:61,7
DA:62,7
DA:64,7
DA:67,7
DA:68,7
DA:70,7
DA:72,7
DA:75,6
DA:80,1
DA:81,1
DA:86,0
DA:89,7
DA:91,7
DA:92,7
DA:95,1
DA:97,1
DA:99,2
DA:101,1
DA:103,1
DA:105,1
DA:112,0
DA:116,5
DA:118,5
DA:119,5
DA:121,7
DA:122,2
DA:124,2
DA:126,3
DA:129,2
DA:131,2
DA:137,1
DA:139,1
DA:145,1
DA:149,0
DA:151,0
DA:160,3
DA:162,3
DA:164,3
DA:165,0
DA:172,0
DA:174,3
DA:180,1
DA:182,2
DA:187,2
DA:189,0
DA:194,0
DA:198,0
DA:202,2
DA:204,2
DA:205,2
DA:209,39
DA:211,39
DA:212,39
DA:216,28
DA:218,28
DA:223,32
DA:225,32
DA:226,32
DA:231,19
DA:233,19
DA:235,18
DA:237,8
DA:238,2
DA:239,2
DA:240,2
DA:241,0
DA:242,2
DA:243,2
DA:245,0
DA:249,8
DA:252,8
DA:254,0
DA:255,2
DA:256,1
DA:257,1
DA:258,4
DA:260,0
DA:306,0
DA:308,0
DA:311,2
DA:313,2
DA:316,1
DA:318,1
DA:321,1
DA:323,1
DA:326,4
DA:328,4
DA:336,2
DA:338,2
DA:341,2
DA:344,2
DA:345,2
DA:348,2
DA:350,2
DA:353,2
DA:355,2
DA:357,2
DA:358,2
DA:361,0
DA:364,0
DA:367,2
DA:369,2
DA:371,2
DA:372,2
DA:375,2
DA:377,2
DA:379,2
DA:380,2
DA:382,2
DA:383,2
DA:386,2
DA:388,2
DA:390,2
DA:391,6
DA:394,2
DA:396,2
DA:397,2
DA:399,2
DA:402,2
DA:409,1
DA:411,4
DA:412,3
DA:413,1
DA:415,3
LF:140
LH:122
end_of_record
