TN:
SF:/usr/include/c++/4.8.2/bits/alloc_traits.h
FN:253,_ZNSt16allocator_traitsISaIP15IR_myStatement_EE12_S_constructIS1_IS1_EEENSt9enable_ifIXsrNS3_18__construct_helperIT_IDpT0_EEE5valueEvE4typeERS2_PS7_DpOS8_
FN:253,_ZNSt16allocator_traitsISaISt6vectorIP15IR_myStatement_SaIS2_EEEE12_S_constructIS4_IRKS4_EEENSt9enable_ifIXsrNS6_18__construct_helperIT_IDpT0_EEE5valueEvE4typeERS5_PSC_DpOSD_
FN:253,_ZNSt16allocator_traitsISaIjEE12_S_constructIjIjEEENSt9enable_ifIXsrNS1_18__construct_helperIT_IDpT0_EEE5valueEvE4typeERS0_PS5_DpOS6_
FN:253,_ZNSt16allocator_traitsISaIP15IR_myStatement_EE12_S_constructIS1_IRKS1_EEENSt9enable_ifIXsrNS3_18__construct_helperIT_IDpT0_EEE5valueEvE4typeERS2_PS9_DpOSA_
FN:280,_ZNSt16allocator_traitsISaISt6vectorIP15IR_myStatement_SaIS2_EEEE10_S_destroyIS4_EENSt9enable_ifIXsrNS6_16__destroy_helperIT_EE5valueEvE4typeERS5_PSA_
FN:280,_ZNSt16allocator_traitsISaIP15IR_myStatement_EE10_S_destroyIS1_EENSt9enable_ifIXsrNS3_16__destroy_helperIT_EE5valueEvE4typeERS2_PS7_
FN:280,_ZNSt16allocator_traitsISaIjEE10_S_destroyIjEENSt9enable_ifIXsrNS1_16__destroy_helperIT_EE5valueEvE4typeERS0_PS5_
FN:305,_ZNSt16allocator_traitsISaIP15IR_myStatement_EE11_S_max_sizeIKS2_EENSt9enable_ifIXsrNS3_16__maxsize_helperIT_EE5valueEmE4typeERS8_
FN:305,_ZNSt16allocator_traitsISaISt6vectorIP15IR_myStatement_SaIS2_EEEE11_S_max_sizeIKS5_EENSt9enable_ifIXsrNS6_16__maxsize_helperIT_EE5valueEmE4typeERSB_
FN:305,_ZNSt16allocator_traitsISaIjEE11_S_max_sizeIKS0_EENSt9enable_ifIXsrNS1_16__maxsize_helperIT_EE5valueEmE4typeERS6_
FN:337,_ZNSt16allocator_traitsISaIP15IR_myStatement_EE9_S_selectIKS2_EENSt9enable_ifIXntsrNS3_15__select_helperIT_EE5valueES8_E4typeERS8_
FN:391,_ZNSt16allocator_traitsISaIjEE9constructIjIjEEEDTcl12_S_constructfp_fp0_spcl7forwardIT0_Efp1_EEERS0_PT_DpOS3_
FN:391,_ZNSt16allocator_traitsISaISt6vectorIP15IR_myStatement_SaIS2_EEEE9constructIS4_IRKS4_EEEDTcl12_S_constructfp_fp0_spcl7forwardIT0_Efp1_EEERS5_PT_DpOSA_
FN:391,_ZNSt16allocator_traitsISaIP15IR_myStatement_EE9constructIS1_IS1_EEEDTcl12_S_constructfp_fp0_spcl7forwardIT0_Efp1_EEERS2_PT_DpOS5_
FN:391,_ZNSt16allocator_traitsISaIP15IR_myStatement_EE9constructIS1_IRKS1_EEEDTcl12_S_constructfp_fp0_spcl7forwardIT0_Efp1_EEERS2_PT_DpOS7_
FN:404,_ZNSt16allocator_traitsISaISt6vectorIP15IR_myStatement_SaIS2_EEEE7destroyIS4_EEvRS5_PT_
FN:404,_ZNSt16allocator_traitsISaIjEE7destroyIjEEvRS0_PT_
FN:404,_ZNSt16allocator_traitsISaIP15IR_myStatement_EE7destroyIS1_EEvRS2_PT_
FN:415,_ZNSt16allocator_traitsISaIjEE8max_sizeERKS0_
FN:415,_ZNSt16allocator_traitsISaIP15IR_myStatement_EE8max_sizeERKS2_
FN:415,_ZNSt16allocator_traitsISaISt6vectorIP15IR_myStatement_SaIS2_EEEE8max_sizeERKS5_
FN:427,_ZNSt16allocator_traitsISaIP15IR_myStatement_EE37select_on_container_copy_constructionERKS2_
FN:478,_ZSt18__do_alloc_on_moveISaIjEEvRT_S2_St17integral_constantIbLb1EE
FN:486,_ZSt15__alloc_on_moveISaIjEEvRT_S2_
FN:501,_ZSt18__do_alloc_on_swapISaISt6vectorIP15IR_myStatement_SaIS2_EEEEvRT_S7_St17integral_constantIbLb0EE
FN:505,_ZSt15__alloc_on_swapISaISt6vectorIP15IR_myStatement_SaIS2_EEEEvRT_S7_
FNDA:22,_ZNSt16allocator_traitsISaIjEE12_S_constructIjIjEEENSt9enable_ifIXsrNS1_18__construct_helperIT_IDpT0_EEE5valueEvE4typeERS0_PS5_DpOS6_
FNDA:0,_ZNSt16allocator_traitsISaIP15IR_myStatement_EE12_S_constructIS1_IS1_EEENSt9enable_ifIXsrNS3_18__construct_helperIT_IDpT0_EEE5valueEvE4typeERS2_PS7_DpOS8_
FNDA:62,_ZNSt16allocator_traitsISaISt6vectorIP15IR_myStatement_SaIS2_EEEE12_S_constructIS4_IRKS4_EEENSt9enable_ifIXsrNS6_18__construct_helperIT_IDpT0_EEE5valueEvE4typeERS5_PSC_DpOSD_
FNDA:65,_ZNSt16allocator_traitsISaIP15IR_myStatement_EE12_S_constructIS1_IRKS1_EEENSt9enable_ifIXsrNS3_18__construct_helperIT_IDpT0_EEE5valueEvE4typeERS2_PS9_DpOSA_
FNDA:0,_ZNSt16allocator_traitsISaIjEE10_S_destroyIjEENSt9enable_ifIXsrNS1_16__destroy_helperIT_EE5valueEvE4typeERS0_PS5_
FNDA:0,_ZNSt16allocator_traitsISaISt6vectorIP15IR_myStatement_SaIS2_EEEE10_S_destroyIS4_EENSt9enable_ifIXsrNS6_16__destroy_helperIT_EE5valueEvE4typeERS5_PSA_
FNDA:0,_ZNSt16allocator_traitsISaIP15IR_myStatement_EE10_S_destroyIS1_EENSt9enable_ifIXsrNS3_16__destroy_helperIT_EE5valueEvE4typeERS2_PS7_
FNDA:44,_ZNSt16allocator_traitsISaIjEE11_S_max_sizeIKS0_EENSt9enable_ifIXsrNS1_16__maxsize_helperIT_EE5valueEmE4typeERS6_
FNDA:108,_ZNSt16allocator_traitsISaISt6vectorIP15IR_myStatement_SaIS2_EEEE11_S_max_sizeIKS5_EENSt9enable_ifIXsrNS6_16__maxsize_helperIT_EE5valueEmE4typeERSB_
FNDA:0,_ZNSt16allocator_traitsISaIP15IR_myStatement_EE11_S_max_sizeIKS2_EENSt9enable_ifIXsrNS3_16__maxsize_helperIT_EE5valueEmE4typeERS8_
FNDA:0,_ZNSt16allocator_traitsISaIP15IR_myStatement_EE9_S_selectIKS2_EENSt9enable_ifIXntsrNS3_15__select_helperIT_EE5valueES8_E4typeERS8_
FNDA:22,_ZNSt16allocator_traitsISaIjEE9constructIjIjEEEDTcl12_S_constructfp_fp0_spcl7forwardIT0_Efp1_EEERS0_PT_DpOS3_
FNDA:0,_ZNSt16allocator_traitsISaIP15IR_myStatement_EE9constructIS1_IS1_EEEDTcl12_S_constructfp_fp0_spcl7forwardIT0_Efp1_EEERS2_PT_DpOS5_
FNDA:62,_ZNSt16allocator_traitsISaISt6vectorIP15IR_myStatement_SaIS2_EEEE9constructIS4_IRKS4_EEEDTcl12_S_constructfp_fp0_spcl7forwardIT0_Efp1_EEERS5_PT_DpOSA_
FNDA:65,_ZNSt16allocator_traitsISaIP15IR_myStatement_EE9constructIS1_IRKS1_EEEDTcl12_S_constructfp_fp0_spcl7forwardIT0_Efp1_EEERS2_PT_DpOS7_
FNDA:0,_ZNSt16allocator_traitsISaIjEE7destroyIjEEvRS0_PT_
FNDA:0,_ZNSt16allocator_traitsISaISt6vectorIP15IR_myStatement_SaIS2_EEEE7destroyIS4_EEvRS5_PT_
FNDA:0,_ZNSt16allocator_traitsISaIP15IR_myStatement_EE7destroyIS1_EEvRS2_PT_
FNDA:44,_ZNSt16allocator_traitsISaIjEE8max_sizeERKS0_
FNDA:108,_ZNSt16allocator_traitsISaISt6vectorIP15IR_myStatement_SaIS2_EEEE8max_sizeERKS5_
FNDA:0,_ZNSt16allocator_traitsISaIP15IR_myStatement_EE8max_sizeERKS2_
FNDA:0,_ZNSt16allocator_traitsISaIP15IR_myStatement_EE37select_on_container_copy_constructionERKS2_
FNDA:10,_ZSt18__do_alloc_on_moveISaIjEEvRT_S2_St17integral_constantIbLb1EE
FNDA:10,_ZSt15__alloc_on_moveISaIjEEvRT_S2_
FNDA:10,_ZSt18__do_alloc_on_swapISaISt6vectorIP15IR_myStatement_SaIS2_EEEEvRT_S7_St17integral_constantIbLb0EE
FNDA:10,_ZSt15__alloc_on_swapISaISt6vectorIP15IR_myStatement_SaIS2_EEEEvRT_S7_
FNF:26
FNH:14
DA:253,149
DA:254,149
DA:280,0
DA:281,0
DA:305,152
DA:306,152
DA:337,0
DA:338,0
DA:391,149
DA:393,149
DA:404,0
DA:405,0
DA:415,152
DA:416,152
DA:427,0
DA:428,0
DA:478,10
DA:479,10
DA:486,10
DA:490,10
DA:491,10
DA:501,10
DA:502,10
DA:505,10
DA:509,10
DA:510,10
LF:26
LH:18
end_of_record
SF:/usr/include/c++/4.8.2/bits/allocator.h
FN:113,_ZNSaIjEC2Ev
FN:113,_ZNSaISt6vectorIP15IR_myStatement_SaIS1_EEEC2Ev
FN:113,_ZNSaIP15IR_myStatement_EC2Ev
FN:115,_ZNSaIP15IR_myStatement_EC2ERKS1_
FN:115,_ZNSaIjEC2ERKS_
FN:121,_ZNSaIP15IR_myStatement_ED2Ev
FN:121,_ZNSaIjED2Ev
FN:121,_ZNSaISt6vectorIP15IR_myStatement_SaIS1_EEED2Ev
FNDA:30,_ZNSaISt6vectorIP15IR_myStatement_SaIS1_EEEC2Ev
FNDA:0,_ZNSaIP15IR_myStatement_EC2Ev
FNDA:17,_ZNSaIjEC2Ev
FNDA:20,_ZNSaIjEC2ERKS_
FNDA:0,_ZNSaIP15IR_myStatement_EC2ERKS1_
FNDA:0,_ZNSaISt6vectorIP15IR_myStatement_SaIS1_EEED2Ev
FNDA:0,_ZNSaIP15IR_myStatement_ED2Ev
FNDA:37,_ZNSaIjED2Ev
FNF:8
FNH:4
DA:113,47
DA:115,20
DA:116,20
DA:121,37
LF:4
LH:4
end_of_record
SF:/usr/include/c++/4.8.2/bits/move.h
FN:47,_ZSt11__addressofISt6vectorIP15IR_myStatement_SaIS2_EEEPT_RS5_
FN:76,_ZSt7forwardIjEOT_RNSt16remove_referenceIS0_E4typeE
FN:76,_ZSt7forwardIRKSt6vectorIP15IR_myStatement_SaIS2_EEEOT_RNSt16remove_referenceIS7_E4typeE
FN:76,_ZSt7forwardIRKP15IR_myStatement_EOT_RNSt16remove_referenceIS4_E4typeE
FN:76,_ZSt7forwardISt6vectorIP15IR_myStatement_SaIS2_EEEOT_RNSt16remove_referenceIS5_E4typeE
FN:76,_ZSt7forwardIP15IR_myStatement_EOT_RNSt16remove_referenceIS2_E4typeE
FN:101,_ZSt4moveIRPjEONSt16remove_referenceIT_E4typeEOS3_
FN:101,_ZSt4moveIRP15IR_myStatement_EONSt16remove_referenceIT_E4typeEOS4_
FN:101,_ZSt4moveIRPSt6vectorIP15IR_myStatement_SaIS2_EEEONSt16remove_referenceIT_E4typeEOS8_
FN:101,_ZSt4moveIRjEONSt16remove_referenceIT_E4typeEOS2_
FN:101,_ZSt4moveIRSt6vectorIjSaIjEEEONSt16remove_referenceIT_E4typeEOS5_
FN:101,_ZSt4moveIRZN5lgxZJ9Canonical9Canonical7FlattenESt6vectorIS3_IP15IR_myStatement_SaIS5_EESaIS7_EEEUlRS7_E_EONSt16remove_referenceIT_E4typeEOSE_
FN:101,_ZSt4moveIRZN5lgxZJ9Canonical9Canonical8ToBlocksERSt6vectorIP15IR_myStatement_SaIS5_EEEUlS5_E_EONSt16remove_referenceIT_E4typeEOSC_
FN:101,_ZSt4moveIRSaIP15IR_myStatement_EEONSt16remove_referenceIT_E4typeEOS5_
FN:101,_ZSt4moveIRPP15IR_myStatement_EONSt16remove_referenceIT_E4typeEOS5_
FN:101,_ZSt4moveIRZZN5lgxZJ9Canonical9Canonical7FlattenESt6vectorIS3_IP15IR_myStatement_SaIS5_EESaIS7_EEENKUlRS7_E_clESA_EUlS5_E_EONSt16remove_referenceIT_E4typeEOSF_
FN:101,_ZSt4moveIRSt6vectorIP15IR_myStatement_SaIS2_EEEONSt16remove_referenceIT_E4typeEOS7_
FN:101,_ZSt4moveIRSaIjEEONSt16remove_referenceIT_E4typeEOS3_
FN:101,_ZSt4moveIRZN5lgxZJ9Canonical9Canonical22AppendNewTraceToResultERSt6vectorIS3_IP15IR_myStatement_SaIS5_EESaIS7_EESA_RS3_IjSaIjEEEUljE_EONSt16remove_referenceIT_E4typeEOSH_
FN:166,_ZSt4swapIPP15IR_myStatement_EvRT_S4_
FN:166,_ZSt4swapIPSt6vectorIP15IR_myStatement_SaIS2_EEEvRT_S7_
FN:166,_ZSt4swapIPjEvRT_S2_
FNDA:0,_ZSt11__addressofISt6vectorIP15IR_myStatement_SaIS2_EEEPT_RS5_
FNDA:46,_ZSt7forwardISt6vectorIP15IR_myStatement_SaIS2_EEEOT_RNSt16remove_referenceIS5_E4typeE
FNDA:110,_ZSt7forwardIjEOT_RNSt16remove_referenceIS0_E4typeE
FNDA:0,_ZSt7forwardIP15IR_myStatement_EOT_RNSt16remove_referenceIS2_E4typeE
FNDA:0,_ZSt7forwardIRKSt6vectorIP15IR_myStatement_SaIS2_EEEOT_RNSt16remove_referenceIS7_E4typeE
FNDA:225,_ZSt7forwardIRKP15IR_myStatement_EOT_RNSt16remove_referenceIS4_E4typeE
FNDA:180,_ZSt4moveIRPjEONSt16remove_referenceIT_E4typeEOS3_
FNDA:90,_ZSt4moveIRPSt6vectorIP15IR_myStatement_SaIS2_EEEONSt16remove_referenceIT_E4typeEOS8_
FNDA:414,_ZSt4moveIRPP15IR_myStatement_EONSt16remove_referenceIT_E4typeEOS5_
FNDA:10,_ZSt4moveIRSaIjEEONSt16remove_referenceIT_E4typeEOS3_
FNDA:92,_ZSt4moveIRSaIP15IR_myStatement_EEONSt16remove_referenceIT_E4typeEOS5_
FNDA:2,_ZSt4moveIRZN5lgxZJ9Canonical9Canonical7FlattenESt6vectorIS3_IP15IR_myStatement_SaIS5_EESaIS7_EEEUlRS7_E_EONSt16remove_referenceIT_E4typeEOSE_
FNDA:5,_ZSt4moveIRZZN5lgxZJ9Canonical9Canonical7FlattenESt6vectorIS3_IP15IR_myStatement_SaIS5_EESaIS7_EEENKUlRS7_E_clESA_EUlS5_E_EONSt16remove_referenceIT_E4typeEOSF_
FNDA:10,_ZSt4moveIRZN5lgxZJ9Canonical9Canonical22AppendNewTraceToResultERSt6vectorIS3_IP15IR_myStatement_SaIS5_EESaIS7_EESA_RS3_IjSaIjEEEUljE_EONSt16remove_referenceIT_E4typeEOSH_
FNDA:22,_ZSt4moveIRjEONSt16remove_referenceIT_E4typeEOS2_
FNDA:10,_ZSt4moveIRSt6vectorIjSaIjEEEONSt16remove_referenceIT_E4typeEOS5_
FNDA:0,_ZSt4moveIRP15IR_myStatement_EONSt16remove_referenceIT_E4typeEOS4_
FNDA:13,_ZSt4moveIRZN5lgxZJ9Canonical9Canonical8ToBlocksERSt6vectorIP15IR_myStatement_SaIS5_EEEUlS5_E_EONSt16remove_referenceIT_E4typeEOSC_
FNDA:92,_ZSt4moveIRSt6vectorIP15IR_myStatement_SaIS2_EEEONSt16remove_referenceIT_E4typeEOS7_
FNDA:60,_ZSt4swapIPjEvRT_S2_
FNDA:30,_ZSt4swapIPSt6vectorIP15IR_myStatement_SaIS2_EEEvRT_S7_
FNDA:138,_ZSt4swapIPP15IR_myStatement_EvRT_S4_
FNF:22
FNH:18
DA:47,0
DA:50,0
DA:76,381
DA:77,381
DA:101,940
DA:102,940
DA:166,228
DA:175,228
DA:176,228
DA:177,228
DA:178,228
LF:11
LH:9
end_of_record
SF:/usr/include/c++/4.8.2/bits/stl_algo.h
FN:206,_ZSt9__find_ifIN9__gnu_cxx17__normal_iteratorIPjSt6vectorIjSaIjEEEEZN5lgxZJ9Canonical9Canonical13IsBlockMarkedERS5_jEUljE_ET_SC_SC_T0_St26random_access_iterator_tag
FN:4411,_ZSt8for_eachIN9__gnu_cxx17__normal_iteratorIPP15IR_myStatement_St6vectorIS3_SaIS3_EEEEZN5lgxZJ9Canonical9Canonical8ToBlocksERS7_EUlS3_E_ET0_T_SF_SE_
FN:4411,_ZSt8for_eachIN9__gnu_cxx17__normal_iteratorIPP15IR_myStatement_St6vectorIS3_SaIS3_EEEEZZN5lgxZJ9Canonical9Canonical7FlattenES5_IS7_SaIS7_EEENKUlRS7_E_clESE_EUlS3_E_ET0_T_SI_SH_
FN:4411,_ZSt8for_eachIN9__gnu_cxx17__normal_iteratorIPjSt6vectorIjSaIjEEEEZN5lgxZJ9Canonical9Canonical22AppendNewTraceToResultERS3_IS3_IP15IR_myStatement_SaISB_EESaISD_EESG_RS5_EUljE_ET0_T_SK_SJ_
FN:4411,_ZSt8for_eachIN9__gnu_cxx17__normal_iteratorIPSt6vectorIP15IR_myStatement_SaIS4_EES2_IS6_SaIS6_EEEEZN5lgxZJ9Canonical9Canonical7FlattenES9_EUlRS6_E_ET0_T_SH_SG_
FN:4456,_ZSt7find_ifIN9__gnu_cxx17__normal_iteratorIPjSt6vectorIjSaIjEEEEZN5lgxZJ9Canonical9Canonical13IsBlockMarkedERS5_jEUljE_ET_SC_SC_T0_
FNDA:37,_ZSt9__find_ifIN9__gnu_cxx17__normal_iteratorIPjSt6vectorIjSaIjEEEEZN5lgxZJ9Canonical9Canonical13IsBlockMarkedERS5_jEUljE_ET_SC_SC_T0_St26random_access_iterator_tag
FNDA:2,_ZSt8for_eachIN9__gnu_cxx17__normal_iteratorIPSt6vectorIP15IR_myStatement_SaIS4_EES2_IS6_SaIS6_EEEEZN5lgxZJ9Canonical9Canonical7FlattenES9_EUlRS6_E_ET0_T_SH_SG_
FNDA:5,_ZSt8for_eachIN9__gnu_cxx17__normal_iteratorIPP15IR_myStatement_St6vectorIS3_SaIS3_EEEEZZN5lgxZJ9Canonical9Canonical7FlattenES5_IS7_SaIS7_EEENKUlRS7_E_clESE_EUlS3_E_ET0_T_SI_SH_
FNDA:10,_ZSt8for_eachIN9__gnu_cxx17__normal_iteratorIPjSt6vectorIjSaIjEEEEZN5lgxZJ9Canonical9Canonical22AppendNewTraceToResultERS3_IS3_IP15IR_myStatement_SaISB_EESaISD_EESG_RS5_EUljE_ET0_T_SK_SJ_
FNDA:13,_ZSt8for_eachIN9__gnu_cxx17__normal_iteratorIPP15IR_myStatement_St6vectorIS3_SaIS3_EEEEZN5lgxZJ9Canonical9Canonical8ToBlocksERS7_EUlS3_E_ET0_T_SF_SE_
FNDA:37,_ZSt7find_ifIN9__gnu_cxx17__normal_iteratorIPjSt6vectorIjSaIjEEEEZN5lgxZJ9Canonical9Canonical13IsBlockMarkedERS5_jEUljE_ET_SC_SC_T0_
FNF:6
FNH:6
DA:206,37
DA:210,37
DA:212,37
DA:214,0
DA:215,0
DA:216,0
DA:218,0
DA:219,0
DA:220,0
DA:222,0
DA:223,0
DA:224,0
DA:226,0
DA:227,0
DA:228,0
DA:231,37
DA:234,18
DA:235,5
DA:236,13
DA:238,22
DA:239,7
DA:240,15
DA:242,25
DA:243,10
DA:244,15
DA:247,15
DA:4411,30
DA:4416,116
DA:4417,86
DA:4418,30
DA:4456,37
DA:4465,37
LF:32
LH:20
end_of_record
SF:/usr/include/c++/4.8.2/bits/stl_algobase.h
FN:216,_ZSt3maxImERKT_S2_S2_
FN:277,_ZSt12__niter_baseIPP15IR_myStatement_ENSt11_Niter_baseIT_E13iterator_typeES4_
FN:277,_ZSt12__niter_baseIN9__gnu_cxx17__normal_iteratorIPKP15IR_myStatement_St6vectorIS3_SaIS3_EEEEENSt11_Niter_baseIT_E13iterator_typeESB_
FN:277,_ZSt12__niter_baseIPjENSt11_Niter_baseIT_E13iterator_typeES2_
FN:288,_ZSt12__miter_baseIN9__gnu_cxx17__normal_iteratorIPKP15IR_myStatement_St6vectorIS3_SaIS3_EEEEENSt11_Miter_baseIT_E13iterator_typeESB_
FN:288,_ZSt12__miter_baseISt13move_iteratorIPP15IR_myStatement_EENSt11_Miter_baseIT_E13iterator_typeES6_
FN:288,_ZSt12__miter_baseISt13move_iteratorIPjEENSt11_Miter_baseIT_E13iterator_typeES4_
FN:368,_ZNSt11__copy_moveILb1ELb1ESt26random_access_iterator_tagE8__copy_mIjEEPT_PKS3_S6_S4_
FN:368,_ZNSt11__copy_moveILb0ELb1ESt26random_access_iterator_tagE8__copy_mIP15IR_myStatement_EEPT_PKS5_S8_S6_
FN:368,_ZNSt11__copy_moveILb1ELb1ESt26random_access_iterator_tagE8__copy_mIP15IR_myStatement_EEPT_PKS5_S8_S6_
FN:379,_ZSt13__copy_move_aILb1EPP15IR_myStatement_S2_ET1_T0_S4_S3_
FN:379,_ZSt13__copy_move_aILb1EPjS0_ET1_T0_S2_S1_
FN:379,_ZSt13__copy_move_aILb0EPKP15IR_myStatement_PS1_ET1_T0_S6_S5_
FN:424,_ZSt14__copy_move_a2ILb0EN9__gnu_cxx17__normal_iteratorIPKP15IR_myStatement_St6vectorIS3_SaIS3_EEEEPS3_ET1_T0_SC_SB_
FN:424,_ZSt14__copy_move_a2ILb1EPjS0_ET1_T0_S2_S1_
FN:424,_ZSt14__copy_move_a2ILb1EPP15IR_myStatement_S2_ET1_T0_S4_S3_
FN:450,_ZSt4copyIN9__gnu_cxx17__normal_iteratorIPKP15IR_myStatement_St6vectorIS3_SaIS3_EEEEPS3_ET0_T_SC_SB_
FN:450,_ZSt4copyISt13move_iteratorIPjES1_ET0_T_S4_S3_
FN:450,_ZSt4copyISt13move_iteratorIPP15IR_myStatement_ES3_ET0_T_S6_S5_
FNDA:0,_ZSt3maxImERKT_S2_S2_
FNDA:0,_ZSt12__niter_baseIN9__gnu_cxx17__normal_iteratorIPKP15IR_myStatement_St6vectorIS3_SaIS3_EEEEENSt11_Niter_baseIT_E13iterator_typeESB_
FNDA:66,_ZSt12__niter_baseIPjENSt11_Niter_baseIT_E13iterator_typeES2_
FNDA:0,_ZSt12__niter_baseIPP15IR_myStatement_ENSt11_Niter_baseIT_E13iterator_typeES4_
FNDA:0,_ZSt12__miter_baseIN9__gnu_cxx17__normal_iteratorIPKP15IR_myStatement_St6vectorIS3_SaIS3_EEEEENSt11_Miter_baseIT_E13iterator_typeESB_
FNDA:44,_ZSt12__miter_baseISt13move_iteratorIPjEENSt11_Miter_baseIT_E13iterator_typeES4_
FNDA:0,_ZSt12__miter_baseISt13move_iteratorIPP15IR_myStatement_EENSt11_Miter_baseIT_E13iterator_typeES6_
FNDA:0,_ZNSt11__copy_moveILb0ELb1ESt26random_access_iterator_tagE8__copy_mIP15IR_myStatement_EEPT_PKS5_S8_S6_
FNDA:22,_ZNSt11__copy_moveILb1ELb1ESt26random_access_iterator_tagE8__copy_mIjEEPT_PKS3_S6_S4_
FNDA:0,_ZNSt11__copy_moveILb1ELb1ESt26random_access_iterator_tagE8__copy_mIP15IR_myStatement_EEPT_PKS5_S8_S6_
FNDA:0,_ZSt13__copy_move_aILb0EPKP15IR_myStatement_PS1_ET1_T0_S6_S5_
FNDA:22,_ZSt13__copy_move_aILb1EPjS0_ET1_T0_S2_S1_
FNDA:0,_ZSt13__copy_move_aILb1EPP15IR_myStatement_S2_ET1_T0_S4_S3_
FNDA:0,_ZSt14__copy_move_a2ILb0EN9__gnu_cxx17__normal_iteratorIPKP15IR_myStatement_St6vectorIS3_SaIS3_EEEEPS3_ET1_T0_SC_SB_
FNDA:22,_ZSt14__copy_move_a2ILb1EPjS0_ET1_T0_S2_S1_
FNDA:0,_ZSt14__copy_move_a2ILb1EPP15IR_myStatement_S2_ET1_T0_S4_S3_
FNDA:0,_ZSt4copyIN9__gnu_cxx17__normal_iteratorIPKP15IR_myStatement_St6vectorIS3_SaIS3_EEEEPS3_ET0_T_SC_SB_
FNDA:22,_ZSt4copyISt13move_iteratorIPjES1_ET0_T_S4_S3_
FNDA:0,_ZSt4copyISt13move_iteratorIPP15IR_myStatement_ES3_ET0_T_S6_S5_
FNF:19
FNH:6
DA:216,0
DA:221,0
DA:222,0
DA:223,0
DA:277,66
DA:278,66
DA:288,44
DA:289,44
DA:368,22
DA:370,22
DA:371,22
DA:372,12
DA:373,22
DA:379,22
DA:387,22
DA:390,22
DA:424,22
DA:428,22
DA:450,22
DA:460,22
LF:20
LH:16
end_of_record
SF:/usr/include/c++/4.8.2/bits/stl_construct.h
FN:74,_ZSt10_ConstructISt6vectorIP15IR_myStatement_SaIS2_EEIS4_EEvPT_DpOT0_
FN:92,_ZSt8_DestroyISt6vectorIP15IR_myStatement_SaIS2_EEEvPT_
FN:100,_ZNSt12_Destroy_auxILb0EE9__destroyIPSt6vectorIP15IR_myStatement_SaIS4_EEEEvT_S8_
FN:112,_ZNSt12_Destroy_auxILb1EE9__destroyIPjEEvT_S3_
FN:112,_ZNSt12_Destroy_auxILb1EE9__destroyIPP15IR_myStatement_EEvT_S5_
FN:122,_ZSt8_DestroyIPjEvT_S1_
FN:122,_ZSt8_DestroyIPSt6vectorIP15IR_myStatement_SaIS2_EEEvT_S6_
FN:122,_ZSt8_DestroyIPP15IR_myStatement_EvT_S3_
FN:148,_ZSt8_DestroyIPP15IR_myStatement_S1_EvT_S3_RSaIT0_E
FN:148,_ZSt8_DestroyIPSt6vectorIP15IR_myStatement_SaIS2_EES4_EvT_S6_RSaIT0_E
FN:148,_ZSt8_DestroyIPjjEvT_S1_RSaIT0_E
FNDA:46,_ZSt10_ConstructISt6vectorIP15IR_myStatement_SaIS2_EEIS4_EEvPT_DpOT0_
FNDA:0,_ZSt8_DestroyISt6vectorIP15IR_myStatement_SaIS2_EEEvPT_
FNDA:0,_ZNSt12_Destroy_auxILb0EE9__destroyIPSt6vectorIP15IR_myStatement_SaIS4_EEEEvT_S8_
FNDA:0,_ZNSt12_Destroy_auxILb1EE9__destroyIPP15IR_myStatement_EEvT_S5_
FNDA:49,_ZNSt12_Destroy_auxILb1EE9__destroyIPjEEvT_S3_
FNDA:0,_ZSt8_DestroyIPSt6vectorIP15IR_myStatement_SaIS2_EEEvT_S6_
FNDA:0,_ZSt8_DestroyIPP15IR_myStatement_EvT_S3_
FNDA:49,_ZSt8_DestroyIPjEvT_S1_
FNDA:0,_ZSt8_DestroyIPSt6vectorIP15IR_myStatement_SaIS2_EES4_EvT_S6_RSaIT0_E
FNDA:0,_ZSt8_DestroyIPP15IR_myStatement_S1_EvT_S3_RSaIT0_E
FNDA:49,_ZSt8_DestroyIPjjEvT_S1_RSaIT0_E
FNF:11
FNH:4
DA:74,46
DA:75,46
DA:92,0
DA:93,0
DA:100,0
DA:102,0
DA:103,0
DA:104,0
DA:112,49
DA:122,49
DA:126,49
DA:128,49
DA:148,49
DA:151,49
DA:152,49
LF:15
LH:9
end_of_record
SF:/usr/include/c++/4.8.2/bits/stl_iterator.h
FN:726,_ZN9__gnu_cxx17__normal_iteratorIPSt6vectorIP15IR_myStatement_SaIS3_EES1_IS5_SaIS5_EEEC2ERKS6_
FN:726,_ZN9__gnu_cxx17__normal_iteratorIPKSt6vectorIP15IR_myStatement_SaIS3_EES1_IS5_SaIS5_EEEC2ERKS7_
FN:726,_ZN9__gnu_cxx17__normal_iteratorIPjSt6vectorIjSaIjEEEC2ERKS1_
FN:726,_ZN9__gnu_cxx17__normal_iteratorIPKjSt6vectorIjSaIjEEEC2ERKS2_
FN:726,_ZN9__gnu_cxx17__normal_iteratorIPP15IR_myStatement_St6vectorIS2_SaIS2_EEEC2ERKS3_
FN:726,_ZN9__gnu_cxx17__normal_iteratorIPKP15IR_myStatement_St6vectorIS2_SaIS2_EEEC2ERKS4_
FN:738,_ZNK9__gnu_cxx17__normal_iteratorIPP15IR_myStatement_St6vectorIS2_SaIS2_EEEdeEv
FN:738,_ZNK9__gnu_cxx17__normal_iteratorIPjSt6vectorIjSaIjEEEdeEv
FN:738,_ZNK9__gnu_cxx17__normal_iteratorIPSt6vectorIP15IR_myStatement_SaIS3_EES1_IS5_SaIS5_EEEdeEv
FN:746,_ZN9__gnu_cxx17__normal_iteratorIPSt6vectorIP15IR_myStatement_SaIS3_EES1_IS5_SaIS5_EEEppEv
FN:746,_ZN9__gnu_cxx17__normal_iteratorIPjSt6vectorIjSaIjEEEppEv
FN:746,_ZN9__gnu_cxx17__normal_iteratorIPP15IR_myStatement_St6vectorIS2_SaIS2_EEEppEv
FN:786,_ZNK9__gnu_cxx17__normal_iteratorIPSt6vectorIP15IR_myStatement_SaIS3_EES1_IS5_SaIS5_EEEmiERKl
FN:786,_ZNK9__gnu_cxx17__normal_iteratorIPjSt6vectorIjSaIjEEEmiERKl
FN:786,_ZNK9__gnu_cxx17__normal_iteratorIPP15IR_myStatement_St6vectorIS2_SaIS2_EEEmiERKl
FN:790,_ZNK9__gnu_cxx17__normal_iteratorIPSt6vectorIP15IR_myStatement_SaIS3_EES1_IS5_SaIS5_EEE4baseEv
FN:790,_ZNK9__gnu_cxx17__normal_iteratorIPKSt6vectorIP15IR_myStatement_SaIS3_EES1_IS5_SaIS5_EEE4baseEv
FN:790,_ZNK9__gnu_cxx17__normal_iteratorIPKjSt6vectorIjSaIjEEE4baseEv
FN:790,_ZNK9__gnu_cxx17__normal_iteratorIPKP15IR_myStatement_St6vectorIS2_SaIS2_EEE4baseEv
FN:790,_ZNK9__gnu_cxx17__normal_iteratorIPjSt6vectorIjSaIjEEE4baseEv
FN:790,_ZNK9__gnu_cxx17__normal_iteratorIPP15IR_myStatement_St6vectorIS2_SaIS2_EEE4baseEv
FN:811,_ZN9__gnu_cxxeqIPKjSt6vectorIjSaIjEEEEbRKNS_17__normal_iteratorIT_T0_EESB_
FN:811,_ZN9__gnu_cxxeqIPKSt6vectorIP15IR_myStatement_SaIS3_EES1_IS5_SaIS5_EEEEbRKNS_17__normal_iteratorIT_T0_EESF_
FN:811,_ZN9__gnu_cxxeqIPKP15IR_myStatement_St6vectorIS2_SaIS2_EEEEbRKNS_17__normal_iteratorIT_T0_EESD_
FN:823,_ZN9__gnu_cxxneIPSt6vectorIP15IR_myStatement_SaIS3_EES1_IS5_SaIS5_EEEEbRKNS_17__normal_iteratorIT_T0_EESE_
FN:823,_ZN9__gnu_cxxneIPjSt6vectorIjSaIjEEEEbRKNS_17__normal_iteratorIT_T0_EESA_
FN:823,_ZN9__gnu_cxxneIPP15IR_myStatement_St6vectorIS2_SaIS2_EEEEbRKNS_17__normal_iteratorIT_T0_EESC_
FN:896,_ZN9__gnu_cxxmiIPjSt6vectorIjSaIjEEEENS_17__normal_iteratorIT_T0_E15difference_typeERKS8_SB_
FN:950,_ZNSt13move_iteratorIPjEC2ES0_
FN:950,_ZNSt13move_iteratorIPSt6vectorIP15IR_myStatement_SaIS2_EEEC2ES5_
FN:950,_ZNSt13move_iteratorIPP15IR_myStatement_EC2ES2_
FN:958,_ZNKSt13move_iteratorIPP15IR_myStatement_E4baseEv
FN:958,_ZNKSt13move_iteratorIPjE4baseEv
FN:958,_ZNKSt13move_iteratorIPSt6vectorIP15IR_myStatement_SaIS2_EEE4baseEv
FN:962,_ZNKSt13move_iteratorIPSt6vectorIP15IR_myStatement_SaIS2_EEEdeEv
FN:970,_ZNSt13move_iteratorIPSt6vectorIP15IR_myStatement_SaIS2_EEEppEv
FN:1037,_ZSteqIPSt6vectorIP15IR_myStatement_SaIS2_EEEbRKSt13move_iteratorIT_ESA_
FN:1049,_ZStneIPSt6vectorIP15IR_myStatement_SaIS2_EEEbRKSt13move_iteratorIT_ESA_
FN:1132,_ZSt32__make_move_if_noexcept_iteratorIPP15IR_myStatement_St13move_iteratorIS2_EET0_T_
FN:1132,_ZSt32__make_move_if_noexcept_iteratorIPjSt13move_iteratorIS0_EET0_T_
FN:1132,_ZSt32__make_move_if_noexcept_iteratorIPSt6vectorIP15IR_myStatement_SaIS2_EESt13move_iteratorIS5_EET0_T_
FNDA:44,_ZN9__gnu_cxx17__normal_iteratorIPKjSt6vectorIjSaIjEEEC2ERKS2_
FNDA:0,_ZN9__gnu_cxx17__normal_iteratorIPKSt6vectorIP15IR_myStatement_SaIS3_EES1_IS5_SaIS5_EEEC2ERKS7_
FNDA:0,_ZN9__gnu_cxx17__normal_iteratorIPKP15IR_myStatement_St6vectorIS2_SaIS2_EEEC2ERKS4_
FNDA:0,_ZN9__gnu_cxx17__normal_iteratorIPSt6vectorIP15IR_myStatement_SaIS3_EES1_IS5_SaIS5_EEEC2ERKS6_
FNDA:219,_ZN9__gnu_cxx17__normal_iteratorIPjSt6vectorIjSaIjEEEC2ERKS1_
FNDA:0,_ZN9__gnu_cxx17__normal_iteratorIPP15IR_myStatement_St6vectorIS2_SaIS2_EEEC2ERKS3_
FNDA:131,_ZNK9__gnu_cxx17__normal_iteratorIPjSt6vectorIjSaIjEEEdeEv
FNDA:0,_ZNK9__gnu_cxx17__normal_iteratorIPP15IR_myStatement_St6vectorIS2_SaIS2_EEEdeEv
FNDA:0,_ZNK9__gnu_cxx17__normal_iteratorIPSt6vectorIP15IR_myStatement_SaIS3_EES1_IS5_SaIS5_EEEdeEv
FNDA:5,_ZN9__gnu_cxx17__normal_iteratorIPSt6vectorIP15IR_myStatement_SaIS3_EES1_IS5_SaIS5_EEEppEv
FNDA:65,_ZN9__gnu_cxx17__normal_iteratorIPjSt6vectorIjSaIjEEEppEv
FNDA:59,_ZN9__gnu_cxx17__normal_iteratorIPP15IR_myStatement_St6vectorIS2_SaIS2_EEEppEv
FNDA:44,_ZNK9__gnu_cxx17__normal_iteratorIPjSt6vectorIjSaIjEEEmiERKl
FNDA:0,_ZNK9__gnu_cxx17__normal_iteratorIPP15IR_myStatement_St6vectorIS2_SaIS2_EEEmiERKl
FNDA:0,_ZNK9__gnu_cxx17__normal_iteratorIPSt6vectorIP15IR_myStatement_SaIS3_EES1_IS5_SaIS5_EEEmiERKl
FNDA:14,_ZNK9__gnu_cxx17__normal_iteratorIPSt6vectorIP15IR_myStatement_SaIS3_EES1_IS5_SaIS5_EEE4baseEv
FNDA:44,_ZNK9__gnu_cxx17__normal_iteratorIPKjSt6vectorIjSaIjEEE4baseEv
FNDA:0,_ZNK9__gnu_cxx17__normal_iteratorIPKSt6vectorIP15IR_myStatement_SaIS3_EES1_IS5_SaIS5_EEE4baseEv
FNDA:0,_ZNK9__gnu_cxx17__normal_iteratorIPKP15IR_myStatement_St6vectorIS2_SaIS2_EEE4baseEv
FNDA:154,_ZNK9__gnu_cxx17__normal_iteratorIPP15IR_myStatement_St6vectorIS2_SaIS2_EEE4baseEv
FNDA:286,_ZNK9__gnu_cxx17__normal_iteratorIPjSt6vectorIjSaIjEEE4baseEv
FNDA:22,_ZN9__gnu_cxxeqIPKjSt6vectorIjSaIjEEEEbRKNS_17__normal_iteratorIT_T0_EESB_
FNDA:68,_ZN9__gnu_cxxeqIPKSt6vectorIP15IR_myStatement_SaIS3_EES1_IS5_SaIS5_EEEEbRKNS_17__normal_iteratorIT_T0_EESF_
FNDA:88,_ZN9__gnu_cxxeqIPKP15IR_myStatement_St6vectorIS2_SaIS2_EEEEbRKNS_17__normal_iteratorIT_T0_EESD_
FNDA:7,_ZN9__gnu_cxxneIPSt6vectorIP15IR_myStatement_SaIS3_EES1_IS5_SaIS5_EEEEbRKNS_17__normal_iteratorIT_T0_EESE_
FNDA:77,_ZN9__gnu_cxxneIPP15IR_myStatement_St6vectorIS2_SaIS2_EEEEbRKNS_17__normal_iteratorIT_T0_EESC_
FNDA:69,_ZN9__gnu_cxxneIPjSt6vectorIjSaIjEEEEbRKNS_17__normal_iteratorIT_T0_EESA_
FNDA:74,_ZN9__gnu_cxxmiIPjSt6vectorIjSaIjEEEENS_17__normal_iteratorIT_T0_E15difference_typeERKS8_SB_
FNDA:44,_ZNSt13move_iteratorIPjEC2ES0_
FNDA:108,_ZNSt13move_iteratorIPSt6vectorIP15IR_myStatement_SaIS2_EEEC2ES5_
FNDA:0,_ZNSt13move_iteratorIPP15IR_myStatement_EC2ES2_
FNDA:44,_ZNKSt13move_iteratorIPjE4baseEv
FNDA:0,_ZNKSt13move_iteratorIPP15IR_myStatement_E4baseEv
FNDA:200,_ZNKSt13move_iteratorIPSt6vectorIP15IR_myStatement_SaIS2_EEE4baseEv
FNDA:46,_ZNKSt13move_iteratorIPSt6vectorIP15IR_myStatement_SaIS2_EEEdeEv
FNDA:46,_ZNSt13move_iteratorIPSt6vectorIP15IR_myStatement_SaIS2_EEEppEv
FNDA:100,_ZSteqIPSt6vectorIP15IR_myStatement_SaIS2_EEEbRKSt13move_iteratorIT_ESA_
FNDA:100,_ZStneIPSt6vectorIP15IR_myStatement_SaIS2_EEEbRKSt13move_iteratorIT_ESA_
FNDA:44,_ZSt32__make_move_if_noexcept_iteratorIPjSt13move_iteratorIS0_EET0_T_
FNDA:108,_ZSt32__make_move_if_noexcept_iteratorIPSt6vectorIP15IR_myStatement_SaIS2_EESt13move_iteratorIS5_EET0_T_
FNDA:0,_ZSt32__make_move_if_noexcept_iteratorIPP15IR_myStatement_St13move_iteratorIS2_EET0_T_
FNF:41
FNH:28
DA:726,263
DA:738,131
DA:739,131
DA:746,129
DA:748,129
DA:749,129
DA:786,44
DA:787,44
DA:790,498
DA:791,498
DA:811,178
DA:813,178
DA:823,153
DA:825,153
DA:896,74
DA:898,74
DA:950,152
DA:951,152
DA:958,244
DA:959,244
DA:962,46
DA:963,46
DA:970,46
DA:972,46
DA:973,46
DA:1037,100
DA:1039,100
DA:1049,100
DA:1051,100
DA:1132,152
DA:1133,152
LF:31
LH:31
end_of_record
SF:/usr/include/c++/4.8.2/bits/stl_iterator_base_types.h
FN:201,_ZSt19__iterator_categoryIN9__gnu_cxx17__normal_iteratorIPjSt6vectorIjSaIjEEEEENSt15iterator_traitsIT_E17iterator_categoryERKS8_
FN:212,_ZNSt10_Iter_baseIPP15IR_myStatement_Lb0EE7_S_baseES2_
FN:212,_ZNSt10_Iter_baseIPjLb0EE7_S_baseES0_
FN:212,_ZNSt10_Iter_baseIN9__gnu_cxx17__normal_iteratorIPKP15IR_myStatement_St6vectorIS3_SaIS3_EEEELb0EE7_S_baseES9_
FN:220,_ZNSt10_Iter_baseISt13move_iteratorIPP15IR_myStatement_ELb1EE7_S_baseES4_
FN:220,_ZNSt10_Iter_baseISt13move_iteratorIPjELb1EE7_S_baseES2_
FN:220,_ZNSt10_Iter_baseIN9__gnu_cxx17__normal_iteratorIPKP15IR_myStatement_St6vectorIS3_SaIS3_EEEELb1EE7_S_baseES9_
FNDA:37,_ZSt19__iterator_categoryIN9__gnu_cxx17__normal_iteratorIPjSt6vectorIjSaIjEEEEENSt15iterator_traitsIT_E17iterator_categoryERKS8_
FNDA:66,_ZNSt10_Iter_baseIPjLb0EE7_S_baseES0_
FNDA:0,_ZNSt10_Iter_baseIN9__gnu_cxx17__normal_iteratorIPKP15IR_myStatement_St6vectorIS3_SaIS3_EEEELb0EE7_S_baseES9_
FNDA:0,_ZNSt10_Iter_baseIPP15IR_myStatement_Lb0EE7_S_baseES2_
FNDA:0,_ZNSt10_Iter_baseIN9__gnu_cxx17__normal_iteratorIPKP15IR_myStatement_St6vectorIS3_SaIS3_EEEELb1EE7_S_baseES9_
FNDA:44,_ZNSt10_Iter_baseISt13move_iteratorIPjELb1EE7_S_baseES2_
FNDA:0,_ZNSt10_Iter_baseISt13move_iteratorIPP15IR_myStatement_ELb1EE7_S_baseES4_
FNF:7
FNH:3
DA:201,37
DA:202,37
DA:212,66
DA:213,66
DA:220,44
DA:221,44
LF:6
LH:6
end_of_record
SF:/usr/include/c++/4.8.2/bits/stl_uninitialized.h
FN:68,_ZNSt20__uninitialized_copyILb0EE13__uninit_copyISt13move_iteratorIPSt6vectorIP15IR_myStatement_SaIS5_EEES8_EET0_T_SB_SA_
FN:91,_ZNSt20__uninitialized_copyILb1EE13__uninit_copyISt13move_iteratorIPP15IR_myStatement_ES5_EET0_T_S8_S7_
FN:91,_ZNSt20__uninitialized_copyILb1EE13__uninit_copyISt13move_iteratorIPjES3_EET0_T_S6_S5_
FN:91,_ZNSt20__uninitialized_copyILb1EE13__uninit_copyIN9__gnu_cxx17__normal_iteratorIPKP15IR_myStatement_St6vectorIS5_SaIS5_EEEEPS5_EET0_T_SE_SD_
FN:107,_ZSt18uninitialized_copyISt13move_iteratorIPSt6vectorIP15IR_myStatement_SaIS3_EEES6_ET0_T_S9_S8_
FN:107,_ZSt18uninitialized_copyIN9__gnu_cxx17__normal_iteratorIPKP15IR_myStatement_St6vectorIS3_SaIS3_EEEEPS3_ET0_T_SC_SB_
FN:107,_ZSt18uninitialized_copyISt13move_iteratorIPP15IR_myStatement_ES3_ET0_T_S6_S5_
FN:107,_ZSt18uninitialized_copyISt13move_iteratorIPjES1_ET0_T_S4_S3_
FN:256,_ZSt22__uninitialized_copy_aISt13move_iteratorIPSt6vectorIP15IR_myStatement_SaIS3_EEES6_S5_ET0_T_S9_S8_RSaIT1_E
FN:256,_ZSt22__uninitialized_copy_aISt13move_iteratorIPP15IR_myStatement_ES3_S2_ET0_T_S6_S5_RSaIT1_E
FN:256,_ZSt22__uninitialized_copy_aISt13move_iteratorIPjES1_jET0_T_S4_S3_RSaIT1_E
FN:256,_ZSt22__uninitialized_copy_aIN9__gnu_cxx17__normal_iteratorIPKP15IR_myStatement_St6vectorIS3_SaIS3_EEEEPS3_S3_ET0_T_SC_SB_RSaIT1_E
FN:274,_ZSt34__uninitialized_move_if_noexcept_aIPSt6vectorIP15IR_myStatement_SaIS2_EES5_SaIS4_EET0_T_S8_S7_RT1_
FN:274,_ZSt34__uninitialized_move_if_noexcept_aIPjS0_SaIjEET0_T_S3_S2_RT1_
FN:274,_ZSt34__uninitialized_move_if_noexcept_aIPP15IR_myStatement_S2_SaIS1_EET0_T_S5_S4_RT1_
FNDA:54,_ZNSt20__uninitialized_copyILb0EE13__uninit_copyISt13move_iteratorIPSt6vectorIP15IR_myStatement_SaIS5_EEES8_EET0_T_SB_SA_
FNDA:0,_ZNSt20__uninitialized_copyILb1EE13__uninit_copyIN9__gnu_cxx17__normal_iteratorIPKP15IR_myStatement_St6vectorIS5_SaIS5_EEEEPS5_EET0_T_SE_SD_
FNDA:22,_ZNSt20__uninitialized_copyILb1EE13__uninit_copyISt13move_iteratorIPjES3_EET0_T_S6_S5_
FNDA:0,_ZNSt20__uninitialized_copyILb1EE13__uninit_copyISt13move_iteratorIPP15IR_myStatement_ES5_EET0_T_S8_S7_
FNDA:0,_ZSt18uninitialized_copyIN9__gnu_cxx17__normal_iteratorIPKP15IR_myStatement_St6vectorIS3_SaIS3_EEEEPS3_ET0_T_SC_SB_
FNDA:22,_ZSt18uninitialized_copyISt13move_iteratorIPjES1_ET0_T_S4_S3_
FNDA:54,_ZSt18uninitialized_copyISt13move_iteratorIPSt6vectorIP15IR_myStatement_SaIS3_EEES6_ET0_T_S9_S8_
FNDA:0,_ZSt18uninitialized_copyISt13move_iteratorIPP15IR_myStatement_ES3_ET0_T_S6_S5_
FNDA:0,_ZSt22__uninitialized_copy_aIN9__gnu_cxx17__normal_iteratorIPKP15IR_myStatement_St6vectorIS3_SaIS3_EEEEPS3_S3_ET0_T_SC_SB_RSaIT1_E
FNDA:22,_ZSt22__uninitialized_copy_aISt13move_iteratorIPjES1_jET0_T_S4_S3_RSaIT1_E
FNDA:54,_ZSt22__uninitialized_copy_aISt13move_iteratorIPSt6vectorIP15IR_myStatement_SaIS3_EEES6_S5_ET0_T_S9_S8_RSaIT1_E
FNDA:0,_ZSt22__uninitialized_copy_aISt13move_iteratorIPP15IR_myStatement_ES3_S2_ET0_T_S6_S5_RSaIT1_E
FNDA:22,_ZSt34__uninitialized_move_if_noexcept_aIPjS0_SaIjEET0_T_S3_S2_RT1_
FNDA:54,_ZSt34__uninitialized_move_if_noexcept_aIPSt6vectorIP15IR_myStatement_SaIS2_EES5_SaIS4_EET0_T_S8_S7_RT1_
FNDA:0,_ZSt34__uninitialized_move_if_noexcept_aIPP15IR_myStatement_S2_SaIS1_EET0_T_S5_S4_RT1_
FNF:15
FNH:8
DA:68,54
DA:71,54
DA:74,100
DA:75,46
DA:76,54
DA:78,0
DA:80,0
DA:81,0
DA:91,22
DA:93,22
DA:107,76
DA:117,76
DA:256,76
DA:258,76
DA:274,76
DA:281,76
LF:16
LH:13
end_of_record
SF:/usr/include/c++/4.8.2/bits/stl_vector.h
FN:79,_ZNSt12_Vector_baseIP15IR_myStatement_SaIS1_EE12_Vector_implD2Ev
FN:79,_ZNSt12_Vector_baseIjSaIjEE12_Vector_implD2Ev
FN:79,_ZNSt12_Vector_baseISt6vectorIP15IR_myStatement_SaIS2_EESaIS4_EE12_Vector_implD2Ev
FN:86,_ZNSt12_Vector_baseIjSaIjEE12_Vector_implC2Ev
FN:86,_ZNSt12_Vector_baseIP15IR_myStatement_SaIS1_EE12_Vector_implC2Ev
FN:86,_ZNSt12_Vector_baseISt6vectorIP15IR_myStatement_SaIS2_EESaIS4_EE12_Vector_implC2Ev
FN:90,_ZNSt12_Vector_baseIjSaIjEE12_Vector_implC2ERKS0_
FN:90,_ZNSt12_Vector_baseIP15IR_myStatement_SaIS1_EE12_Vector_implC2ERKS2_
FN:95,_ZNSt12_Vector_baseIP15IR_myStatement_SaIS1_EE12_Vector_implC2EOS2_
FN:101,_ZNSt12_Vector_baseIjSaIjEE12_Vector_impl12_M_swap_dataERS2_
FN:101,_ZNSt12_Vector_baseIP15IR_myStatement_SaIS1_EE12_Vector_impl12_M_swap_dataERS4_
FN:101,_ZNSt12_Vector_baseISt6vectorIP15IR_myStatement_SaIS2_EESaIS4_EE12_Vector_impl12_M_swap_dataERS7_
FN:113,_ZNSt12_Vector_baseISt6vectorIP15IR_myStatement_SaIS2_EESaIS4_EE19_M_get_Tp_allocatorEv
FN:113,_ZNSt12_Vector_baseIP15IR_myStatement_SaIS1_EE19_M_get_Tp_allocatorEv
FN:113,_ZNSt12_Vector_baseIjSaIjEE19_M_get_Tp_allocatorEv
FN:117,_ZNKSt12_Vector_baseIjSaIjEE19_M_get_Tp_allocatorEv
FN:117,_ZNKSt12_Vector_baseIP15IR_myStatement_SaIS1_EE19_M_get_Tp_allocatorEv
FN:117,_ZNKSt12_Vector_baseISt6vectorIP15IR_myStatement_SaIS2_EESaIS4_EE19_M_get_Tp_allocatorEv
FN:121,_ZNKSt12_Vector_baseIjSaIjEE13get_allocatorEv
FN:124,_ZNSt12_Vector_baseIP15IR_myStatement_SaIS1_EEC2Ev
FN:124,_ZNSt12_Vector_baseIjSaIjEEC2Ev
FN:124,_ZNSt12_Vector_baseISt6vectorIP15IR_myStatement_SaIS2_EESaIS4_EEC2Ev
FN:127,_ZNSt12_Vector_baseIjSaIjEEC2ERKS0_
FN:134,_ZNSt12_Vector_baseIP15IR_myStatement_SaIS1_EEC2EmRKS2_
FN:142,_ZNSt12_Vector_baseIP15IR_myStatement_SaIS1_EEC2EOS3_
FN:159,_ZNSt12_Vector_baseIP15IR_myStatement_SaIS1_EED2Ev
FN:159,_ZNSt12_Vector_baseISt6vectorIP15IR_myStatement_SaIS2_EESaIS4_EED2Ev
FN:159,_ZNSt12_Vector_baseIjSaIjEED2Ev
FN:167,_ZNSt12_Vector_baseISt6vectorIP15IR_myStatement_SaIS2_EESaIS4_EE11_M_allocateEm
FN:167,_ZNSt12_Vector_baseIP15IR_myStatement_SaIS1_EE11_M_allocateEm
FN:167,_ZNSt12_Vector_baseIjSaIjEE11_M_allocateEm
FN:171,_ZNSt12_Vector_baseISt6vectorIP15IR_myStatement_SaIS2_EESaIS4_EE13_M_deallocateEPS4_m
FN:171,_ZNSt12_Vector_baseIP15IR_myStatement_SaIS1_EE13_M_deallocateEPS1_m
FN:171,_ZNSt12_Vector_baseIjSaIjEE13_M_deallocateEPjm
FN:179,_ZNSt12_Vector_baseIP15IR_myStatement_SaIS1_EE17_M_create_storageEm
FN:248,_ZNSt6vectorIP15IR_myStatement_SaIS1_EEC2Ev
FN:248,_ZNSt6vectorIjSaIjEEC2Ev
FN:248,_ZNSt6vectorIS_IP15IR_myStatement_SaIS1_EESaIS3_EEC2Ev
FN:256,_ZNSt6vectorIjSaIjEEC2ERKS0_
FN:310,_ZNSt6vectorIP15IR_myStatement_SaIS1_EEC2ERKS3_
FN:327,_ZNSt6vectorIP15IR_myStatement_SaIS1_EEC2EOS3_
FN:414,_ZNSt6vectorIS_IP15IR_myStatement_SaIS1_EESaIS3_EED2Ev
FN:414,_ZNSt6vectorIjSaIjEED2Ev
FN:414,_ZNSt6vectorIP15IR_myStatement_SaIS1_EED2Ev
FN:439,_ZNSt6vectorIjSaIjEEaSEOS1_
FN:538,_ZNSt6vectorIjSaIjEE5beginEv
FN:538,_ZNSt6vectorIS_IP15IR_myStatement_SaIS1_EESaIS3_EE5beginEv
FN:538,_ZNSt6vectorIP15IR_myStatement_SaIS1_EE5beginEv
FN:547,_ZNKSt6vectorIS_IP15IR_myStatement_SaIS1_EESaIS3_EE5beginEv
FN:547,_ZNKSt6vectorIP15IR_myStatement_SaIS1_EE5beginEv
FN:547,_ZNKSt6vectorIjSaIjEE5beginEv
FN:556,_ZNSt6vectorIP15IR_myStatement_SaIS1_EE3endEv
FN:556,_ZNSt6vectorIjSaIjEE3endEv
FN:556,_ZNSt6vectorIS_IP15IR_myStatement_SaIS1_EESaIS3_EE3endEv
FN:565,_ZNKSt6vectorIP15IR_myStatement_SaIS1_EE3endEv
FN:565,_ZNKSt6vectorIjSaIjEE3endEv
FN:565,_ZNKSt6vectorIS_IP15IR_myStatement_SaIS1_EESaIS3_EE3endEv
FN:645,_ZNKSt6vectorIS_IP15IR_myStatement_SaIS1_EESaIS3_EE4sizeEv
FN:645,_ZNKSt6vectorIjSaIjEE4sizeEv
FN:645,_ZNKSt6vectorIP15IR_myStatement_SaIS1_EE4sizeEv
FN:650,_ZNKSt6vectorIP15IR_myStatement_SaIS1_EE8max_sizeEv
FN:650,_ZNKSt6vectorIS_IP15IR_myStatement_SaIS1_EESaIS3_EE8max_sizeEv
FN:650,_ZNKSt6vectorIjSaIjEE8max_sizeEv
FN:734,_ZNKSt6vectorIjSaIjEE5emptyEv
FN:734,_ZNKSt6vectorIP15IR_myStatement_SaIS1_EE5emptyEv
FN:734,_ZNKSt6vectorIS_IP15IR_myStatement_SaIS1_EESaIS3_EE5emptyEv
FN:770,_ZNSt6vectorIS_IP15IR_myStatement_SaIS1_EESaIS3_EEixEm
FN:791,_ZNKSt6vectorIS_IP15IR_myStatement_SaIS1_EESaIS3_EE14_M_range_checkEm
FN:810,_ZNSt6vectorIS_IP15IR_myStatement_SaIS1_EESaIS3_EE2atEm
FN:839,_ZNSt6vectorIP15IR_myStatement_SaIS1_EE5frontEv
FN:855,_ZNSt6vectorIjSaIjEE4backEv
FN:855,_ZNSt6vectorIS_IP15IR_myStatement_SaIS1_EESaIS3_EE4backEv
FN:855,_ZNSt6vectorIP15IR_myStatement_SaIS1_EE4backEv
FN:901,_ZNSt6vectorIP15IR_myStatement_SaIS1_EE9push_backERKS1_
FN:901,_ZNSt6vectorIS_IP15IR_myStatement_SaIS1_EESaIS3_EE9push_backERKS3_
FN:919,_ZNSt6vectorIjSaIjEE9push_backEOj
FN:919,_ZNSt6vectorIP15IR_myStatement_SaIS1_EE9push_backEOS1_
FN:937,_ZNSt6vectorIP15IR_myStatement_SaIS1_EE8pop_backEv
FN:1108,_ZNSt6vectorIS_IP15IR_myStatement_SaIS1_EESaIS3_EE4swapERS5_
FN:1125,_ZNSt6vectorIP15IR_myStatement_SaIS1_EE5clearEv
FN:1336,_ZNKSt6vectorIS_IP15IR_myStatement_SaIS1_EESaIS3_EE12_M_check_lenEmPKc
FN:1336,_ZNKSt6vectorIP15IR_myStatement_SaIS1_EE12_M_check_lenEmPKc
FN:1336,_ZNKSt6vectorIjSaIjEE12_M_check_lenEmPKc
FN:1350,_ZNSt6vectorIP15IR_myStatement_SaIS1_EE15_M_erase_at_endEPS1_
FN:1362,_ZNSt6vectorIjSaIjEE14_M_move_assignEOS1_St17integral_constantIbLb1EE
FN:1452,_ZSt4swapISt6vectorIP15IR_myStatement_SaIS2_EESaIS4_EEvRS0_IT_T0_ES9_
FNDA:0,_ZNSt12_Vector_baseISt6vectorIP15IR_myStatement_SaIS2_EESaIS4_EE12_Vector_implD2Ev
FNDA:0,_ZNSt12_Vector_baseIP15IR_myStatement_SaIS1_EE12_Vector_implD2Ev
FNDA:27,_ZNSt12_Vector_baseIjSaIjEE12_Vector_implD2Ev
FNDA:30,_ZNSt12_Vector_baseISt6vectorIP15IR_myStatement_SaIS2_EESaIS4_EE12_Vector_implC2Ev
FNDA:0,_ZNSt12_Vector_baseIP15IR_myStatement_SaIS1_EE12_Vector_implC2Ev
FNDA:17,_ZNSt12_Vector_baseIjSaIjEE12_Vector_implC2Ev
FNDA:0,_ZNSt12_Vector_baseIP15IR_myStatement_SaIS1_EE12_Vector_implC2ERKS2_
FNDA:10,_ZNSt12_Vector_baseIjSaIjEE12_Vector_implC2ERKS0_
FNDA:46,_ZNSt12_Vector_baseIP15IR_myStatement_SaIS1_EE12_Vector_implC2EOS2_
FNDA:20,_ZNSt12_Vector_baseIjSaIjEE12_Vector_impl12_M_swap_dataERS2_
FNDA:10,_ZNSt12_Vector_baseISt6vectorIP15IR_myStatement_SaIS2_EESaIS4_EE12_Vector_impl12_M_swap_dataERS7_
FNDA:46,_ZNSt12_Vector_baseIP15IR_myStatement_SaIS1_EE12_Vector_impl12_M_swap_dataERS4_
FNDA:0,_ZNSt12_Vector_baseISt6vectorIP15IR_myStatement_SaIS2_EESaIS4_EE19_M_get_Tp_allocatorEv
FNDA:0,_ZNSt12_Vector_baseIP15IR_myStatement_SaIS1_EE19_M_get_Tp_allocatorEv
FNDA:91,_ZNSt12_Vector_baseIjSaIjEE19_M_get_Tp_allocatorEv
FNDA:0,_ZNKSt12_Vector_baseISt6vectorIP15IR_myStatement_SaIS2_EESaIS4_EE19_M_get_Tp_allocatorEv
FNDA:0,_ZNKSt12_Vector_baseIP15IR_myStatement_SaIS1_EE19_M_get_Tp_allocatorEv
FNDA:54,_ZNKSt12_Vector_baseIjSaIjEE19_M_get_Tp_allocatorEv
FNDA:10,_ZNKSt12_Vector_baseIjSaIjEE13get_allocatorEv
FNDA:30,_ZNSt12_Vector_baseISt6vectorIP15IR_myStatement_SaIS2_EESaIS4_EEC2Ev
FNDA:0,_ZNSt12_Vector_baseIP15IR_myStatement_SaIS1_EEC2Ev
FNDA:17,_ZNSt12_Vector_baseIjSaIjEEC2Ev
FNDA:10,_ZNSt12_Vector_baseIjSaIjEEC2ERKS0_
FNDA:0,_ZNSt12_Vector_baseIP15IR_myStatement_SaIS1_EEC2EmRKS2_
FNDA:46,_ZNSt12_Vector_baseIP15IR_myStatement_SaIS1_EEC2EOS3_
FNDA:0,_ZNSt12_Vector_baseISt6vectorIP15IR_myStatement_SaIS2_EESaIS4_EED2Ev
FNDA:0,_ZNSt12_Vector_baseIP15IR_myStatement_SaIS1_EED2Ev
FNDA:27,_ZNSt12_Vector_baseIjSaIjEED2Ev
FNDA:22,_ZNSt12_Vector_baseIjSaIjEE11_M_allocateEm
FNDA:0,_ZNSt12_Vector_baseISt6vectorIP15IR_myStatement_SaIS2_EESaIS4_EE11_M_allocateEm
FNDA:0,_ZNSt12_Vector_baseIP15IR_myStatement_SaIS1_EE11_M_allocateEm
FNDA:0,_ZNSt12_Vector_baseISt6vectorIP15IR_myStatement_SaIS2_EESaIS4_EE13_M_deallocateEPS4_m
FNDA:0,_ZNSt12_Vector_baseIP15IR_myStatement_SaIS1_EE13_M_deallocateEPS1_m
FNDA:49,_ZNSt12_Vector_baseIjSaIjEE13_M_deallocateEPjm
FNDA:0,_ZNSt12_Vector_baseIP15IR_myStatement_SaIS1_EE17_M_create_storageEm
FNDA:30,_ZNSt6vectorIS_IP15IR_myStatement_SaIS1_EESaIS3_EEC2Ev
FNDA:0,_ZNSt6vectorIP15IR_myStatement_SaIS1_EEC2Ev
FNDA:17,_ZNSt6vectorIjSaIjEEC2Ev
FNDA:10,_ZNSt6vectorIjSaIjEEC2ERKS0_
FNDA:0,_ZNSt6vectorIP15IR_myStatement_SaIS1_EEC2ERKS3_
FNDA:46,_ZNSt6vectorIP15IR_myStatement_SaIS1_EEC2EOS3_
FNDA:0,_ZNSt6vectorIS_IP15IR_myStatement_SaIS1_EESaIS3_EED2Ev
FNDA:0,_ZNSt6vectorIP15IR_myStatement_SaIS1_EED2Ev
FNDA:27,_ZNSt6vectorIjSaIjEED2Ev
FNDA:10,_ZNSt6vectorIjSaIjEEaSEOS1_
FNDA:0,_ZNSt6vectorIS_IP15IR_myStatement_SaIS1_EESaIS3_EE5beginEv
FNDA:47,_ZNSt6vectorIjSaIjEE5beginEv
FNDA:0,_ZNSt6vectorIP15IR_myStatement_SaIS1_EE5beginEv
FNDA:22,_ZNKSt6vectorIjSaIjEE5beginEv
FNDA:0,_ZNKSt6vectorIS_IP15IR_myStatement_SaIS1_EESaIS3_EE5beginEv
FNDA:0,_ZNKSt6vectorIP15IR_myStatement_SaIS1_EE5beginEv
FNDA:0,_ZNSt6vectorIS_IP15IR_myStatement_SaIS1_EESaIS3_EE3endEv
FNDA:128,_ZNSt6vectorIjSaIjEE3endEv
FNDA:0,_ZNSt6vectorIP15IR_myStatement_SaIS1_EE3endEv
FNDA:22,_ZNKSt6vectorIjSaIjEE3endEv
FNDA:0,_ZNKSt6vectorIS_IP15IR_myStatement_SaIS1_EESaIS3_EE3endEv
FNDA:0,_ZNKSt6vectorIP15IR_myStatement_SaIS1_EE3endEv
FNDA:0,_ZNKSt6vectorIP15IR_myStatement_SaIS1_EE4sizeEv
FNDA:0,_ZNKSt6vectorIS_IP15IR_myStatement_SaIS1_EESaIS3_EE4sizeEv
FNDA:110,_ZNKSt6vectorIjSaIjEE4sizeEv
FNDA:44,_ZNKSt6vectorIjSaIjEE8max_sizeEv
FNDA:108,_ZNKSt6vectorIS_IP15IR_myStatement_SaIS1_EESaIS3_EE8max_sizeEv
FNDA:0,_ZNKSt6vectorIP15IR_myStatement_SaIS1_EE8max_sizeEv
FNDA:22,_ZNKSt6vectorIjSaIjEE5emptyEv
FNDA:68,_ZNKSt6vectorIS_IP15IR_myStatement_SaIS1_EESaIS3_EE5emptyEv
FNDA:88,_ZNKSt6vectorIP15IR_myStatement_SaIS1_EE5emptyEv
FNDA:0,_ZNSt6vectorIS_IP15IR_myStatement_SaIS1_EESaIS3_EEixEm
FNDA:0,_ZNKSt6vectorIS_IP15IR_myStatement_SaIS1_EESaIS3_EE14_M_range_checkEm
FNDA:0,_ZNSt6vectorIS_IP15IR_myStatement_SaIS1_EESaIS3_EE2atEm
FNDA:0,_ZNSt6vectorIP15IR_myStatement_SaIS1_EE5frontEv
FNDA:44,_ZNSt6vectorIjSaIjEE4backEv
FNDA:0,_ZNSt6vectorIP15IR_myStatement_SaIS1_EE4backEv
FNDA:0,_ZNSt6vectorIS_IP15IR_myStatement_SaIS1_EESaIS3_EE4backEv
FNDA:62,_ZNSt6vectorIS_IP15IR_myStatement_SaIS1_EESaIS3_EE9push_backERKS3_
FNDA:65,_ZNSt6vectorIP15IR_myStatement_SaIS1_EE9push_backERKS1_
FNDA:22,_ZNSt6vectorIjSaIjEE9push_backEOj
FNDA:0,_ZNSt6vectorIP15IR_myStatement_SaIS1_EE9push_backEOS1_
FNDA:2,_ZNSt6vectorIP15IR_myStatement_SaIS1_EE8pop_backEv
FNDA:10,_ZNSt6vectorIS_IP15IR_myStatement_SaIS1_EESaIS3_EE4swapERS5_
FNDA:37,_ZNSt6vectorIP15IR_myStatement_SaIS1_EE5clearEv
FNDA:22,_ZNKSt6vectorIjSaIjEE12_M_check_lenEmPKc
FNDA:54,_ZNKSt6vectorIS_IP15IR_myStatement_SaIS1_EESaIS3_EE12_M_check_lenEmPKc
FNDA:0,_ZNKSt6vectorIP15IR_myStatement_SaIS1_EE12_M_check_lenEmPKc
FNDA:37,_ZNSt6vectorIP15IR_myStatement_SaIS1_EE15_M_erase_at_endEPS1_
FNDA:10,_ZNSt6vectorIjSaIjEE14_M_move_assignEOS1_St17integral_constantIbLb1EE
FNDA:10,_ZSt4swapISt6vectorIP15IR_myStatement_SaIS2_EESaIS4_EEvRS0_IT_T0_ES9_
FNF:86
FNH:46
DA:79,27
DA:86,47
DA:87,47
DA:88,47
DA:90,10
DA:91,10
DA:92,10
DA:95,46
DA:96,46
DA:97,46
DA:98,46
DA:101,76
DA:103,76
DA:104,76
DA:105,76
DA:106,76
DA:113,91
DA:114,91
DA:117,54
DA:118,54
DA:121,10
DA:122,10
DA:124,47
DA:125,47
DA:127,10
DA:128,10
DA:134,0
DA:135,0
DA:136,0
DA:142,46
DA:143,46
DA:144,46
DA:159,27
DA:160,27
DA:161,54
DA:167,22
DA:168,22
DA:171,49
DA:173,49
DA:174,22
DA:175,49
DA:179,0
DA:181,0
DA:182,0
DA:183,0
DA:184,0
DA:248,47
DA:249,47
DA:256,10
DA:257,10
DA:310,0
DA:312,0
DA:313,0
DA:316,0
DA:317,0
DA:327,46
DA:328,46
DA:414,27
DA:415,27
DA:416,54
DA:439,10
DA:443,10
DA:444,10
DA:445,10
DA:446,10
DA:538,47
DA:539,47
DA:547,22
DA:548,22
DA:556,128
DA:557,128
DA:565,22
DA:566,22
DA:645,110
DA:646,110
DA:650,152
DA:651,152
DA:734,178
DA:735,178
DA:770,0
DA:771,0
DA:791,0
DA:793,0
DA:794,0
DA:795,0
DA:810,0
DA:812,0
DA:813,0
DA:839,0
DA:840,0
DA:855,44
DA:856,44
DA:901,127
DA:903,127
DA:905,43
DA:906,43
DA:907,43
DA:911,84
DA:915,127
DA:919,22
DA:920,22
DA:937,2
DA:939,2
DA:940,2
DA:941,2
DA:1108,10
DA:1113,10
DA:1114,10
DA:1115,10
DA:1116,10
DA:1125,37
DA:1126,37
DA:1336,76
DA:1338,76
DA:1339,0
DA:1341,76
DA:1342,76
DA:1350,37
DA:1352,37
DA:1353,37
DA:1354,37
DA:1362,10
DA:1364,10
DA:1365,10
DA:1366,10
DA:1367,10
DA:1368,10
DA:1369,20
DA:1370,10
DA:1452,10
DA:1453,10
LF:131
LH:106
end_of_record
SF:/usr/include/c++/4.8.2/bits/vector.tcc
FN:91,_ZNSt6vectorIP15IR_myStatement_SaIS1_EE12emplace_backIIS1_EEEvDpOT_
FN:91,_ZNSt6vectorIjSaIjEE12emplace_backIIjEEEvDpOT_
FN:399,_ZNSt6vectorIP15IR_myStatement_SaIS1_EE19_M_emplace_back_auxIIRKS1_EEEvDpOT_
FN:399,_ZNSt6vectorIP15IR_myStatement_SaIS1_EE19_M_emplace_back_auxIIS1_EEEvDpOT_
FN:399,_ZNSt6vectorIjSaIjEE19_M_emplace_back_auxIIjEEEvDpOT_
FN:399,_ZNSt6vectorIS_IP15IR_myStatement_SaIS1_EESaIS3_EE19_M_emplace_back_auxIIRKS3_EEEvDpOT_
FNDA:22,_ZNSt6vectorIjSaIjEE12emplace_backIIjEEEvDpOT_
FNDA:0,_ZNSt6vectorIP15IR_myStatement_SaIS1_EE12emplace_backIIS1_EEEvDpOT_
FNDA:22,_ZNSt6vectorIjSaIjEE19_M_emplace_back_auxIIjEEEvDpOT_
FNDA:0,_ZNSt6vectorIP15IR_myStatement_SaIS1_EE19_M_emplace_back_auxIIS1_EEEvDpOT_
FNDA:54,_ZNSt6vectorIS_IP15IR_myStatement_SaIS1_EESaIS3_EE19_M_emplace_back_auxIIRKS3_EEEvDpOT_
FNDA:30,_ZNSt6vectorIP15IR_myStatement_SaIS1_EE19_M_emplace_back_auxIIRKS1_EEEvDpOT_
FNF:6
FNH:4
DA:91,22
DA:94,22
DA:96,0
DA:97,0
DA:98,0
DA:101,22
DA:102,22
DA:399,106
DA:403,106
DA:404,106
DA:405,106
DA:408,212
DA:409,212
DA:410,106
DA:412,106
DA:415,106
DA:417,106
DA:419,0
DA:421,0
DA:422,0
DA:424,0
DA:425,0
DA:426,0
DA:428,106
DA:429,106
DA:430,106
DA:432,106
DA:433,106
DA:434,106
DA:435,106
DA:436,106
LF:31
LH:22
end_of_record
SF:/usr/include/c++/4.8.2/ext/alloc_traits.h
FN:166,_ZN9__gnu_cxx14__alloc_traitsISaIP15IR_myStatement_EE17_S_select_on_copyERKS3_
FN:169,_ZN9__gnu_cxx14__alloc_traitsISaISt6vectorIP15IR_myStatement_SaIS3_EEEE10_S_on_swapERS6_S8_
FN:175,_ZN9__gnu_cxx14__alloc_traitsISaIjEE27_S_propagate_on_move_assignEv
FNDA:0,_ZN9__gnu_cxx14__alloc_traitsISaIP15IR_myStatement_EE17_S_select_on_copyERKS3_
FNDA:10,_ZN9__gnu_cxx14__alloc_traitsISaISt6vectorIP15IR_myStatement_SaIS3_EEEE10_S_on_swapERS6_S8_
FNDA:10,_ZN9__gnu_cxx14__alloc_traitsISaIjEE27_S_propagate_on_move_assignEv
FNF:3
FNH:2
DA:166,0
DA:167,0
DA:169,10
DA:170,10
DA:175,10
DA:176,10
LF:6
LH:4
end_of_record
SF:/usr/include/c++/4.8.2/ext/new_allocator.h
FN:79,_ZN9__gnu_cxx13new_allocatorIP15IR_myStatement_EC2Ev
FN:79,_ZN9__gnu_cxx13new_allocatorISt6vectorIP15IR_myStatement_SaIS3_EEEC2Ev
FN:79,_ZN9__gnu_cxx13new_allocatorIjEC2Ev
FN:81,_ZN9__gnu_cxx13new_allocatorIjEC2ERKS1_
FN:81,_ZN9__gnu_cxx13new_allocatorIP15IR_myStatement_EC2ERKS3_
FN:86,_ZN9__gnu_cxx13new_allocatorIP15IR_myStatement_ED2Ev
FN:86,_ZN9__gnu_cxx13new_allocatorIjED2Ev
FN:86,_ZN9__gnu_cxx13new_allocatorISt6vectorIP15IR_myStatement_SaIS3_EEED2Ev
FN:99,_ZN9__gnu_cxx13new_allocatorISt6vectorIP15IR_myStatement_SaIS3_EEE8allocateEmPKv
FN:99,_ZN9__gnu_cxx13new_allocatorIjE8allocateEmPKv
FN:99,_ZN9__gnu_cxx13new_allocatorIP15IR_myStatement_E8allocateEmPKv
FN:109,_ZN9__gnu_cxx13new_allocatorIP15IR_myStatement_E10deallocateEPS2_m
FN:109,_ZN9__gnu_cxx13new_allocatorISt6vectorIP15IR_myStatement_SaIS3_EEE10deallocateEPS5_m
FN:109,_ZN9__gnu_cxx13new_allocatorIjE10deallocateEPjm
FN:113,_ZNK9__gnu_cxx13new_allocatorIP15IR_myStatement_E8max_sizeEv
FN:113,_ZNK9__gnu_cxx13new_allocatorIjE8max_sizeEv
FN:113,_ZNK9__gnu_cxx13new_allocatorISt6vectorIP15IR_myStatement_SaIS3_EEE8max_sizeEv
FN:119,_ZN9__gnu_cxx13new_allocatorIP15IR_myStatement_E9constructIS2_IRKS2_EEEvPT_DpOT0_
FN:119,_ZN9__gnu_cxx13new_allocatorIjE9constructIjIjEEEvPT_DpOT0_
FN:119,_ZN9__gnu_cxx13new_allocatorISt6vectorIP15IR_myStatement_SaIS3_EEE9constructIS5_IRKS5_EEEvPT_DpOT0_
FN:119,_ZN9__gnu_cxx13new_allocatorIP15IR_myStatement_E9constructIS2_IS2_EEEvPT_DpOT0_
FN:124,_ZN9__gnu_cxx13new_allocatorISt6vectorIP15IR_myStatement_SaIS3_EEE7destroyIS5_EEvPT_
FN:124,_ZN9__gnu_cxx13new_allocatorIP15IR_myStatement_E7destroyIS2_EEvPT_
FN:124,_ZN9__gnu_cxx13new_allocatorIjE7destroyIjEEvPT_
FNDA:30,_ZN9__gnu_cxx13new_allocatorISt6vectorIP15IR_myStatement_SaIS3_EEEC2Ev
FNDA:0,_ZN9__gnu_cxx13new_allocatorIP15IR_myStatement_EC2Ev
FNDA:17,_ZN9__gnu_cxx13new_allocatorIjEC2Ev
FNDA:20,_ZN9__gnu_cxx13new_allocatorIjEC2ERKS1_
FNDA:0,_ZN9__gnu_cxx13new_allocatorIP15IR_myStatement_EC2ERKS3_
FNDA:0,_ZN9__gnu_cxx13new_allocatorISt6vectorIP15IR_myStatement_SaIS3_EEED2Ev
FNDA:0,_ZN9__gnu_cxx13new_allocatorIP15IR_myStatement_ED2Ev
FNDA:37,_ZN9__gnu_cxx13new_allocatorIjED2Ev
FNDA:22,_ZN9__gnu_cxx13new_allocatorIjE8allocateEmPKv
FNDA:0,_ZN9__gnu_cxx13new_allocatorISt6vectorIP15IR_myStatement_SaIS3_EEE8allocateEmPKv
FNDA:0,_ZN9__gnu_cxx13new_allocatorIP15IR_myStatement_E8allocateEmPKv
FNDA:0,_ZN9__gnu_cxx13new_allocatorISt6vectorIP15IR_myStatement_SaIS3_EEE10deallocateEPS5_m
FNDA:0,_ZN9__gnu_cxx13new_allocatorIP15IR_myStatement_E10deallocateEPS2_m
FNDA:22,_ZN9__gnu_cxx13new_allocatorIjE10deallocateEPjm
FNDA:66,_ZNK9__gnu_cxx13new_allocatorIjE8max_sizeEv
FNDA:0,_ZNK9__gnu_cxx13new_allocatorISt6vectorIP15IR_myStatement_SaIS3_EEE8max_sizeEv
FNDA:0,_ZNK9__gnu_cxx13new_allocatorIP15IR_myStatement_E8max_sizeEv
FNDA:22,_ZN9__gnu_cxx13new_allocatorIjE9constructIjIjEEEvPT_DpOT0_
FNDA:0,_ZN9__gnu_cxx13new_allocatorIP15IR_myStatement_E9constructIS2_IS2_EEEvPT_DpOT0_
FNDA:62,_ZN9__gnu_cxx13new_allocatorISt6vectorIP15IR_myStatement_SaIS3_EEE9constructIS5_IRKS5_EEEvPT_DpOT0_
FNDA:65,_ZN9__gnu_cxx13new_allocatorIP15IR_myStatement_E9constructIS2_IRKS2_EEEvPT_DpOT0_
FNDA:0,_ZN9__gnu_cxx13new_allocatorIjE7destroyIjEEvPT_
FNDA:0,_ZN9__gnu_cxx13new_allocatorISt6vectorIP15IR_myStatement_SaIS3_EEE7destroyIS5_EEvPT_
FNDA:0,_ZN9__gnu_cxx13new_allocatorIP15IR_myStatement_E7destroyIS2_EEvPT_
FNF:24
FNH:10
DA:79,47
DA:81,20
DA:86,37
DA:99,22
DA:101,22
DA:102,0
DA:104,22
DA:109,22
DA:110,22
DA:113,66
DA:114,66
DA:119,149
DA:120,149
DA:124,0
LF:14
LH:12
end_of_record
SF:/usr/include/c++/4.8.2/new
FN:109,_ZnwmPv
FN:115,_ZdlPvS_
FNDA:0,_ZnwmPv
FNDA:0,_ZdlPvS_
FNF:2
FNH:0
DA:109,0
DA:110,0
DA:115,0
LF:3
LH:0
end_of_record
SF:/root/Tiger-Compiler/Compiler/myCanonical.cpp
FN:17,_ZN5lgxZJ9Canonical9Canonical9LinearizeEP15IR_myStatement_
FN:24,_ZN5lgxZJ9Canonical9Canonical10Linearize_ERSt6vectorIP15IR_myStatement_SaIS4_EES4_
FN:49,_ZN5lgxZJ9Canonical9Canonical8ToBlocksERSt6vectorIP15IR_myStatement_SaIS4_EE
FN:54,_ZZN5lgxZJ9Canonical9Canonical8ToBlocksERSt6vectorIP15IR_myStatement_SaIS4_EEENKUlS4_E_clES4_
FN:74,_ZN5lgxZJ9Canonical9Canonical19IsJumpableStatementEP15IR_myStatement_
FN:80,_ZN5lgxZJ9Canonical9Canonical23BlockStartsWithoutLabelERSt6vectorIP15IR_myStatement_SaIS4_EES4_
FN:85,_ZN5lgxZJ9Canonical9Canonical24BlockEndsWithoutJumpableERSt6vectorIP15IR_myStatement_SaIS4_EES4_
FN:91,_ZN5lgxZJ9Canonical9Canonical20DefineALabelForBlockERSt6vectorIP15IR_myStatement_SaIS4_EE
FN:97,_ZN5lgxZJ9Canonical9Canonical37FormerBlockEndsWithNonFalseLabelCJumpERSt6vectorIS2_IP15IR_myStatement_SaIS4_EESaIS6_EE
FN:107,_ZN5lgxZJ9Canonical9Canonical20GetCurrentBlockLabelERSt6vectorIP15IR_myStatement_SaIS4_EES4_
FN:112,_ZN5lgxZJ9Canonical9Canonical22FillNonFalseLabelCJumpERSt6vectorIP15IR_myStatement_SaIS4_EEP9mySymbol_
FN:117,_ZN5lgxZJ9Canonical9Canonical16AddBlockToResultERSt6vectorIS2_IP15IR_myStatement_SaIS4_EESaIS6_EERS6_
FN:123,_ZN5lgxZJ9Canonical9Canonical30AddJumpableAndAddBlockToResultERSt6vectorIS2_IP15IR_myStatement_SaIS4_EESaIS6_EERS6_P9mySymbol_
FN:133,_ZN5lgxZJ9Canonical9Canonical40AddEpilogueToRemainedAndAddBlockToResultERSt6vectorIS2_IP15IR_myStatement_SaIS4_EESaIS6_EERS6_
FN:144,_ZN5lgxZJ9Canonical9Canonical5TraceESt6vectorIS2_IP15IR_myStatement_SaIS4_EESaIS6_EE
FN:159,_ZN5lgxZJ9Canonical9Canonical18GetNewTraceIndicesERSt6vectorIS2_IP15IR_myStatement_SaIS4_EESaIS6_EE
FN:176,_ZN5lgxZJ9Canonical9Canonical22AppendNewTraceToResultERSt6vectorIS2_IP15IR_myStatement_SaIS4_EESaIS6_EES9_RS2_IjSaIjEE
FN:179,_ZZN5lgxZJ9Canonical9Canonical22AppendNewTraceToResultERSt6vectorIS2_IP15IR_myStatement_SaIS4_EESaIS6_EES9_RS2_IjSaIjEEENKUljE_clEj
FN:185,_ZN5lgxZJ9Canonical9Canonical17GetNextBlockIndexERSt6vectorIS2_IP15IR_myStatement_SaIS4_EESaIS6_EERS2_IjSaIjEE
FN:201,_ZN5lgxZJ9Canonical9Canonical24GetNextLabelFromJumpableEP15IR_myStatement_
FN:214,_ZN5lgxZJ9Canonical9Canonical15IsEpilogueLabelERSt6vectorIS2_IP15IR_myStatement_SaIS4_EESaIS6_EEP9mySymbol_
FN:219,_ZN5lgxZJ9Canonical9Canonical17FindLabelInBlocksERSt6vectorIS2_IP15IR_myStatement_SaIS4_EESaIS6_EEP9mySymbol_
FN:226,_ZN5lgxZJ9Canonical9Canonical13IsBlockMarkedERSt6vectorIjSaIjEEj
FN:228,_ZZN5lgxZJ9Canonical9Canonical13IsBlockMarkedERSt6vectorIjSaIjEEjENKUljE_clEj
FN:235,_ZN5lgxZJ9Canonical9Canonical18RemoveMarkedBlocksERSt6vectorIS2_IP15IR_myStatement_SaIS4_EESaIS6_EERS2_IjSaIjEE
FN:248,_ZN5lgxZJ9Canonical9Canonical7FlattenESt6vectorIS2_IP15IR_myStatement_SaIS4_EESaIS6_EE
FN:253,_ZZN5lgxZJ9Canonical9Canonical7FlattenESt6vectorIS2_IP15IR_myStatement_SaIS4_EESaIS6_EEENKUlRS6_E_clES9_
FN:255,_ZZZN5lgxZJ9Canonical9Canonical7FlattenESt6vectorIS2_IP15IR_myStatement_SaIS4_EESaIS6_EEENKUlRS6_E_clES9_ENKUlS4_E_clES4_
FN:264,_ZN5lgxZJ9Canonical9Canonical20RemoveRedundantJumpsERSt6vectorIS2_IP15IR_myStatement_SaIS4_EESaIS6_EE
FN:286,_ZN5lgxZJ9Canonical9Canonical16GetEpilogueLabelEv
FNDA:5,_ZN5lgxZJ9Canonical9Canonical9LinearizeEP15IR_myStatement_
FNDA:15,_ZN5lgxZJ9Canonical9Canonical10Linearize_ERSt6vectorIP15IR_myStatement_SaIS4_EES4_
FNDA:13,_ZN5lgxZJ9Canonical9Canonical8ToBlocksERSt6vectorIP15IR_myStatement_SaIS4_EE
FNDA:51,_ZZN5lgxZJ9Canonical9Canonical8ToBlocksERSt6vectorIP15IR_myStatement_SaIS4_EEENKUlS4_E_clES4_
FNDA:51,_ZN5lgxZJ9Canonical9Canonical19IsJumpableStatementEP15IR_myStatement_
FNDA:51,_ZN5lgxZJ9Canonical9Canonical23BlockStartsWithoutLabelERSt6vectorIP15IR_myStatement_SaIS4_EES4_
FNDA:51,_ZN5lgxZJ9Canonical9Canonical24BlockEndsWithoutJumpableERSt6vectorIP15IR_myStatement_SaIS4_EES4_
FNDA:15,_ZN5lgxZJ9Canonical9Canonical20DefineALabelForBlockERSt6vectorIP15IR_myStatement_SaIS4_EE
FNDA:51,_ZN5lgxZJ9Canonical9Canonical37FormerBlockEndsWithNonFalseLabelCJumpERSt6vectorIS2_IP15IR_myStatement_SaIS4_EESaIS6_EE
FNDA:2,_ZN5lgxZJ9Canonical9Canonical20GetCurrentBlockLabelERSt6vectorIP15IR_myStatement_SaIS4_EES4_
FNDA:2,_ZN5lgxZJ9Canonical9Canonical22FillNonFalseLabelCJumpERSt6vectorIP15IR_myStatement_SaIS4_EEP9mySymbol_
FNDA:37,_ZN5lgxZJ9Canonical9Canonical16AddBlockToResultERSt6vectorIS2_IP15IR_myStatement_SaIS4_EESaIS6_EERS6_
FNDA:14,_ZN5lgxZJ9Canonical9Canonical30AddJumpableAndAddBlockToResultERSt6vectorIS2_IP15IR_myStatement_SaIS4_EESaIS6_EERS6_P9mySymbol_
FNDA:13,_ZN5lgxZJ9Canonical9Canonical40AddEpilogueToRemainedAndAddBlockToResultERSt6vectorIS2_IP15IR_myStatement_SaIS4_EESaIS6_EERS6_
FNDA:7,_ZN5lgxZJ9Canonical9Canonical5TraceESt6vectorIS2_IP15IR_myStatement_SaIS4_EESaIS6_EE
FNDA:10,_ZN5lgxZJ9Canonical9Canonical18GetNewTraceIndicesERSt6vectorIS2_IP15IR_myStatement_SaIS4_EESaIS6_EE
FNDA:10,_ZN5lgxZJ9Canonical9Canonical22AppendNewTraceToResultERSt6vectorIS2_IP15IR_myStatement_SaIS4_EESaIS6_EES9_RS2_IjSaIjEE
FNDA:22,_ZZN5lgxZJ9Canonical9Canonical22AppendNewTraceToResultERSt6vectorIS2_IP15IR_myStatement_SaIS4_EESaIS6_EES9_RS2_IjSaIjEEENKUljE_clEj
FNDA:22,_ZN5lgxZJ9Canonical9Canonical17GetNextBlockIndexERSt6vectorIS2_IP15IR_myStatement_SaIS4_EESaIS6_EERS2_IjSaIjEE
FNDA:22,_ZN5lgxZJ9Canonical9Canonical24GetNextLabelFromJumpableEP15IR_myStatement_
FNDA:22,_ZN5lgxZJ9Canonical9Canonical15IsEpilogueLabelERSt6vectorIS2_IP15IR_myStatement_SaIS4_EESaIS6_EEP9mySymbol_
FNDA:12,_ZN5lgxZJ9Canonical9Canonical17FindLabelInBlocksERSt6vectorIS2_IP15IR_myStatement_SaIS4_EESaIS6_EEP9mySymbol_
FNDA:37,_ZN5lgxZJ9Canonical9Canonical13IsBlockMarkedERSt6vectorIjSaIjEEj
FNDA:65,_ZZN5lgxZJ9Canonical9Canonical13IsBlockMarkedERSt6vectorIjSaIjEEjENKUljE_clEj
FNDA:10,_ZN5lgxZJ9Canonical9Canonical18RemoveMarkedBlocksERSt6vectorIS2_IP15IR_myStatement_SaIS4_EESaIS6_EERS2_IjSaIjEE
FNDA:2,_ZN5lgxZJ9Canonical9Canonical7FlattenESt6vectorIS2_IP15IR_myStatement_SaIS4_EESaIS6_EE
FNDA:5,_ZZN5lgxZJ9Canonical9Canonical7FlattenESt6vectorIS2_IP15IR_myStatement_SaIS4_EESaIS6_EEENKUlRS6_E_clES9_
FNDA:8,_ZZZN5lgxZJ9Canonical9Canonical7FlattenESt6vectorIS2_IP15IR_myStatement_SaIS4_EESaIS6_EEENKUlRS6_E_clES9_ENKUlS4_E_clES4_
FNDA:2,_ZN5lgxZJ9Canonical9Canonical20RemoveRedundantJumpsERSt6vectorIS2_IP15IR_myStatement_SaIS4_EESaIS6_EE
FNDA:0,_ZN5lgxZJ9Canonical9Canonical16GetEpilogueLabelEv
FNF:30
FNH:29
DA:17,5
DA:19,5
DA:20,5
DA:21,5
DA:24,15
DA:26,15
DA:27,4
DA:30,11
DA:33,5
DA:34,5
DA:42,6
DA:43,0
DA:49,13
DA:51,13
DA:53,26
DA:54,51
DA:56,51
DA:57,13
DA:58,51
DA:59,2
DA:61,51
DA:62,1
DA:64,51
DA:66,51
DA:67,23
DA:68,64
DA:70,13
DA:71,26
DA:74,51
DA:76,84
DA:77,84
DA:80,51
DA:82,51
DA:85,51
DA:87,73
DA:88,73
DA:91,15
DA:93,15
DA:94,15
DA:97,51
DA:99,51
DA:100,14
DA:102,37
DA:103,48
DA:104,48
DA:107,2
DA:109,2
DA:112,2
DA:114,2
DA:115,2
DA:117,37
DA:119,37
DA:120,37
DA:121,37
DA:123,14
DA:129,14
DA:130,14
DA:131,14
DA:133,13
DA:135,13
DA:136,2
DA:138,13
DA:139,13
DA:140,13
DA:144,7
DA:146,7
DA:148,14
DA:149,24
DA:151,10
DA:152,10
DA:153,10
DA:156,14
DA:159,10
DA:162,10
DA:163,10
DA:165,10
DA:166,44
DA:167,12
DA:169,12
DA:172,10
DA:176,10
DA:179,22
DA:181,22
DA:182,32
DA:183,10
DA:185,22
DA:187,22
DA:191,22
DA:192,22
DA:193,22
DA:195,22
DA:196,10
DA:198,12
DA:201,22
DA:203,22
DA:206,19
DA:207,19
DA:209,3
DA:210,0
DA:214,22
DA:216,22
DA:219,12
DA:221,35
DA:222,35
DA:223,0
DA:226,37
DA:228,65
DA:230,65
DA:231,102
DA:232,74
DA:235,10
DA:237,10
DA:238,35
DA:240,25
DA:241,3
DA:243,10
DA:244,10
DA:248,2
DA:250,2
DA:252,2
DA:253,5
DA:255,8
DA:257,8
DA:258,13
DA:259,7
DA:261,2
DA:264,2
DA:267,5
DA:269,3
DA:270,3
DA:273,1
DA:276,2
DA:277,2
DA:278,2
DA:279,2
DA:280,2
DA:281,0
DA:284,2
DA:286,0
DA:288,0
LF:140
LH:134
end_of_record
