TN:
SF:/usr/include/c++/4.8/bits/alloc_traits.h
FN:253,_ZNSt16allocator_traitsISaISt13_Rb_tree_nodeISt4pairIKP7myTemp_S3_EEEE12_S_constructIS6_IRKSt21piecewise_construct_tSt5tupleIIOS3_EESD_IIEEEEENSt9enable_ifIXsrNS8_18__construct_helperIT_IDpT0_EEE5valueEvE4typeERS7_PSJ_DpOSK_
FN:253,_ZNSt16allocator_traitsISaIN5lgxZJ2LA4EdgeEEE12_S_constructIS2_IRKS2_EEENSt9enable_ifIXsrNS4_18__construct_helperIT_IDpT0_EEE5valueEvE4typeERS3_PSA_DpOSB_
FN:253,_ZNSt16allocator_traitsISaIN5lgxZJ2IS4MoveEEE12_S_constructIS2_IRP7myTemp_S7_EEENSt9enable_ifIXsrNS4_18__construct_helperIT_IDpT0_EEE5valueEvE4typeERS3_PSB_DpOSC_
FN:253,_ZNSt16allocator_traitsISaISt13_Rb_tree_nodeISt4pairIKiP9myAccess_EEEE12_S_constructIS6_IRKSt21piecewise_construct_tSt5tupleIIOiEESD_IIEEEEENSt9enable_ifIXsrNS8_18__construct_helperIT_IDpT0_EEE5valueEvE4typeERS7_PSJ_DpOSK_
FN:253,_ZNSt16allocator_traitsISaISt23_Sp_counted_ptr_inplaceIN5lgxZJ2IS4MoveESaIS3_ELN9__gnu_cxx12_Lock_policyE2EEEE12_S_constructIS7_IKS4_RP7myTemp_SE_NS3_11OperandTypeESF_EEENSt9enable_ifIXsrNS9_18__construct_helperIT_IDpT0_EEE5valueEvE4typeERS8_PSI_DpOSJ_
FN:253,_ZNSt16allocator_traitsISaIiEE12_S_constructIiIiEEENSt9enable_ifIXsrNS1_18__construct_helperIT_IDpT0_EEE5valueEvE4typeERS0_PS5_DpOS6_
FN:253,_ZNSt16allocator_traitsISaIN5lgxZJ2IS4MoveEEE12_S_constructIS2_IRP7myTemp_S8_NS2_11OperandTypeES9_EEENSt9enable_ifIXsrNS4_18__construct_helperIT_IDpT0_EEE5valueEvE4typeERS3_PSC_DpOSD_
FN:253,_ZNSt16allocator_traitsISaISt13_Rb_tree_nodeISt4pairIKijEEEE12_S_constructIS4_IRKSt21piecewise_construct_tSt5tupleIIOiEESB_IIEEEEENSt9enable_ifIXsrNS6_18__construct_helperIT_IDpT0_EEE5valueEvE4typeERS5_PSH_DpOSI_
FN:253,_ZNSt16allocator_traitsISaISt10shared_ptrIN5lgxZJ2IS3AAIEEEE12_S_constructIS4_IRKS4_EEENSt9enable_ifIXsrNS6_18__construct_helperIT_IDpT0_EEE5valueEvE4typeERS5_PSC_DpOSD_
FN:253,_ZNSt16allocator_traitsISaISt13_Rb_tree_nodeISt4pairIKiP9myAccess_EEEE12_S_constructIS6_IRKSt21piecewise_construct_tSt5tupleIIRS2_EESD_IIEEEEENSt9enable_ifIXsrNS8_18__construct_helperIT_IDpT0_EEE5valueEvE4typeERS7_PSJ_DpOSK_
FN:253,_ZNSt16allocator_traitsISaISt23_Sp_counted_ptr_inplaceIN5lgxZJ2IS3SubESaIS3_ELN9__gnu_cxx12_Lock_policyE2EEEE12_S_constructIS7_IKS4_RP7myTemp_iEEENSt9enable_ifIXsrNS9_18__construct_helperIT_IDpT0_EEE5valueEvE4typeERS8_PSH_DpOSI_
FN:253,_ZNSt16allocator_traitsISaISt23_Sp_counted_ptr_inplaceIN5lgxZJ2IS4MoveESaIS3_ELN9__gnu_cxx12_Lock_policyE2EEEE12_S_constructIS7_IKS4_RP7myTemp_SD_EEENSt9enable_ifIXsrNS9_18__construct_helperIT_IDpT0_EEE5valueEvE4typeERS8_PSH_DpOSI_
FN:253,_ZNSt16allocator_traitsISaISt13_Rb_tree_nodeISt4pairIKijEEEE12_S_constructIS4_IRKSt21piecewise_construct_tSt5tupleIIRS2_EESB_IIEEEEENSt9enable_ifIXsrNS6_18__construct_helperIT_IDpT0_EEE5valueEvE4typeERS5_PSH_DpOSI_
FN:253,_ZNSt16allocator_traitsISaIN5lgxZJ2IS3SubEEE12_S_constructIS2_IRP7myTemp_iEEENSt9enable_ifIXsrNS4_18__construct_helperIT_IDpT0_EEE5valueEvE4typeERS3_PSB_DpOSC_
FN:253,_ZNSt16allocator_traitsISaISt13_Rb_tree_nodeISt4pairIKiP7myTemp_EEEE12_S_constructIS6_IRKSt21piecewise_construct_tSt5tupleIIRS2_EESD_IIEEEEENSt9enable_ifIXsrNS8_18__construct_helperIT_IDpT0_EEE5valueEvE4typeERS7_PSJ_DpOSK_
FN:253,_ZNSt16allocator_traitsISaIiEE12_S_constructIiIRKiEEENSt9enable_ifIXsrNS1_18__construct_helperIT_IDpT0_EEE5valueEvE4typeERS0_PS7_DpOS8_
FN:253,_ZNSt16allocator_traitsISaISt13_Rb_tree_nodeISt4pairIKiSt6vectorIiSaIiEEEEEE12_S_constructIS7_IRKSt21piecewise_construct_tSt5tupleIIRS2_EESE_IIEEEEENSt9enable_ifIXsrNS9_18__construct_helperIT_IDpT0_EEE5valueEvE4typeERS8_PSK_DpOSL_
FN:253,_ZNSt16allocator_traitsISaISt10shared_ptrIN5lgxZJ2IS3AAIEEEE12_S_constructIS4_IS4_EEENSt9enable_ifIXsrNS6_18__construct_helperIT_IDpT0_EEE5valueEvE4typeERS5_PSA_DpOSB_
FN:280,_ZNSt16allocator_traitsISaISt23_Sp_counted_ptr_inplaceIN5lgxZJ2IS4MoveESaIS3_ELN9__gnu_cxx12_Lock_policyE2EEEE10_S_destroyIS7_EENSt9enable_ifIXsrNS9_16__destroy_helperIT_EE5valueEvE4typeERS8_PSD_
FN:280,_ZNSt16allocator_traitsISaISt10shared_ptrIN5lgxZJ2IS3AAIEEEE10_S_destroyIS4_EENSt9enable_ifIXsrNS6_16__destroy_helperIT_EE5valueEvE4typeERS5_PSA_
FN:280,_ZNSt16allocator_traitsISaIN5lgxZJ2IS3SubEEE10_S_destroyIS2_EENSt9enable_ifIXsrNS4_16__destroy_helperIT_EE5valueEvE4typeERS3_PS8_
FN:280,_ZNSt16allocator_traitsISaISt23_Sp_counted_ptr_inplaceIN5lgxZJ2IS3SubESaIS3_ELN9__gnu_cxx12_Lock_policyE2EEEE10_S_destroyIS7_EENSt9enable_ifIXsrNS9_16__destroy_helperIT_EE5valueEvE4typeERS8_PSD_
FN:280,_ZNSt16allocator_traitsISaIN5lgxZJ2IS4MoveEEE10_S_destroyIS2_EENSt9enable_ifIXsrNS4_16__destroy_helperIT_EE5valueEvE4typeERS3_PS8_
FN:280,_ZNSt16allocator_traitsISaIN5lgxZJ2LA4EdgeEEE10_S_destroyIS2_EENSt9enable_ifIXsrNS4_16__destroy_helperIT_EE5valueEvE4typeERS3_PS8_
FN:280,_ZNSt16allocator_traitsISaIP7myTemp_EE10_S_destroyIS1_EENSt9enable_ifIXsrNS3_16__destroy_helperIT_EE5valueEvE4typeERS2_PS7_
FN:280,_ZNSt16allocator_traitsISaIiEE10_S_destroyIiEENSt9enable_ifIXsrNS1_16__destroy_helperIT_EE5valueEvE4typeERS0_PS5_
FN:305,_ZNSt16allocator_traitsISaIN5lgxZJ2LA4EdgeEEE11_S_max_sizeIKS3_EENSt9enable_ifIXsrNS4_16__maxsize_helperIT_EE5valueEmE4typeERS9_
FN:305,_ZNSt16allocator_traitsISaISt10shared_ptrIN5lgxZJ2IS3AAIEEEE11_S_max_sizeIKS5_EENSt9enable_ifIXsrNS6_16__maxsize_helperIT_EE5valueEmE4typeERSB_
FN:305,_ZNSt16allocator_traitsISaIiEE11_S_max_sizeIKS0_EENSt9enable_ifIXsrNS1_16__maxsize_helperIT_EE5valueEmE4typeERS6_
FN:337,_ZNSt16allocator_traitsISaIiEE9_S_selectIKS0_EENSt9enable_ifIXntsrNS1_15__select_helperIT_EE5valueES6_E4typeERS6_
FN:337,_ZNSt16allocator_traitsISaIN5lgxZJ2LA13DirectedGraph8RealNodeEEE9_S_selectIKS4_EENSt9enable_ifIXntsrNS5_15__select_helperIT_EE5valueESA_E4typeERSA_
FN:337,_ZNSt16allocator_traitsISaISt10shared_ptrIN5lgxZJ2IS3AAIEEEE9_S_selectIKS5_EENSt9enable_ifIXntsrNS6_15__select_helperIT_EE5valueESB_E4typeERSB_
FN:337,_ZNSt16allocator_traitsISaIN5lgxZJ2LA4EdgeEEE9_S_selectIKS3_EENSt9enable_ifIXntsrNS4_15__select_helperIT_EE5valueES9_E4typeERS9_
FN:350,_ZNSt16allocator_traitsISaISt23_Sp_counted_ptr_inplaceIN5lgxZJ2IS4MoveESaIS3_ELN9__gnu_cxx12_Lock_policyE2EEEE8allocateERS8_m
FN:350,_ZNSt16allocator_traitsISaISt23_Sp_counted_ptr_inplaceIN5lgxZJ2IS3SubESaIS3_ELN9__gnu_cxx12_Lock_policyE2EEEE8allocateERS8_m
FN:376,_ZNSt16allocator_traitsISaISt23_Sp_counted_ptr_inplaceIN5lgxZJ2IS4MoveESaIS3_ELN9__gnu_cxx12_Lock_policyE2EEEE10deallocateERS8_PS7_m
FN:376,_ZNSt16allocator_traitsISaISt23_Sp_counted_ptr_inplaceIN5lgxZJ2IS3SubESaIS3_ELN9__gnu_cxx12_Lock_policyE2EEEE10deallocateERS8_PS7_m
FN:391,_ZNSt16allocator_traitsISaIN5lgxZJ2LA4EdgeEEE9constructIS2_IRKS2_EEEDTcl12_S_constructfp_fp0_spcl7forwardIT0_Efp1_EEERS3_PT_DpOS8_
FN:391,_ZNSt16allocator_traitsISaISt13_Rb_tree_nodeISt4pairIKiP9myAccess_EEEE9constructIS6_IRKSt21piecewise_construct_tSt5tupleIIOiEESD_IIEEEEEDTcl12_S_constructfp_fp0_spcl7forwardIT0_Efp1_EEERS7_PT_DpOSH_
FN:391,_ZNSt16allocator_traitsISaIN5lgxZJ2IS3SubEEE9constructIS2_IRP7myTemp_iEEEDTcl12_S_constructfp_fp0_spcl7forwardIT0_Efp1_EEERS3_PT_DpOS9_
FN:391,_ZNSt16allocator_traitsISaIN5lgxZJ2IS4MoveEEE9constructIS2_IRP7myTemp_S7_EEEDTcl12_S_constructfp_fp0_spcl7forwardIT0_Efp1_EEERS3_PT_DpOS9_
FN:391,_ZNSt16allocator_traitsISaISt23_Sp_counted_ptr_inplaceIN5lgxZJ2IS4MoveESaIS3_ELN9__gnu_cxx12_Lock_policyE2EEEE9constructIS7_IKS4_RP7myTemp_SD_EEEDTcl12_S_constructfp_fp0_spcl7forwardIT0_Efp1_EEERS8_PT_DpOSF_
FN:391,_ZNSt16allocator_traitsISaIN5lgxZJ2IS4MoveEEE9constructIS2_IRP7myTemp_S8_NS2_11OperandTypeES9_EEEDTcl12_S_constructfp_fp0_spcl7forwardIT0_Efp1_EEERS3_PT_DpOSA_
FN:391,_ZNSt16allocator_traitsISaIiEE9constructIiIRKiEEEDTcl12_S_constructfp_fp0_spcl7forwardIT0_Efp1_EEERS0_PT_DpOS5_
FN:391,_ZNSt16allocator_traitsISaISt13_Rb_tree_nodeISt4pairIKijEEEE9constructIS4_IRKSt21piecewise_construct_tSt5tupleIIRS2_EESB_IIEEEEEDTcl12_S_constructfp_fp0_spcl7forwardIT0_Efp1_EEERS5_PT_DpOSF_
FN:391,_ZNSt16allocator_traitsISaISt13_Rb_tree_nodeISt4pairIKiP9myAccess_EEEE9constructIS6_IRKSt21piecewise_construct_tSt5tupleIIRS2_EESD_IIEEEEEDTcl12_S_constructfp_fp0_spcl7forwardIT0_Efp1_EEERS7_PT_DpOSH_
FN:391,_ZNSt16allocator_traitsISaISt23_Sp_counted_ptr_inplaceIN5lgxZJ2IS4MoveESaIS3_ELN9__gnu_cxx12_Lock_policyE2EEEE9constructIS7_IKS4_RP7myTemp_SE_NS3_11OperandTypeESF_EEEDTcl12_S_constructfp_fp0_spcl7forwardIT0_Efp1_EEERS8_PT_DpOSG_
FN:391,_ZNSt16allocator_traitsISaISt10shared_ptrIN5lgxZJ2IS3AAIEEEE9constructIS4_IRKS4_EEEDTcl12_S_constructfp_fp0_spcl7forwardIT0_Efp1_EEERS5_PT_DpOSA_
FN:391,_ZNSt16allocator_traitsISaIiEE9constructIiIiEEEDTcl12_S_constructfp_fp0_spcl7forwardIT0_Efp1_EEERS0_PT_DpOS3_
FN:391,_ZNSt16allocator_traitsISaISt13_Rb_tree_nodeISt4pairIKP7myTemp_S3_EEEE9constructIS6_IRKSt21piecewise_construct_tSt5tupleIIOS3_EESD_IIEEEEEDTcl12_S_constructfp_fp0_spcl7forwardIT0_Efp1_EEERS7_PT_DpOSH_
FN:391,_ZNSt16allocator_traitsISaISt23_Sp_counted_ptr_inplaceIN5lgxZJ2IS3SubESaIS3_ELN9__gnu_cxx12_Lock_policyE2EEEE9constructIS7_IKS4_RP7myTemp_iEEEDTcl12_S_constructfp_fp0_spcl7forwardIT0_Efp1_EEERS8_PT_DpOSF_
FN:391,_ZNSt16allocator_traitsISaISt10shared_ptrIN5lgxZJ2IS3AAIEEEE9constructIS4_IS4_EEEDTcl12_S_constructfp_fp0_spcl7forwardIT0_Efp1_EEERS5_PT_DpOS8_
FN:391,_ZNSt16allocator_traitsISaISt13_Rb_tree_nodeISt4pairIKijEEEE9constructIS4_IRKSt21piecewise_construct_tSt5tupleIIOiEESB_IIEEEEEDTcl12_S_constructfp_fp0_spcl7forwardIT0_Efp1_EEERS5_PT_DpOSF_
FN:391,_ZNSt16allocator_traitsISaISt13_Rb_tree_nodeISt4pairIKiP7myTemp_EEEE9constructIS6_IRKSt21piecewise_construct_tSt5tupleIIRS2_EESD_IIEEEEEDTcl12_S_constructfp_fp0_spcl7forwardIT0_Efp1_EEERS7_PT_DpOSH_
FN:391,_ZNSt16allocator_traitsISaISt13_Rb_tree_nodeISt4pairIKiSt6vectorIiSaIiEEEEEE9constructIS7_IRKSt21piecewise_construct_tSt5tupleIIRS2_EESE_IIEEEEEDTcl12_S_constructfp_fp0_spcl7forwardIT0_Efp1_EEERS8_PT_DpOSI_
FN:404,_ZNSt16allocator_traitsISaISt10shared_ptrIN5lgxZJ2IS3AAIEEEE7destroyIS4_EEvRS5_PT_
FN:404,_ZNSt16allocator_traitsISaIN5lgxZJ2LA4EdgeEEE7destroyIS2_EEvRS3_PT_
FN:404,_ZNSt16allocator_traitsISaIiEE7destroyIiEEvRS0_PT_
FN:404,_ZNSt16allocator_traitsISaIN5lgxZJ2IS3SubEEE7destroyIS2_EEvRS3_PT_
FN:404,_ZNSt16allocator_traitsISaIP7myTemp_EE7destroyIS1_EEvRS2_PT_
FN:404,_ZNSt16allocator_traitsISaIN5lgxZJ2IS4MoveEEE7destroyIS2_EEvRS3_PT_
FN:404,_ZNSt16allocator_traitsISaISt23_Sp_counted_ptr_inplaceIN5lgxZJ2IS3SubESaIS3_ELN9__gnu_cxx12_Lock_policyE2EEEE7destroyIS7_EEvRS8_PT_
FN:404,_ZNSt16allocator_traitsISaISt23_Sp_counted_ptr_inplaceIN5lgxZJ2IS4MoveESaIS3_ELN9__gnu_cxx12_Lock_policyE2EEEE7destroyIS7_EEvRS8_PT_
FN:415,_ZNSt16allocator_traitsISaISt10shared_ptrIN5lgxZJ2IS3AAIEEEE8max_sizeERKS5_
FN:415,_ZNSt16allocator_traitsISaIN5lgxZJ2LA4EdgeEEE8max_sizeERKS3_
FN:415,_ZNSt16allocator_traitsISaIiEE8max_sizeERKS0_
FN:427,_ZNSt16allocator_traitsISaIN5lgxZJ2LA4EdgeEEE37select_on_container_copy_constructionERKS3_
FN:427,_ZNSt16allocator_traitsISaIN5lgxZJ2LA13DirectedGraph8RealNodeEEE37select_on_container_copy_constructionERKS4_
FN:427,_ZNSt16allocator_traitsISaIiEE37select_on_container_copy_constructionERKS0_
FN:427,_ZNSt16allocator_traitsISaISt10shared_ptrIN5lgxZJ2IS3AAIEEEE37select_on_container_copy_constructionERKS5_
FN:459,_ZSt18__do_alloc_on_copyISaISt10shared_ptrIN5lgxZJ2IS3AAIEEEEvRT_RKS6_St17integral_constantIbLb0EE
FN:459,_ZSt18__do_alloc_on_copyISaIiEEvRT_RKS1_St17integral_constantIbLb0EE
FN:463,_ZSt15__alloc_on_copyISaIiEEvRT_RKS1_
FN:463,_ZSt15__alloc_on_copyISaISt10shared_ptrIN5lgxZJ2IS3AAIEEEEvRT_RKS6_
FN:478,_ZSt18__do_alloc_on_moveISaIN5lgxZJ2LA13DirectedGraph8RealNodeEEEvRT_S6_St17integral_constantIbLb1EE
FN:478,_ZSt18__do_alloc_on_moveISaISt6vectorIP7myTemp_SaIS2_EEEEvRT_S7_St17integral_constantIbLb1EE
FN:478,_ZSt18__do_alloc_on_moveISaISt10shared_ptrIN5lgxZJ2IS3AAIEEEEvRT_S7_St17integral_constantIbLb1EE
FN:478,_ZSt18__do_alloc_on_moveISaIP7myTemp_EEvRT_S4_St17integral_constantIbLb1EE
FN:478,_ZSt18__do_alloc_on_moveISaIN5lgxZJ2LA4EdgeEEEvRT_S5_St17integral_constantIbLb1EE
FN:486,_ZSt15__alloc_on_moveISaIN5lgxZJ2LA13DirectedGraph8RealNodeEEEvRT_S6_
FN:486,_ZSt15__alloc_on_moveISaISt6vectorIP7myTemp_SaIS2_EEEEvRT_S7_
FN:486,_ZSt15__alloc_on_moveISaIN5lgxZJ2LA4EdgeEEEvRT_S5_
FN:486,_ZSt15__alloc_on_moveISaIP7myTemp_EEvRT_S4_
FN:486,_ZSt15__alloc_on_moveISaISt10shared_ptrIN5lgxZJ2IS3AAIEEEEvRT_S7_
FN:501,_ZSt18__do_alloc_on_swapISaISt10shared_ptrIN5lgxZJ2IS3AAIEEEEvRT_S7_St17integral_constantIbLb0EE
FN:501,_ZSt18__do_alloc_on_swapISaIN5lgxZJ2LA4EdgeEEEvRT_S5_St17integral_constantIbLb0EE
FN:505,_ZSt15__alloc_on_swapISaIN5lgxZJ2LA4EdgeEEEvRT_S5_
FN:505,_ZSt15__alloc_on_swapISaISt10shared_ptrIN5lgxZJ2IS3AAIEEEEvRT_S7_
FNDA:0,_ZNSt16allocator_traitsISaIN5lgxZJ2IS3SubEEE12_S_constructIS2_IRP7myTemp_iEEENSt9enable_ifIXsrNS4_18__construct_helperIT_IDpT0_EEE5valueEvE4typeERS3_PSB_DpOSC_
FNDA:0,_ZNSt16allocator_traitsISaIN5lgxZJ2IS4MoveEEE12_S_constructIS2_IRP7myTemp_S7_EEENSt9enable_ifIXsrNS4_18__construct_helperIT_IDpT0_EEE5valueEvE4typeERS3_PSB_DpOSC_
FNDA:0,_ZNSt16allocator_traitsISaIN5lgxZJ2IS4MoveEEE12_S_constructIS2_IRP7myTemp_S8_NS2_11OperandTypeES9_EEENSt9enable_ifIXsrNS4_18__construct_helperIT_IDpT0_EEE5valueEvE4typeERS3_PSC_DpOSD_
FNDA:0,_ZNSt16allocator_traitsISaISt23_Sp_counted_ptr_inplaceIN5lgxZJ2IS3SubESaIS3_ELN9__gnu_cxx12_Lock_policyE2EEEE12_S_constructIS7_IKS4_RP7myTemp_iEEENSt9enable_ifIXsrNS9_18__construct_helperIT_IDpT0_EEE5valueEvE4typeERS8_PSH_DpOSI_
FNDA:0,_ZNSt16allocator_traitsISaISt23_Sp_counted_ptr_inplaceIN5lgxZJ2IS4MoveESaIS3_ELN9__gnu_cxx12_Lock_policyE2EEEE12_S_constructIS7_IKS4_RP7myTemp_SD_EEENSt9enable_ifIXsrNS9_18__construct_helperIT_IDpT0_EEE5valueEvE4typeERS8_PSH_DpOSI_
FNDA:0,_ZNSt16allocator_traitsISaISt23_Sp_counted_ptr_inplaceIN5lgxZJ2IS4MoveESaIS3_ELN9__gnu_cxx12_Lock_policyE2EEEE12_S_constructIS7_IKS4_RP7myTemp_SE_NS3_11OperandTypeESF_EEENSt9enable_ifIXsrNS9_18__construct_helperIT_IDpT0_EEE5valueEvE4typeERS8_PSI_DpOSJ_
FNDA:0,_ZNSt16allocator_traitsISaISt13_Rb_tree_nodeISt4pairIKP7myTemp_S3_EEEE12_S_constructIS6_IRKSt21piecewise_construct_tSt5tupleIIOS3_EESD_IIEEEEENSt9enable_ifIXsrNS8_18__construct_helperIT_IDpT0_EEE5valueEvE4typeERS7_PSJ_DpOSK_
FNDA:0,_ZNSt16allocator_traitsISaISt13_Rb_tree_nodeISt4pairIKiP9myAccess_EEEE12_S_constructIS6_IRKSt21piecewise_construct_tSt5tupleIIOiEESD_IIEEEEENSt9enable_ifIXsrNS8_18__construct_helperIT_IDpT0_EEE5valueEvE4typeERS7_PSJ_DpOSK_
FNDA:0,_ZNSt16allocator_traitsISaISt13_Rb_tree_nodeISt4pairIKiP9myAccess_EEEE12_S_constructIS6_IRKSt21piecewise_construct_tSt5tupleIIRS2_EESD_IIEEEEENSt9enable_ifIXsrNS8_18__construct_helperIT_IDpT0_EEE5valueEvE4typeERS7_PSJ_DpOSK_
FNDA:82,_ZNSt16allocator_traitsISaISt13_Rb_tree_nodeISt4pairIKiP7myTemp_EEEE12_S_constructIS6_IRKSt21piecewise_construct_tSt5tupleIIRS2_EESD_IIEEEEENSt9enable_ifIXsrNS8_18__construct_helperIT_IDpT0_EEE5valueEvE4typeERS7_PSJ_DpOSK_
FNDA:0,_ZNSt16allocator_traitsISaISt13_Rb_tree_nodeISt4pairIKijEEEE12_S_constructIS4_IRKSt21piecewise_construct_tSt5tupleIIOiEESB_IIEEEEENSt9enable_ifIXsrNS6_18__construct_helperIT_IDpT0_EEE5valueEvE4typeERS5_PSH_DpOSI_
FNDA:93,_ZNSt16allocator_traitsISaISt13_Rb_tree_nodeISt4pairIKiSt6vectorIiSaIiEEEEEE12_S_constructIS7_IRKSt21piecewise_construct_tSt5tupleIIRS2_EESE_IIEEEEENSt9enable_ifIXsrNS9_18__construct_helperIT_IDpT0_EEE5valueEvE4typeERS8_PSK_DpOSL_
FNDA:122,_ZNSt16allocator_traitsISaISt13_Rb_tree_nodeISt4pairIKijEEEE12_S_constructIS4_IRKSt21piecewise_construct_tSt5tupleIIRS2_EESB_IIEEEEENSt9enable_ifIXsrNS6_18__construct_helperIT_IDpT0_EEE5valueEvE4typeERS5_PSH_DpOSI_
FNDA:0,_ZNSt16allocator_traitsISaISt10shared_ptrIN5lgxZJ2IS3AAIEEEE12_S_constructIS4_IS4_EEENSt9enable_ifIXsrNS6_18__construct_helperIT_IDpT0_EEE5valueEvE4typeERS5_PSA_DpOSB_
FNDA:859,_ZNSt16allocator_traitsISaIiEE12_S_constructIiIiEEENSt9enable_ifIXsrNS1_18__construct_helperIT_IDpT0_EEE5valueEvE4typeERS0_PS5_DpOS6_
FNDA:0,_ZNSt16allocator_traitsISaISt10shared_ptrIN5lgxZJ2IS3AAIEEEE12_S_constructIS4_IRKS4_EEENSt9enable_ifIXsrNS6_18__construct_helperIT_IDpT0_EEE5valueEvE4typeERS5_PSC_DpOSD_
FNDA:77,_ZNSt16allocator_traitsISaIN5lgxZJ2LA4EdgeEEE12_S_constructIS2_IRKS2_EEENSt9enable_ifIXsrNS4_18__construct_helperIT_IDpT0_EEE5valueEvE4typeERS3_PSA_DpOSB_
FNDA:1762,_ZNSt16allocator_traitsISaIiEE12_S_constructIiIRKiEEENSt9enable_ifIXsrNS1_18__construct_helperIT_IDpT0_EEE5valueEvE4typeERS0_PS7_DpOS8_
FNDA:0,_ZNSt16allocator_traitsISaISt23_Sp_counted_ptr_inplaceIN5lgxZJ2IS4MoveESaIS3_ELN9__gnu_cxx12_Lock_policyE2EEEE10_S_destroyIS7_EENSt9enable_ifIXsrNS9_16__destroy_helperIT_EE5valueEvE4typeERS8_PSD_
FNDA:0,_ZNSt16allocator_traitsISaIN5lgxZJ2IS4MoveEEE10_S_destroyIS2_EENSt9enable_ifIXsrNS4_16__destroy_helperIT_EE5valueEvE4typeERS3_PS8_
FNDA:0,_ZNSt16allocator_traitsISaISt23_Sp_counted_ptr_inplaceIN5lgxZJ2IS3SubESaIS3_ELN9__gnu_cxx12_Lock_policyE2EEEE10_S_destroyIS7_EENSt9enable_ifIXsrNS9_16__destroy_helperIT_EE5valueEvE4typeERS8_PSD_
FNDA:0,_ZNSt16allocator_traitsISaIN5lgxZJ2IS3SubEEE10_S_destroyIS2_EENSt9enable_ifIXsrNS4_16__destroy_helperIT_EE5valueEvE4typeERS3_PS8_
FNDA:0,_ZNSt16allocator_traitsISaISt10shared_ptrIN5lgxZJ2IS3AAIEEEE10_S_destroyIS4_EENSt9enable_ifIXsrNS6_16__destroy_helperIT_EE5valueEvE4typeERS5_PSA_
FNDA:46,_ZNSt16allocator_traitsISaIP7myTemp_EE10_S_destroyIS1_EENSt9enable_ifIXsrNS3_16__destroy_helperIT_EE5valueEvE4typeERS2_PS7_
FNDA:35,_ZNSt16allocator_traitsISaIN5lgxZJ2LA4EdgeEEE10_S_destroyIS2_EENSt9enable_ifIXsrNS4_16__destroy_helperIT_EE5valueEvE4typeERS3_PS8_
FNDA:127,_ZNSt16allocator_traitsISaIiEE10_S_destroyIiEENSt9enable_ifIXsrNS1_16__destroy_helperIT_EE5valueEvE4typeERS0_PS5_
FNDA:0,_ZNSt16allocator_traitsISaISt10shared_ptrIN5lgxZJ2IS3AAIEEEE11_S_max_sizeIKS5_EENSt9enable_ifIXsrNS6_16__maxsize_helperIT_EE5valueEmE4typeERSB_
FNDA:482,_ZNSt16allocator_traitsISaIN5lgxZJ2LA4EdgeEEE11_S_max_sizeIKS3_EENSt9enable_ifIXsrNS4_16__maxsize_helperIT_EE5valueEmE4typeERS9_
FNDA:4256,_ZNSt16allocator_traitsISaIiEE11_S_max_sizeIKS0_EENSt9enable_ifIXsrNS1_16__maxsize_helperIT_EE5valueEmE4typeERS6_
FNDA:403,_ZNSt16allocator_traitsISaIN5lgxZJ2LA4EdgeEEE9_S_selectIKS3_EENSt9enable_ifIXntsrNS4_15__select_helperIT_EE5valueES9_E4typeERS9_
FNDA:388,_ZNSt16allocator_traitsISaIN5lgxZJ2LA13DirectedGraph8RealNodeEEE9_S_selectIKS4_EENSt9enable_ifIXntsrNS5_15__select_helperIT_EE5valueESA_E4typeERSA_
FNDA:11460,_ZNSt16allocator_traitsISaIiEE9_S_selectIKS0_EENSt9enable_ifIXntsrNS1_15__select_helperIT_EE5valueES6_E4typeERS6_
FNDA:90,_ZNSt16allocator_traitsISaISt10shared_ptrIN5lgxZJ2IS3AAIEEEE9_S_selectIKS5_EENSt9enable_ifIXntsrNS6_15__select_helperIT_EE5valueESB_E4typeERSB_
FNDA:0,_ZNSt16allocator_traitsISaISt23_Sp_counted_ptr_inplaceIN5lgxZJ2IS3SubESaIS3_ELN9__gnu_cxx12_Lock_policyE2EEEE8allocateERS8_m
FNDA:0,_ZNSt16allocator_traitsISaISt23_Sp_counted_ptr_inplaceIN5lgxZJ2IS4MoveESaIS3_ELN9__gnu_cxx12_Lock_policyE2EEEE8allocateERS8_m
FNDA:0,_ZNSt16allocator_traitsISaISt23_Sp_counted_ptr_inplaceIN5lgxZJ2IS3SubESaIS3_ELN9__gnu_cxx12_Lock_policyE2EEEE10deallocateERS8_PS7_m
FNDA:0,_ZNSt16allocator_traitsISaISt23_Sp_counted_ptr_inplaceIN5lgxZJ2IS4MoveESaIS3_ELN9__gnu_cxx12_Lock_policyE2EEEE10deallocateERS8_PS7_m
FNDA:0,_ZNSt16allocator_traitsISaIN5lgxZJ2IS3SubEEE9constructIS2_IRP7myTemp_iEEEDTcl12_S_constructfp_fp0_spcl7forwardIT0_Efp1_EEERS3_PT_DpOS9_
FNDA:0,_ZNSt16allocator_traitsISaIN5lgxZJ2IS4MoveEEE9constructIS2_IRP7myTemp_S7_EEEDTcl12_S_constructfp_fp0_spcl7forwardIT0_Efp1_EEERS3_PT_DpOS9_
FNDA:0,_ZNSt16allocator_traitsISaIN5lgxZJ2IS4MoveEEE9constructIS2_IRP7myTemp_S8_NS2_11OperandTypeES9_EEEDTcl12_S_constructfp_fp0_spcl7forwardIT0_Efp1_EEERS3_PT_DpOSA_
FNDA:0,_ZNSt16allocator_traitsISaISt23_Sp_counted_ptr_inplaceIN5lgxZJ2IS3SubESaIS3_ELN9__gnu_cxx12_Lock_policyE2EEEE9constructIS7_IKS4_RP7myTemp_iEEEDTcl12_S_constructfp_fp0_spcl7forwardIT0_Efp1_EEERS8_PT_DpOSF_
FNDA:0,_ZNSt16allocator_traitsISaISt23_Sp_counted_ptr_inplaceIN5lgxZJ2IS4MoveESaIS3_ELN9__gnu_cxx12_Lock_policyE2EEEE9constructIS7_IKS4_RP7myTemp_SD_EEEDTcl12_S_constructfp_fp0_spcl7forwardIT0_Efp1_EEERS8_PT_DpOSF_
FNDA:0,_ZNSt16allocator_traitsISaISt23_Sp_counted_ptr_inplaceIN5lgxZJ2IS4MoveESaIS3_ELN9__gnu_cxx12_Lock_policyE2EEEE9constructIS7_IKS4_RP7myTemp_SE_NS3_11OperandTypeESF_EEEDTcl12_S_constructfp_fp0_spcl7forwardIT0_Efp1_EEERS8_PT_DpOSG_
FNDA:0,_ZNSt16allocator_traitsISaISt13_Rb_tree_nodeISt4pairIKP7myTemp_S3_EEEE9constructIS6_IRKSt21piecewise_construct_tSt5tupleIIOS3_EESD_IIEEEEEDTcl12_S_constructfp_fp0_spcl7forwardIT0_Efp1_EEERS7_PT_DpOSH_
FNDA:0,_ZNSt16allocator_traitsISaISt13_Rb_tree_nodeISt4pairIKiP9myAccess_EEEE9constructIS6_IRKSt21piecewise_construct_tSt5tupleIIOiEESD_IIEEEEEDTcl12_S_constructfp_fp0_spcl7forwardIT0_Efp1_EEERS7_PT_DpOSH_
FNDA:0,_ZNSt16allocator_traitsISaISt13_Rb_tree_nodeISt4pairIKiP9myAccess_EEEE9constructIS6_IRKSt21piecewise_construct_tSt5tupleIIRS2_EESD_IIEEEEEDTcl12_S_constructfp_fp0_spcl7forwardIT0_Efp1_EEERS7_PT_DpOSH_
FNDA:82,_ZNSt16allocator_traitsISaISt13_Rb_tree_nodeISt4pairIKiP7myTemp_EEEE9constructIS6_IRKSt21piecewise_construct_tSt5tupleIIRS2_EESD_IIEEEEEDTcl12_S_constructfp_fp0_spcl7forwardIT0_Efp1_EEERS7_PT_DpOSH_
FNDA:0,_ZNSt16allocator_traitsISaISt13_Rb_tree_nodeISt4pairIKijEEEE9constructIS4_IRKSt21piecewise_construct_tSt5tupleIIOiEESB_IIEEEEEDTcl12_S_constructfp_fp0_spcl7forwardIT0_Efp1_EEERS5_PT_DpOSF_
FNDA:93,_ZNSt16allocator_traitsISaISt13_Rb_tree_nodeISt4pairIKiSt6vectorIiSaIiEEEEEE9constructIS7_IRKSt21piecewise_construct_tSt5tupleIIRS2_EESE_IIEEEEEDTcl12_S_constructfp_fp0_spcl7forwardIT0_Efp1_EEERS8_PT_DpOSI_
FNDA:122,_ZNSt16allocator_traitsISaISt13_Rb_tree_nodeISt4pairIKijEEEE9constructIS4_IRKSt21piecewise_construct_tSt5tupleIIRS2_EESB_IIEEEEEDTcl12_S_constructfp_fp0_spcl7forwardIT0_Efp1_EEERS5_PT_DpOSF_
FNDA:0,_ZNSt16allocator_traitsISaISt10shared_ptrIN5lgxZJ2IS3AAIEEEE9constructIS4_IS4_EEEDTcl12_S_constructfp_fp0_spcl7forwardIT0_Efp1_EEERS5_PT_DpOS8_
FNDA:859,_ZNSt16allocator_traitsISaIiEE9constructIiIiEEEDTcl12_S_constructfp_fp0_spcl7forwardIT0_Efp1_EEERS0_PT_DpOS3_
FNDA:0,_ZNSt16allocator_traitsISaISt10shared_ptrIN5lgxZJ2IS3AAIEEEE9constructIS4_IRKS4_EEEDTcl12_S_constructfp_fp0_spcl7forwardIT0_Efp1_EEERS5_PT_DpOSA_
FNDA:77,_ZNSt16allocator_traitsISaIN5lgxZJ2LA4EdgeEEE9constructIS2_IRKS2_EEEDTcl12_S_constructfp_fp0_spcl7forwardIT0_Efp1_EEERS3_PT_DpOS8_
FNDA:1762,_ZNSt16allocator_traitsISaIiEE9constructIiIRKiEEEDTcl12_S_constructfp_fp0_spcl7forwardIT0_Efp1_EEERS0_PT_DpOS5_
FNDA:0,_ZNSt16allocator_traitsISaISt23_Sp_counted_ptr_inplaceIN5lgxZJ2IS4MoveESaIS3_ELN9__gnu_cxx12_Lock_policyE2EEEE7destroyIS7_EEvRS8_PT_
FNDA:0,_ZNSt16allocator_traitsISaIN5lgxZJ2IS4MoveEEE7destroyIS2_EEvRS3_PT_
FNDA:0,_ZNSt16allocator_traitsISaISt23_Sp_counted_ptr_inplaceIN5lgxZJ2IS3SubESaIS3_ELN9__gnu_cxx12_Lock_policyE2EEEE7destroyIS7_EEvRS8_PT_
FNDA:0,_ZNSt16allocator_traitsISaIN5lgxZJ2IS3SubEEE7destroyIS2_EEvRS3_PT_
FNDA:0,_ZNSt16allocator_traitsISaISt10shared_ptrIN5lgxZJ2IS3AAIEEEE7destroyIS4_EEvRS5_PT_
FNDA:46,_ZNSt16allocator_traitsISaIP7myTemp_EE7destroyIS1_EEvRS2_PT_
FNDA:35,_ZNSt16allocator_traitsISaIN5lgxZJ2LA4EdgeEEE7destroyIS2_EEvRS3_PT_
FNDA:127,_ZNSt16allocator_traitsISaIiEE7destroyIiEEvRS0_PT_
FNDA:0,_ZNSt16allocator_traitsISaISt10shared_ptrIN5lgxZJ2IS3AAIEEEE8max_sizeERKS5_
FNDA:482,_ZNSt16allocator_traitsISaIN5lgxZJ2LA4EdgeEEE8max_sizeERKS3_
FNDA:4256,_ZNSt16allocator_traitsISaIiEE8max_sizeERKS0_
FNDA:403,_ZNSt16allocator_traitsISaIN5lgxZJ2LA4EdgeEEE37select_on_container_copy_constructionERKS3_
FNDA:388,_ZNSt16allocator_traitsISaIN5lgxZJ2LA13DirectedGraph8RealNodeEEE37select_on_container_copy_constructionERKS4_
FNDA:11460,_ZNSt16allocator_traitsISaIiEE37select_on_container_copy_constructionERKS0_
FNDA:90,_ZNSt16allocator_traitsISaISt10shared_ptrIN5lgxZJ2IS3AAIEEEE37select_on_container_copy_constructionERKS5_
FNDA:0,_ZSt18__do_alloc_on_copyISaIiEEvRT_RKS1_St17integral_constantIbLb0EE
FNDA:0,_ZSt18__do_alloc_on_copyISaISt10shared_ptrIN5lgxZJ2IS3AAIEEEEvRT_RKS6_St17integral_constantIbLb0EE
FNDA:0,_ZSt15__alloc_on_copyISaIiEEvRT_RKS1_
FNDA:0,_ZSt15__alloc_on_copyISaISt10shared_ptrIN5lgxZJ2IS3AAIEEEEvRT_RKS6_
FNDA:581,_ZSt18__do_alloc_on_moveISaIP7myTemp_EEvRT_S4_St17integral_constantIbLb1EE
FNDA:30,_ZSt18__do_alloc_on_moveISaISt6vectorIP7myTemp_SaIS2_EEEEvRT_S7_St17integral_constantIbLb1EE
FNDA:45,_ZSt18__do_alloc_on_moveISaIN5lgxZJ2LA4EdgeEEEvRT_S5_St17integral_constantIbLb1EE
FNDA:30,_ZSt18__do_alloc_on_moveISaIN5lgxZJ2LA13DirectedGraph8RealNodeEEEvRT_S6_St17integral_constantIbLb1EE
FNDA:15,_ZSt18__do_alloc_on_moveISaISt10shared_ptrIN5lgxZJ2IS3AAIEEEEvRT_S7_St17integral_constantIbLb1EE
FNDA:581,_ZSt15__alloc_on_moveISaIP7myTemp_EEvRT_S4_
FNDA:30,_ZSt15__alloc_on_moveISaISt6vectorIP7myTemp_SaIS2_EEEEvRT_S7_
FNDA:45,_ZSt15__alloc_on_moveISaIN5lgxZJ2LA4EdgeEEEvRT_S5_
FNDA:30,_ZSt15__alloc_on_moveISaIN5lgxZJ2LA13DirectedGraph8RealNodeEEEvRT_S6_
FNDA:15,_ZSt15__alloc_on_moveISaISt10shared_ptrIN5lgxZJ2IS3AAIEEEEvRT_S7_
FNDA:0,_ZSt18__do_alloc_on_swapISaISt10shared_ptrIN5lgxZJ2IS3AAIEEEEvRT_S7_St17integral_constantIbLb0EE
FNDA:32,_ZSt18__do_alloc_on_swapISaIN5lgxZJ2LA4EdgeEEEvRT_S5_St17integral_constantIbLb0EE
FNDA:0,_ZSt15__alloc_on_swapISaISt10shared_ptrIN5lgxZJ2IS3AAIEEEEvRT_S7_
FNDA:32,_ZSt15__alloc_on_swapISaIN5lgxZJ2LA4EdgeEEEvRT_S5_
FNF:88
FNH:42
DA:253,2995
DA:254,2995
DA:280,208
DA:281,208
DA:305,4738
DA:306,4738
DA:337,12341
DA:338,12341
DA:350,0
DA:351,0
DA:376,0
DA:377,0
DA:391,2995
DA:393,2995
DA:404,208
DA:405,208
DA:415,4738
DA:416,4738
DA:427,12341
DA:428,12341
DA:459,0
DA:460,0
DA:463,0
DA:467,0
DA:468,0
DA:478,701
DA:479,701
DA:486,701
DA:490,701
DA:491,701
DA:501,32
DA:502,32
DA:505,32
DA:509,32
DA:510,32
LF:35
LH:26
end_of_record
SF:/usr/include/c++/4.8/bits/allocator.h
FN:113,_ZNSaISt13_Rb_tree_nodeISt4pairIKiP7myTemp_EEEC2Ev
FN:113,_ZNSaIN5lgxZJ2LA4EdgeEEC2Ev
FN:113,_ZNSaIiEC2Ev
FN:113,_ZNSaISt13_Rb_tree_nodeISt4pairIKijEEEC2Ev
FN:113,_ZNSaIP7myTemp_EC2Ev
FN:113,_ZNSaIN5lgxZJ2IS3SubEEC2Ev
FN:113,_ZNSaISt10shared_ptrIN5lgxZJ2IS3AAIEEEC2Ev
FN:113,_ZNSaISt13_Rb_tree_nodeISt4pairIKP7myTemp_S2_EEEC2Ev
FN:113,_ZNSaISt13_Rb_tree_nodeISt4pairIKiP9myAccess_EEEC2Ev
FN:113,_ZNSaIN5lgxZJ2IS4MoveEEC2Ev
FN:113,_ZNSaISt13_Rb_tree_nodeISt4pairIKiSt6vectorIiSaIiEEEEEC2Ev
FN:115,_ZNSaIN5lgxZJ2IS4MoveEEC2ERKS2_
FN:115,_ZNSaIN5lgxZJ2IS3SubEEC2ERKS2_
FN:115,_ZNSaISt6vectorIP7myTemp_SaIS1_EEEC2ERKS4_
FN:115,_ZNSaIN5lgxZJ2LA4EdgeEEC2ERKS2_
FN:115,_ZNSaIP7myTemp_EC2ERKS1_
FN:115,_ZNSaIiEC2ERKS_
FN:115,_ZNSaIN5lgxZJ2LA13DirectedGraph8RealNodeEEC2ERKS3_
FN:115,_ZNSaISt10shared_ptrIN5lgxZJ2IS3AAIEEEC2ERKS4_
FN:119,_ZNSaIPiEC2IiEERKSaIT_E
FN:119,_ZNSaISt23_Sp_counted_ptr_inplaceIN5lgxZJ2IS3SubESaIS2_ELN9__gnu_cxx12_Lock_policyE2EEEC2IS2_EERKSaIT_E
FN:119,_ZNSaISt23_Sp_counted_ptr_inplaceIN5lgxZJ2IS4MoveESaIS2_ELN9__gnu_cxx12_Lock_policyE2EEEC2IS2_EERKSaIT_E
FN:121,_ZNSaIN5lgxZJ2LA13DirectedGraph8RealNodeEED2Ev
FN:121,_ZNSaIiED2Ev
FN:121,_ZNSaISt13_Rb_tree_nodeISt4pairIKP7myTemp_S2_EEED2Ev
FN:121,_ZNSaISt23_Sp_counted_ptr_inplaceIN5lgxZJ2IS4MoveESaIS2_ELN9__gnu_cxx12_Lock_policyE2EEED2Ev
FN:121,_ZNSaIPiED2Ev
FN:121,_ZNSaIP7myTemp_ED2Ev
FN:121,_ZNSaIN5lgxZJ2LA4EdgeEED2Ev
FN:121,_ZNSaISt13_Rb_tree_nodeISt4pairIKP7myTemp_iEEED2Ev
FN:121,_ZNSaISt13_Rb_tree_nodeISt4pairIKiP7myTemp_EEED2Ev
FN:121,_ZNSaISt23_Sp_counted_ptr_inplaceIN5lgxZJ2IS3SubESaIS2_ELN9__gnu_cxx12_Lock_policyE2EEED2Ev
FN:121,_ZNSaISt6vectorIP7myTemp_SaIS1_EEED2Ev
FN:121,_ZNSaISt10shared_ptrIN5lgxZJ2IS3AAIEEED2Ev
FN:121,_ZNSaIN5lgxZJ2IS3SubEED2Ev
FN:121,_ZNSaISt13_Rb_tree_nodeISt4pairIKiSt6vectorIiSaIiEEEEED2Ev
FN:121,_ZNSaISt13_Rb_tree_nodeISt4pairIKijEEED2Ev
FN:121,_ZNSaIN5lgxZJ2IS4MoveEED2Ev
FN:121,_ZNSaISt13_Rb_tree_nodeISt4pairIKiP9myAccess_EEED2Ev
FN:143,_ZStneIiEbRKSaIT_ES3_
FN:143,_ZStneISt10shared_ptrIN5lgxZJ2IS3AAIEEEbRKSaIT_ES8_
FN:161,_ZNSt12__alloc_swapISaIiELb1EE8_S_do_itERS0_S2_
FN:161,_ZNSt12__alloc_swapISaISt13_Rb_tree_nodeISt4pairIKP7myTemp_iEEELb1EE8_S_do_itERS7_S9_
FNDA:15,_ZNSaISt13_Rb_tree_nodeISt4pairIKP7myTemp_S2_EEEC2Ev
FNDA:152,_ZNSaIN5lgxZJ2LA4EdgeEEC2Ev
FNDA:0,_ZNSaISt10shared_ptrIN5lgxZJ2IS3AAIEEEC2Ev
FNDA:30,_ZNSaISt13_Rb_tree_nodeISt4pairIKiSt6vectorIiSaIiEEEEEC2Ev
FNDA:15,_ZNSaISt13_Rb_tree_nodeISt4pairIKiP9myAccess_EEEC2Ev
FNDA:15,_ZNSaISt13_Rb_tree_nodeISt4pairIKiP7myTemp_EEEC2Ev
FNDA:15,_ZNSaISt13_Rb_tree_nodeISt4pairIKijEEEC2Ev
FNDA:2261,_ZNSaIiEC2Ev
FNDA:0,_ZNSaIN5lgxZJ2IS3SubEEC2Ev
FNDA:0,_ZNSaIN5lgxZJ2IS4MoveEEC2Ev
FNDA:3347,_ZNSaIP7myTemp_EC2Ev
FNDA:0,_ZNSaIN5lgxZJ2IS3SubEEC2ERKS2_
FNDA:0,_ZNSaIN5lgxZJ2IS4MoveEEC2ERKS2_
FNDA:5005,_ZNSaIP7myTemp_EC2ERKS1_
FNDA:120,_ZNSaISt6vectorIP7myTemp_SaIS1_EEEC2ERKS4_
FNDA:896,_ZNSaIN5lgxZJ2LA4EdgeEEC2ERKS2_
FNDA:896,_ZNSaIN5lgxZJ2LA13DirectedGraph8RealNodeEEC2ERKS3_
FNDA:22976,_ZNSaIiEC2ERKS_
FNDA:0,_ZNSaISt10shared_ptrIN5lgxZJ2IS3AAIEEEC2ERKS4_
FNDA:0,_ZNSaISt23_Sp_counted_ptr_inplaceIN5lgxZJ2IS3SubESaIS2_ELN9__gnu_cxx12_Lock_policyE2EEEC2IS2_EERKSaIT_E
FNDA:0,_ZNSaISt23_Sp_counted_ptr_inplaceIN5lgxZJ2IS4MoveESaIS2_ELN9__gnu_cxx12_Lock_policyE2EEEC2IS2_EERKSaIT_E
FNDA:0,_ZNSaIPiEC2IiEERKSaIT_E
FNDA:0,_ZNSaISt23_Sp_counted_ptr_inplaceIN5lgxZJ2IS3SubESaIS2_ELN9__gnu_cxx12_Lock_policyE2EEED2Ev
FNDA:0,_ZNSaISt23_Sp_counted_ptr_inplaceIN5lgxZJ2IS4MoveESaIS2_ELN9__gnu_cxx12_Lock_policyE2EEED2Ev
FNDA:0,_ZNSaIPiED2Ev
FNDA:0,_ZNSaISt6vectorIP7myTemp_SaIS1_EEED2Ev
FNDA:0,_ZNSaISt13_Rb_tree_nodeISt4pairIKP7myTemp_S2_EEED2Ev
FNDA:0,_ZNSaIN5lgxZJ2IS3SubEED2Ev
FNDA:0,_ZNSaIN5lgxZJ2IS4MoveEED2Ev
FNDA:0,_ZNSaIN5lgxZJ2LA4EdgeEED2Ev
FNDA:0,_ZNSaIN5lgxZJ2LA13DirectedGraph8RealNodeEED2Ev
FNDA:0,_ZNSaIiED2Ev
FNDA:0,_ZNSaISt13_Rb_tree_nodeISt4pairIKP7myTemp_iEEED2Ev
FNDA:0,_ZNSaISt10shared_ptrIN5lgxZJ2IS3AAIEEED2Ev
FNDA:0,_ZNSaISt13_Rb_tree_nodeISt4pairIKiSt6vectorIiSaIiEEEEED2Ev
FNDA:0,_ZNSaISt13_Rb_tree_nodeISt4pairIKiP9myAccess_EEED2Ev
FNDA:0,_ZNSaISt13_Rb_tree_nodeISt4pairIKiP7myTemp_EEED2Ev
FNDA:0,_ZNSaISt13_Rb_tree_nodeISt4pairIKijEEED2Ev
FNDA:0,_ZNSaIP7myTemp_ED2Ev
FNDA:0,_ZStneIiEbRKSaIT_ES3_
FNDA:0,_ZStneISt10shared_ptrIN5lgxZJ2IS3AAIEEEbRKSaIT_ES8_
FNDA:15,_ZNSt12__alloc_swapISaISt13_Rb_tree_nodeISt4pairIKP7myTemp_iEEELb1EE8_S_do_itERS7_S9_
FNDA:15,_ZNSt12__alloc_swapISaIiELb1EE8_S_do_itERS0_S2_
FNF:43
FNH:15
DA:113,5850
DA:115,29893
DA:116,29893
DA:119,0
DA:121,0
DA:143,0
DA:144,0
DA:161,30
LF:8
LH:4
end_of_record
SF:/usr/include/c++/4.8/bits/basic_string.h
FN:272,_ZNSs12_Alloc_hiderD2Ev
FNDA:0,_ZNSs12_Alloc_hiderD2Ev
FNF:1
FNH:0
DA:272,0
LF:1
LH:0
end_of_record
SF:/usr/include/c++/4.8/bits/char_traits.h
FN:258,_ZNSt11char_traitsIcE6lengthEPKc
FNDA:0,_ZNSt11char_traitsIcE6lengthEPKc
FNF:1
FNH:0
DA:258,0
DA:259,0
LF:2
LH:0
end_of_record
SF:/usr/include/c++/4.8/bits/deque.tcc
FN:438,_ZNSt5dequeIiSaIiEE16_M_push_back_auxIIRKiEEEvDpOT_
FN:504,_ZNSt5dequeIiSaIiEE15_M_pop_back_auxEv
FN:873,_ZNSt5dequeIiSaIiEE17_M_reallocate_mapEmb
FNDA:0,_ZNSt5dequeIiSaIiEE16_M_push_back_auxIIRKiEEEvDpOT_
FNDA:0,_ZNSt5dequeIiSaIiEE15_M_pop_back_auxEv
FNDA:0,_ZNSt5dequeIiSaIiEE17_M_reallocate_mapEmb
FNF:3
FNH:0
DA:438,0
DA:446,0
DA:447,0
DA:451,0
DA:452,0
DA:456,0
DA:458,0
DA:460,0
DA:462,0
DA:463,0
DA:465,0
DA:504,0
DA:507,0
DA:508,0
DA:509,0
DA:510,0
DA:511,0
DA:873,0
DA:877,0
DA:878,0
DA:881,0
DA:883,0
DA:885,0
DA:886,0
DA:887,0
DA:889,0
DA:891,0
DA:893,0
DA:899,0
DA:901,0
DA:902,0
DA:903,0
DA:904,0
DA:906,0
DA:907,0
DA:909,0
DA:910,0
DA:913,0
DA:914,0
DA:915,0
LF:40
LH:0
end_of_record
SF:/usr/include/c++/4.8/bits/move.h
FN:47,_ZSt11__addressofIN5lgxZJ2LA13DirectedGraph8RealNodeEEPT_RS4_
FN:47,_ZSt11__addressofIN5lgxZJ2LA4EdgeEEPT_RS3_
FN:47,_ZSt11__addressofISt10shared_ptrIN5lgxZJ2IS3AAIEEEPT_RS5_
FN:47,_ZSt11__addressofISt4pairIKiP7myTemp_EEPT_RS5_
FN:47,_ZSt11__addressofISt6vectorIP7myTemp_SaIS2_EEEPT_RS5_
FN:76,_ZSt7forwardIRPSt13_Rb_tree_nodeISt4pairIKP7myTemp_S3_EEEOT_RNSt16remove_referenceIS9_E4typeE
FN:76,_ZSt7forwardISt17_Rb_tree_iteratorISt4pairIKijEEEOT_RNSt16remove_referenceIS5_E4typeE
FN:76,_ZSt7forwardIRPSt13_Rb_tree_nodeISt4pairIKiSt6vectorIiSaIiEEEEEOT_RNSt16remove_referenceISA_E4typeE
FN:76,_ZSt7forwardIiEOT_RNSt16remove_referenceIS0_E4typeE
FN:76,_ZSt7forwardIRKSt10shared_ptrIN5lgxZJ2IS3AAIEEEOT_RNSt16remove_referenceIS7_E4typeE
FN:76,_ZSt7forwardIRP7myTemp_EOT_RNSt16remove_referenceIS3_E4typeE
FN:76,_ZSt7forwardIRSt10shared_ptrIN5lgxZJ2IS3AAIEEEOT_RNSt16remove_referenceIS6_E4typeE
FN:76,_ZSt7forwardIP7myTemp_EOT_RNSt16remove_referenceIS2_E4typeE
FN:76,_ZSt7forwardIN5lgxZJ2IS4Move11OperandTypeEEOT_RNSt16remove_referenceIS4_E4typeE
FN:76,_ZSt7forwardIKSaIN5lgxZJ2IS4MoveEEEOT_RNSt16remove_referenceIS5_E4typeE
FN:76,_ZSt7forwardIRPSt13_Rb_tree_nodeISt4pairIKiP7myTemp_EEEOT_RNSt16remove_referenceIS9_E4typeE
FN:76,_ZSt7forwardIRPSt13_Rb_tree_nodeISt4pairIKiP9myAccess_EEEOT_RNSt16remove_referenceIS9_E4typeE
FN:76,_ZSt7forwardISt5tupleIIOP7myTemp_EEEOT_RNSt16remove_referenceIS5_E4typeE
FN:76,_ZSt7forwardISt5tupleIIEEEOT_RNSt16remove_referenceIS2_E4typeE
FN:76,_ZSt7forwardIRKiEOT_RNSt16remove_referenceIS2_E4typeE
FN:76,_ZSt7forwardISt10shared_ptrIN5lgxZJ2IS3AAIEEEOT_RNSt16remove_referenceIS5_E4typeE
FN:76,_ZSt7forwardIRKN5lgxZJ2LA13DirectedGraph8RealNodeEEOT_RNSt16remove_referenceIS6_E4typeE
FN:76,_ZSt7forwardISt5tupleIIRKiEEEOT_RNSt16remove_referenceIS4_E4typeE
FN:76,_ZSt7forwardISt5tupleIIOiEEEOT_RNSt16remove_referenceIS3_E4typeE
FN:76,_ZSt7forwardIRKN5lgxZJ2LA4EdgeEEOT_RNSt16remove_referenceIS5_E4typeE
FN:76,_ZSt7forwardIRKSt21piecewise_construct_tEOT_RNSt16remove_referenceIS3_E4typeE
FN:76,_ZSt7forwardIOiEOT_RNSt16remove_referenceIS1_E4typeE
FN:76,_ZSt7forwardIN5lgxZJ2LA4EdgeEEOT_RNSt16remove_referenceIS3_E4typeE
FN:76,_ZSt7forwardIRPSt18_Rb_tree_node_baseEOT_RNSt16remove_referenceIS3_E4typeE
FN:76,_ZSt7forwardIOP7myTemp_EOT_RNSt16remove_referenceIS3_E4typeE
FN:76,_ZSt7forwardIRPSt13_Rb_tree_nodeISt4pairIKijEEEOT_RNSt16remove_referenceIS7_E4typeE
FN:76,_ZSt7forwardIKSaIN5lgxZJ2IS3SubEEEOT_RNSt16remove_referenceIS5_E4typeE
FN:101,_ZSt4moveIRPSt18_Rb_tree_node_baseEONSt16remove_referenceIT_E4typeEOS4_
FN:101,_ZSt4moveIRPSt10shared_ptrIN5lgxZJ2IS3AAIEEEONSt16remove_referenceIT_E4typeEOS8_
FN:101,_ZSt4moveIRSaISt10shared_ptrIN5lgxZJ2IS3AAIEEEEONSt16remove_referenceIT_E4typeEOS8_
FN:101,_ZSt4moveIRPN5lgxZJ2LA4EdgeEEONSt16remove_referenceIT_E4typeEOS6_
FN:101,_ZSt4moveIRSaIP7myTemp_EEONSt16remove_referenceIT_E4typeEOS5_
FN:101,_ZSt4moveIRKSaIN5lgxZJ2IS4MoveEEEONSt16remove_referenceIT_E4typeEOS7_
FN:101,_ZSt4moveIRPN5lgxZJ2LA13DirectedGraph8RealNodeEEONSt16remove_referenceIT_E4typeEOS7_
FN:101,_ZSt4moveIRSt5dequeIiSaIiEEEONSt16remove_referenceIT_E4typeEOS5_
FN:101,_ZSt4moveIRPP7myTemp_EONSt16remove_referenceIT_E4typeEOS5_
FN:101,_ZSt4moveIRSaIN5lgxZJ2LA13DirectedGraph8RealNodeEEEONSt16remove_referenceIT_E4typeEOS7_
FN:101,_ZSt4moveIRP7myTemp_EONSt16remove_referenceIT_E4typeEOS4_
FN:101,_ZSt4moveIRSaIiEEONSt16remove_referenceIT_E4typeEOS3_
FN:101,_ZSt4moveIRSt6vectorIN5lgxZJ2LA13DirectedGraph8RealNodeESaIS4_EEEONSt16remove_referenceIT_E4typeEOS9_
FN:101,_ZSt4moveIRSt6vectorIP7myTemp_SaIS2_EEEONSt16remove_referenceIT_E4typeEOS7_
FN:101,_ZSt4moveIRKSaIN5lgxZJ2IS3SubEEEONSt16remove_referenceIT_E4typeEOS7_
FN:101,_ZSt4moveIRSt10shared_ptrIN5lgxZJ2IS3AAIEEEONSt16remove_referenceIT_E4typeEOS7_
FN:101,_ZSt4moveIRPSt6vectorIP7myTemp_SaIS2_EEEONSt16remove_referenceIT_E4typeEOS8_
FN:101,_ZSt4moveIRSt6vectorISt10shared_ptrIN5lgxZJ2IS3AAIEESaIS5_EEEONSt16remove_referenceIT_E4typeEOSA_
FN:101,_ZSt4moveIRSt15_Deque_iteratorIiRiPiEEONSt16remove_referenceIT_E4typeEOS6_
FN:101,_ZSt4moveIRmEONSt16remove_referenceIT_E4typeEOS2_
FN:101,_ZSt4moveIRPPiEONSt16remove_referenceIT_E4typeEOS4_
FN:101,_ZSt4moveIRSt6vectorIN5lgxZJ2LA4EdgeESaIS3_EEEONSt16remove_referenceIT_E4typeEOS8_
FN:101,_ZSt4moveIRSt6vectorIS0_IP7myTemp_SaIS2_EESaIS4_EEEONSt16remove_referenceIT_E4typeEOS9_
FN:101,_ZSt4moveIRSt10shared_ptrIN5lgxZJ2IS3SubEEEONSt16remove_referenceIT_E4typeEOS7_
FN:101,_ZSt4moveIRiEONSt16remove_referenceIT_E4typeEOS2_
FN:101,_ZSt4moveIRSt4lessIP7myTemp_EEONSt16remove_referenceIT_E4typeEOS6_
FN:101,_ZSt4moveIRSaISt6vectorIP7myTemp_SaIS2_EEEEONSt16remove_referenceIT_E4typeEOS8_
FN:101,_ZSt4moveIRN5lgxZJ2LA4EdgeEEONSt16remove_referenceIT_E4typeEOS5_
FN:101,_ZSt4moveIRSt11_Tuple_implILm1EIEEEONSt16remove_referenceIT_E4typeEOS4_
FN:101,_ZSt4moveIRSaIN5lgxZJ2LA4EdgeEEEONSt16remove_referenceIT_E4typeEOS6_
FN:101,_ZSt4moveIRSt10shared_ptrIN5lgxZJ2IS4MoveEEEONSt16remove_referenceIT_E4typeEOS7_
FN:166,_ZSt4swapIPP7myTemp_EvRT_S4_
FN:166,_ZSt4swapIPN5lgxZJ2LA4EdgeEEvRT_S5_
FN:166,_ZSt4swapIPPiEvRT_S3_
FN:166,_ZSt4swapIPSt6vectorIP7myTemp_SaIS2_EEEvRT_S7_
FN:166,_ZSt4swapIPN5lgxZJ2LA13DirectedGraph8RealNodeEEvRT_S6_
FN:166,_ZSt4swapISt15_Deque_iteratorIiRiPiEEvRT_S5_
FN:166,_ZSt4swapIiEvRT_S1_
FN:166,_ZSt4swapISt4lessIP7myTemp_EEvRT_S5_
FN:166,_ZSt4swapIPSt10shared_ptrIN5lgxZJ2IS3AAIEEEvRT_S7_
FN:166,_ZSt4swapIPSt18_Rb_tree_node_baseEvRT_S3_
FN:166,_ZSt4swapImEvRT_S1_
FNDA:5856,_ZSt11__addressofIN5lgxZJ2LA4EdgeEEPT_RS3_
FNDA:0,_ZSt11__addressofISt6vectorIP7myTemp_SaIS2_EEEPT_RS5_
FNDA:0,_ZSt11__addressofIN5lgxZJ2LA13DirectedGraph8RealNodeEEPT_RS4_
FNDA:0,_ZSt11__addressofISt10shared_ptrIN5lgxZJ2IS3AAIEEEPT_RS5_
FNDA:164,_ZSt11__addressofISt4pairIKiP7myTemp_EEPT_RS5_
FNDA:2199,_ZSt7forwardIN5lgxZJ2LA4EdgeEEOT_RNSt16remove_referenceIS3_E4typeE
FNDA:0,_ZSt7forwardIKSaIN5lgxZJ2IS3SubEEEOT_RNSt16remove_referenceIS5_E4typeE
FNDA:0,_ZSt7forwardIKSaIN5lgxZJ2IS4MoveEEEOT_RNSt16remove_referenceIS5_E4typeE
FNDA:5621,_ZSt7forwardIRKN5lgxZJ2LA13DirectedGraph8RealNodeEEOT_RNSt16remove_referenceIS6_E4typeE
FNDA:0,_ZSt7forwardIRSt10shared_ptrIN5lgxZJ2IS3AAIEEEOT_RNSt16remove_referenceIS6_E4typeE
FNDA:0,_ZSt7forwardIRPSt13_Rb_tree_nodeISt4pairIKP7myTemp_S3_EEEOT_RNSt16remove_referenceIS9_E4typeE
FNDA:0,_ZSt7forwardIRPSt13_Rb_tree_nodeISt4pairIKiP9myAccess_EEEOT_RNSt16remove_referenceIS9_E4typeE
FNDA:30,_ZSt7forwardIRPSt13_Rb_tree_nodeISt4pairIKiP7myTemp_EEEOT_RNSt16remove_referenceIS9_E4typeE
FNDA:46,_ZSt7forwardIRPSt13_Rb_tree_nodeISt4pairIKiSt6vectorIiSaIiEEEEEOT_RNSt16remove_referenceISA_E4typeE
FNDA:34,_ZSt7forwardIRPSt13_Rb_tree_nodeISt4pairIKijEEEOT_RNSt16remove_referenceIS7_E4typeE
FNDA:134,_ZSt7forwardISt17_Rb_tree_iteratorISt4pairIKijEEEOT_RNSt16remove_referenceIS5_E4typeE
FNDA:0,_ZSt7forwardIRPSt18_Rb_tree_node_baseEOT_RNSt16remove_referenceIS3_E4typeE
FNDA:0,_ZSt7forwardISt5tupleIIOP7myTemp_EEEOT_RNSt16remove_referenceIS5_E4typeE
FNDA:0,_ZSt7forwardIOP7myTemp_EOT_RNSt16remove_referenceIS3_E4typeE
FNDA:0,_ZSt7forwardISt10shared_ptrIN5lgxZJ2IS3AAIEEEOT_RNSt16remove_referenceIS5_E4typeE
FNDA:0,_ZSt7forwardISt5tupleIIOiEEEOT_RNSt16remove_referenceIS3_E4typeE
FNDA:0,_ZSt7forwardIOiEOT_RNSt16remove_referenceIS1_E4typeE
FNDA:0,_ZSt7forwardISt5tupleIIEEEOT_RNSt16remove_referenceIS2_E4typeE
FNDA:1782,_ZSt7forwardISt5tupleIIRKiEEEOT_RNSt16remove_referenceIS4_E4typeE
FNDA:0,_ZSt7forwardIRKSt21piecewise_construct_tEOT_RNSt16remove_referenceIS3_E4typeE
FNDA:0,_ZSt7forwardIiEOT_RNSt16remove_referenceIS0_E4typeE
FNDA:0,_ZSt7forwardIP7myTemp_EOT_RNSt16remove_referenceIS2_E4typeE
FNDA:0,_ZSt7forwardIN5lgxZJ2IS4Move11OperandTypeEEOT_RNSt16remove_referenceIS4_E4typeE
FNDA:0,_ZSt7forwardIRP7myTemp_EOT_RNSt16remove_referenceIS3_E4typeE
FNDA:0,_ZSt7forwardIRKSt10shared_ptrIN5lgxZJ2IS3AAIEEEOT_RNSt16remove_referenceIS7_E4typeE
FNDA:5617,_ZSt7forwardIRKN5lgxZJ2LA4EdgeEEOT_RNSt16remove_referenceIS5_E4typeE
FNDA:7294,_ZSt7forwardIRKiEOT_RNSt16remove_referenceIS2_E4typeE
FNDA:904,_ZSt4moveIRN5lgxZJ2LA4EdgeEEONSt16remove_referenceIT_E4typeEOS5_
FNDA:0,_ZSt4moveIRKSaIN5lgxZJ2IS3SubEEEONSt16remove_referenceIT_E4typeEOS7_
FNDA:0,_ZSt4moveIRKSaIN5lgxZJ2IS4MoveEEEONSt16remove_referenceIT_E4typeEOS7_
FNDA:10458,_ZSt4moveIRPP7myTemp_EONSt16remove_referenceIT_E4typeEOS5_
FNDA:45,_ZSt4moveIRSt4lessIP7myTemp_EEONSt16remove_referenceIT_E4typeEOS6_
FNDA:0,_ZSt4moveIRPSt18_Rb_tree_node_baseEONSt16remove_referenceIT_E4typeEOS4_
FNDA:30,_ZSt4moveIRSaISt6vectorIP7myTemp_SaIS2_EEEEONSt16remove_referenceIT_E4typeEOS8_
FNDA:540,_ZSt4moveIRPSt6vectorIP7myTemp_SaIS2_EEEONSt16remove_referenceIT_E4typeEOS8_
FNDA:45,_ZSt4moveIRSaIN5lgxZJ2LA4EdgeEEEONSt16remove_referenceIT_E4typeEOS6_
FNDA:30,_ZSt4moveIRSaIN5lgxZJ2LA13DirectedGraph8RealNodeEEEONSt16remove_referenceIT_E4typeEOS7_
FNDA:540,_ZSt4moveIRPN5lgxZJ2LA13DirectedGraph8RealNodeEEONSt16remove_referenceIT_E4typeEOS7_
FNDA:15,_ZSt4moveIRSaISt10shared_ptrIN5lgxZJ2IS3AAIEEEEONSt16remove_referenceIT_E4typeEOS8_
FNDA:180,_ZSt4moveIRmEONSt16remove_referenceIT_E4typeEOS2_
FNDA:135,_ZSt4moveIRPPiEONSt16remove_referenceIT_E4typeEOS4_
FNDA:270,_ZSt4moveIRSt15_Deque_iteratorIiRiPiEEONSt16remove_referenceIT_E4typeEOS6_
FNDA:270,_ZSt4moveIRPSt10shared_ptrIN5lgxZJ2IS3AAIEEEONSt16remove_referenceIT_E4typeEOS8_
FNDA:1098,_ZSt4moveIRPN5lgxZJ2LA4EdgeEEONSt16remove_referenceIT_E4typeEOS6_
FNDA:581,_ZSt4moveIRSaIP7myTemp_EEONSt16remove_referenceIT_E4typeEOS5_
FNDA:0,_ZSt4moveIRSt11_Tuple_implILm1EIEEEONSt16remove_referenceIT_E4typeEOS4_
FNDA:60,_ZSt4moveIRSaIiEEONSt16remove_referenceIT_E4typeEOS3_
FNDA:0,_ZSt4moveIRP7myTemp_EONSt16remove_referenceIT_E4typeEOS4_
FNDA:0,_ZSt4moveIRSt10shared_ptrIN5lgxZJ2IS3SubEEEONSt16remove_referenceIT_E4typeEOS7_
FNDA:0,_ZSt4moveIRSt10shared_ptrIN5lgxZJ2IS3AAIEEEONSt16remove_referenceIT_E4typeEOS7_
FNDA:0,_ZSt4moveIRSt10shared_ptrIN5lgxZJ2IS4MoveEEEONSt16remove_referenceIT_E4typeEOS7_
FNDA:1035,_ZSt4moveIRiEONSt16remove_referenceIT_E4typeEOS2_
FNDA:581,_ZSt4moveIRSt6vectorIP7myTemp_SaIS2_EEEONSt16remove_referenceIT_E4typeEOS7_
FNDA:30,_ZSt4moveIRSt6vectorIS0_IP7myTemp_SaIS2_EESaIS4_EEEONSt16remove_referenceIT_E4typeEOS9_
FNDA:45,_ZSt4moveIRSt6vectorIN5lgxZJ2LA4EdgeESaIS3_EEEONSt16remove_referenceIT_E4typeEOS8_
FNDA:30,_ZSt4moveIRSt6vectorIN5lgxZJ2LA13DirectedGraph8RealNodeESaIS4_EEEONSt16remove_referenceIT_E4typeEOS9_
FNDA:15,_ZSt4moveIRSt6vectorISt10shared_ptrIN5lgxZJ2IS3AAIEESaIS5_EEEONSt16remove_referenceIT_E4typeEOSA_
FNDA:60,_ZSt4moveIRSt5dequeIiSaIiEEEONSt16remove_referenceIT_E4typeEOS5_
FNDA:0,_ZSt4swapIiEvRT_S1_
FNDA:3486,_ZSt4swapIPP7myTemp_EvRT_S4_
FNDA:15,_ZSt4swapISt4lessIP7myTemp_EEvRT_S5_
FNDA:0,_ZSt4swapIPSt18_Rb_tree_node_baseEvRT_S3_
FNDA:180,_ZSt4swapIPSt6vectorIP7myTemp_SaIS2_EEEvRT_S7_
FNDA:180,_ZSt4swapIPN5lgxZJ2LA13DirectedGraph8RealNodeEEvRT_S6_
FNDA:60,_ZSt4swapImEvRT_S1_
FNDA:45,_ZSt4swapIPPiEvRT_S3_
FNDA:90,_ZSt4swapISt15_Deque_iteratorIiRiPiEEvRT_S5_
FNDA:90,_ZSt4swapIPSt10shared_ptrIN5lgxZJ2IS3AAIEEEvRT_S7_
FNDA:366,_ZSt4swapIPN5lgxZJ2LA4EdgeEEvRT_S5_
FNF:74
FNH:43
DA:47,6020
DA:50,6020
DA:76,22757
DA:77,22757
DA:101,16997
DA:102,16997
DA:166,4512
DA:175,4512
DA:176,4512
DA:177,4512
DA:178,4512
LF:11
LH:11
end_of_record
SF:/usr/include/c++/4.8/bits/shared_ptr.h
FN:93,_ZNSt10shared_ptrIN5lgxZJ2IS3AAIEEaSERKS3_
FN:93,_ZNSt10shared_ptrIN5lgxZJ2IS3SubEED2Ev
FN:93,_ZNSt10shared_ptrIN5lgxZJ2IS3AAIEED2Ev
FN:93,_ZNSt10shared_ptrIN5lgxZJ2IS4MoveEED2Ev
FN:103,_ZNSt10shared_ptrIN5lgxZJ2IS3AAIEEC2ERKS3_
FN:226,_ZNSt10shared_ptrIN5lgxZJ2IS3AAIEEC2EOS3_
FN:236,_ZNSt10shared_ptrIN5lgxZJ2IS3AAIEEC2INS1_4MoveEvEEOS_IT_E
FN:236,_ZNSt10shared_ptrIN5lgxZJ2IS3AAIEEC2INS1_3SubEvEEOS_IT_E
FN:314,_ZNSt10shared_ptrIN5lgxZJ2IS4MoveEEC2ISaIS2_EIRP7myTemp_S8_NS2_11OperandTypeES9_EEESt19_Sp_make_shared_tagRKT_DpOT0_
FN:314,_ZNSt10shared_ptrIN5lgxZJ2IS4MoveEEC2ISaIS2_EIRP7myTemp_S7_EEESt19_Sp_make_shared_tagRKT_DpOT0_
FN:314,_ZNSt10shared_ptrIN5lgxZJ2IS3SubEEC2ISaIS2_EIRP7myTemp_iEEESt19_Sp_make_shared_tagRKT_DpOT0_
FN:595,_ZSt15allocate_sharedIN5lgxZJ2IS4MoveESaIS2_EIRP7myTemp_S5_EESt10shared_ptrIT_ERKT0_DpOT1_
FN:595,_ZSt15allocate_sharedIN5lgxZJ2IS4MoveESaIS2_EIRP7myTemp_S6_NS2_11OperandTypeES7_EESt10shared_ptrIT_ERKT0_DpOT1_
FN:595,_ZSt15allocate_sharedIN5lgxZJ2IS3SubESaIS2_EIRP7myTemp_iEESt10shared_ptrIT_ERKT0_DpOT1_
FN:610,_ZSt11make_sharedIN5lgxZJ2IS3SubEIRP7myTemp_iEESt10shared_ptrIT_EDpOT0_
FN:610,_ZSt11make_sharedIN5lgxZJ2IS4MoveEIRP7myTemp_S4_EESt10shared_ptrIT_EDpOT0_
FN:610,_ZSt11make_sharedIN5lgxZJ2IS4MoveEIRP7myTemp_S5_NS2_11OperandTypeES6_EESt10shared_ptrIT_EDpOT0_
FNDA:0,_ZNSt10shared_ptrIN5lgxZJ2IS3AAIEEaSERKS3_
FNDA:0,_ZNSt10shared_ptrIN5lgxZJ2IS3SubEED2Ev
FNDA:0,_ZNSt10shared_ptrIN5lgxZJ2IS4MoveEED2Ev
FNDA:0,_ZNSt10shared_ptrIN5lgxZJ2IS3AAIEED2Ev
FNDA:0,_ZNSt10shared_ptrIN5lgxZJ2IS3AAIEEC2ERKS3_
FNDA:0,_ZNSt10shared_ptrIN5lgxZJ2IS3AAIEEC2EOS3_
FNDA:0,_ZNSt10shared_ptrIN5lgxZJ2IS3AAIEEC2INS1_3SubEvEEOS_IT_E
FNDA:0,_ZNSt10shared_ptrIN5lgxZJ2IS3AAIEEC2INS1_4MoveEvEEOS_IT_E
FNDA:0,_ZNSt10shared_ptrIN5lgxZJ2IS3SubEEC2ISaIS2_EIRP7myTemp_iEEESt19_Sp_make_shared_tagRKT_DpOT0_
FNDA:0,_ZNSt10shared_ptrIN5lgxZJ2IS4MoveEEC2ISaIS2_EIRP7myTemp_S7_EEESt19_Sp_make_shared_tagRKT_DpOT0_
FNDA:0,_ZNSt10shared_ptrIN5lgxZJ2IS4MoveEEC2ISaIS2_EIRP7myTemp_S8_NS2_11OperandTypeES9_EEESt19_Sp_make_shared_tagRKT_DpOT0_
FNDA:0,_ZSt15allocate_sharedIN5lgxZJ2IS3SubESaIS2_EIRP7myTemp_iEESt10shared_ptrIT_ERKT0_DpOT1_
FNDA:0,_ZSt15allocate_sharedIN5lgxZJ2IS4MoveESaIS2_EIRP7myTemp_S5_EESt10shared_ptrIT_ERKT0_DpOT1_
FNDA:0,_ZSt15allocate_sharedIN5lgxZJ2IS4MoveESaIS2_EIRP7myTemp_S6_NS2_11OperandTypeES7_EESt10shared_ptrIT_ERKT0_DpOT1_
FNDA:0,_ZSt11make_sharedIN5lgxZJ2IS3SubEIRP7myTemp_iEESt10shared_ptrIT_EDpOT0_
FNDA:0,_ZSt11make_sharedIN5lgxZJ2IS4MoveEIRP7myTemp_S4_EESt10shared_ptrIT_EDpOT0_
FNDA:0,_ZSt11make_sharedIN5lgxZJ2IS4MoveEIRP7myTemp_S5_NS2_11OperandTypeES6_EESt10shared_ptrIT_EDpOT0_
FNF:17
FNH:0
DA:93,0
DA:103,0
DA:226,0
DA:227,0
DA:236,0
DA:237,0
DA:314,0
DA:316,0
DA:317,0
DA:595,0
DA:598,0
DA:610,0
DA:614,0
LF:13
LH:0
end_of_record
SF:/usr/include/c++/4.8/bits/shared_ptr_base.h
FN:86,_ZNSt11_Mutex_baseILN9__gnu_cxx12_Lock_policyE2EEC2Ev
FN:109,_ZNSt16_Sp_counted_baseILN9__gnu_cxx12_Lock_policyE2EEC2Ev
FN:113,_ZNSt16_Sp_counted_baseILN9__gnu_cxx12_Lock_policyE2EED0Ev
FN:113,_ZNSt16_Sp_counted_baseILN9__gnu_cxx12_Lock_policyE2EED2Ev
FN:123,_ZNSt16_Sp_counted_baseILN9__gnu_cxx12_Lock_policyE2EE10_M_destroyEv
FN:130,_ZNSt16_Sp_counted_baseILN9__gnu_cxx12_Lock_policyE2EE15_M_add_ref_copyEv
FN:137,_ZNSt16_Sp_counted_baseILN9__gnu_cxx12_Lock_policyE2EE10_M_releaseEv
FN:384,_ZNSt23_Sp_counted_ptr_inplaceIN5lgxZJ2IS3SubESaIS2_ELN9__gnu_cxx12_Lock_policyE2EE5_ImplD2Ev
FN:384,_ZNSt23_Sp_counted_ptr_inplaceIN5lgxZJ2IS4MoveESaIS2_ELN9__gnu_cxx12_Lock_policyE2EE5_ImplD2Ev
FN:387,_ZNSt23_Sp_counted_ptr_inplaceIN5lgxZJ2IS4MoveESaIS2_ELN9__gnu_cxx12_Lock_policyE2EE5_ImplC2ES3_
FN:387,_ZNSt23_Sp_counted_ptr_inplaceIN5lgxZJ2IS3SubESaIS2_ELN9__gnu_cxx12_Lock_policyE2EE5_ImplC2ES3_
FN:393,_ZNSt23_Sp_counted_ptr_inplaceIN5lgxZJ2IS3SubESaIS2_ELN9__gnu_cxx12_Lock_policyE2EEC2IIRP7myTemp_iEEES3_DpOT_
FN:393,_ZNSt23_Sp_counted_ptr_inplaceIN5lgxZJ2IS4MoveESaIS2_ELN9__gnu_cxx12_Lock_policyE2EEC2IIRP7myTemp_SA_NS2_11OperandTypeESB_EEES3_DpOT_
FN:393,_ZNSt23_Sp_counted_ptr_inplaceIN5lgxZJ2IS4MoveESaIS2_ELN9__gnu_cxx12_Lock_policyE2EEC2IIRP7myTemp_S9_EEES3_DpOT_
FN:403,_ZNSt23_Sp_counted_ptr_inplaceIN5lgxZJ2IS4MoveESaIS2_ELN9__gnu_cxx12_Lock_policyE2EED0Ev
FN:403,_ZNSt23_Sp_counted_ptr_inplaceIN5lgxZJ2IS3SubESaIS2_ELN9__gnu_cxx12_Lock_policyE2EED0Ev
FN:403,_ZNSt23_Sp_counted_ptr_inplaceIN5lgxZJ2IS4MoveESaIS2_ELN9__gnu_cxx12_Lock_policyE2EED2Ev
FN:403,_ZNSt23_Sp_counted_ptr_inplaceIN5lgxZJ2IS3SubESaIS2_ELN9__gnu_cxx12_Lock_policyE2EED2Ev
FN:406,_ZNSt23_Sp_counted_ptr_inplaceIN5lgxZJ2IS4MoveESaIS2_ELN9__gnu_cxx12_Lock_policyE2EE10_M_disposeEv
FN:406,_ZNSt23_Sp_counted_ptr_inplaceIN5lgxZJ2IS3SubESaIS2_ELN9__gnu_cxx12_Lock_policyE2EE10_M_disposeEv
FN:411,_ZNSt23_Sp_counted_ptr_inplaceIN5lgxZJ2IS3SubESaIS2_ELN9__gnu_cxx12_Lock_policyE2EE10_M_destroyEv
FN:411,_ZNSt23_Sp_counted_ptr_inplaceIN5lgxZJ2IS4MoveESaIS2_ELN9__gnu_cxx12_Lock_policyE2EE10_M_destroyEv
FN:422,_ZNSt23_Sp_counted_ptr_inplaceIN5lgxZJ2IS4MoveESaIS2_ELN9__gnu_cxx12_Lock_policyE2EE14_M_get_deleterERKSt9type_info
FN:422,_ZNSt23_Sp_counted_ptr_inplaceIN5lgxZJ2IS3SubESaIS2_ELN9__gnu_cxx12_Lock_policyE2EE14_M_get_deleterERKSt9type_info
FN:443,_ZNSt14__shared_countILN9__gnu_cxx12_Lock_policyE2EEC2Ev
FN:491,_ZNSt14__shared_countILN9__gnu_cxx12_Lock_policyE2EEC2IN5lgxZJ2IS3SubESaIS6_EIRP7myTemp_iEEESt19_Sp_make_shared_tagPT_RKT0_DpOT1_
FN:491,_ZNSt14__shared_countILN9__gnu_cxx12_Lock_policyE2EEC2IN5lgxZJ2IS4MoveESaIS6_EIRP7myTemp_SA_NS6_11OperandTypeESB_EEESt19_Sp_make_shared_tagPT_RKT0_DpOT1_
FN:491,_ZNSt14__shared_countILN9__gnu_cxx12_Lock_policyE2EEC2IN5lgxZJ2IS4MoveESaIS6_EIRP7myTemp_S9_EEESt19_Sp_make_shared_tagPT_RKT0_DpOT1_
FN:543,_ZNSt14__shared_countILN9__gnu_cxx12_Lock_policyE2EED2Ev
FN:549,_ZNSt14__shared_countILN9__gnu_cxx12_Lock_policyE2EEC2ERKS2_
FN:557,_ZNSt14__shared_countILN9__gnu_cxx12_Lock_policyE2EEaSERKS2_
FN:572,_ZNSt14__shared_countILN9__gnu_cxx12_Lock_policyE2EE7_M_swapERS2_
FN:588,_ZNKSt14__shared_countILN9__gnu_cxx12_Lock_policyE2EE14_M_get_deleterERKSt9type_info
FN:723,_ZSt32__enable_shared_from_this_helperILN9__gnu_cxx12_Lock_policyE2EEvRKSt14__shared_countIXT_EEz
FN:728,_ZNSt12__shared_ptrIN5lgxZJ2IS3AAIELN9__gnu_cxx12_Lock_policyE2EEaSERKS5_
FN:779,_ZNSt12__shared_ptrIN5lgxZJ2IS3AAIELN9__gnu_cxx12_Lock_policyE2EEC2ERKS5_
FN:781,_ZNSt12__shared_ptrIN5lgxZJ2IS4MoveELN9__gnu_cxx12_Lock_policyE2EED2Ev
FN:781,_ZNSt12__shared_ptrIN5lgxZJ2IS3AAIELN9__gnu_cxx12_Lock_policyE2EED2Ev
FN:781,_ZNSt12__shared_ptrIN5lgxZJ2IS3SubELN9__gnu_cxx12_Lock_policyE2EED2Ev
FN:789,_ZNSt12__shared_ptrIN5lgxZJ2IS3AAIELN9__gnu_cxx12_Lock_policyE2EEC2EOS5_
FN:798,_ZNSt12__shared_ptrIN5lgxZJ2IS3AAIELN9__gnu_cxx12_Lock_policyE2EEC2INS1_3SubEvEEOS_IT_LS4_2EE
FN:798,_ZNSt12__shared_ptrIN5lgxZJ2IS3AAIELN9__gnu_cxx12_Lock_policyE2EEC2INS1_4MoveEvEEOS_IT_LS4_2EE
FN:912,_ZNKSt12__shared_ptrIN5lgxZJ2IS3AAIELN9__gnu_cxx12_Lock_policyE2EEptEv
FN:954,_ZNSt12__shared_ptrIN5lgxZJ2IS4MoveELN9__gnu_cxx12_Lock_policyE2EEC2ISaIS2_EIRP7myTemp_SA_NS2_11OperandTypeESB_EEESt19_Sp_make_shared_tagRKT_DpOT0_
FN:954,_ZNSt12__shared_ptrIN5lgxZJ2IS4MoveELN9__gnu_cxx12_Lock_policyE2EEC2ISaIS2_EIRP7myTemp_S9_EEESt19_Sp_make_shared_tagRKT_DpOT0_
FN:954,_ZNSt12__shared_ptrIN5lgxZJ2IS3SubELN9__gnu_cxx12_Lock_policyE2EEC2ISaIS2_EIRP7myTemp_iEEESt19_Sp_make_shared_tagRKT_DpOT0_
FNDA:0,_ZNSt11_Mutex_baseILN9__gnu_cxx12_Lock_policyE2EEC2Ev
FNDA:0,_ZNSt16_Sp_counted_baseILN9__gnu_cxx12_Lock_policyE2EEC2Ev
FNDA:0,_ZNSt16_Sp_counted_baseILN9__gnu_cxx12_Lock_policyE2EED0Ev
FNDA:0,_ZNSt16_Sp_counted_baseILN9__gnu_cxx12_Lock_policyE2EED2Ev
FNDA:0,_ZNSt16_Sp_counted_baseILN9__gnu_cxx12_Lock_policyE2EE10_M_destroyEv
FNDA:0,_ZNSt16_Sp_counted_baseILN9__gnu_cxx12_Lock_policyE2EE15_M_add_ref_copyEv
FNDA:0,_ZNSt16_Sp_counted_baseILN9__gnu_cxx12_Lock_policyE2EE10_M_releaseEv
FNDA:0,_ZNSt23_Sp_counted_ptr_inplaceIN5lgxZJ2IS3SubESaIS2_ELN9__gnu_cxx12_Lock_policyE2EE5_ImplD2Ev
FNDA:0,_ZNSt23_Sp_counted_ptr_inplaceIN5lgxZJ2IS4MoveESaIS2_ELN9__gnu_cxx12_Lock_policyE2EE5_ImplD2Ev
FNDA:0,_ZNSt23_Sp_counted_ptr_inplaceIN5lgxZJ2IS3SubESaIS2_ELN9__gnu_cxx12_Lock_policyE2EE5_ImplC2ES3_
FNDA:0,_ZNSt23_Sp_counted_ptr_inplaceIN5lgxZJ2IS4MoveESaIS2_ELN9__gnu_cxx12_Lock_policyE2EE5_ImplC2ES3_
FNDA:0,_ZNSt23_Sp_counted_ptr_inplaceIN5lgxZJ2IS3SubESaIS2_ELN9__gnu_cxx12_Lock_policyE2EEC2IIRP7myTemp_iEEES3_DpOT_
FNDA:0,_ZNSt23_Sp_counted_ptr_inplaceIN5lgxZJ2IS4MoveESaIS2_ELN9__gnu_cxx12_Lock_policyE2EEC2IIRP7myTemp_S9_EEES3_DpOT_
FNDA:0,_ZNSt23_Sp_counted_ptr_inplaceIN5lgxZJ2IS4MoveESaIS2_ELN9__gnu_cxx12_Lock_policyE2EEC2IIRP7myTemp_SA_NS2_11OperandTypeESB_EEES3_DpOT_
FNDA:0,_ZNSt23_Sp_counted_ptr_inplaceIN5lgxZJ2IS4MoveESaIS2_ELN9__gnu_cxx12_Lock_policyE2EED0Ev
FNDA:0,_ZNSt23_Sp_counted_ptr_inplaceIN5lgxZJ2IS4MoveESaIS2_ELN9__gnu_cxx12_Lock_policyE2EED2Ev
FNDA:0,_ZNSt23_Sp_counted_ptr_inplaceIN5lgxZJ2IS3SubESaIS2_ELN9__gnu_cxx12_Lock_policyE2EED0Ev
FNDA:0,_ZNSt23_Sp_counted_ptr_inplaceIN5lgxZJ2IS3SubESaIS2_ELN9__gnu_cxx12_Lock_policyE2EED2Ev
FNDA:0,_ZNSt23_Sp_counted_ptr_inplaceIN5lgxZJ2IS4MoveESaIS2_ELN9__gnu_cxx12_Lock_policyE2EE10_M_disposeEv
FNDA:0,_ZNSt23_Sp_counted_ptr_inplaceIN5lgxZJ2IS3SubESaIS2_ELN9__gnu_cxx12_Lock_policyE2EE10_M_disposeEv
FNDA:0,_ZNSt23_Sp_counted_ptr_inplaceIN5lgxZJ2IS4MoveESaIS2_ELN9__gnu_cxx12_Lock_policyE2EE10_M_destroyEv
FNDA:0,_ZNSt23_Sp_counted_ptr_inplaceIN5lgxZJ2IS3SubESaIS2_ELN9__gnu_cxx12_Lock_policyE2EE10_M_destroyEv
FNDA:0,_ZNSt23_Sp_counted_ptr_inplaceIN5lgxZJ2IS4MoveESaIS2_ELN9__gnu_cxx12_Lock_policyE2EE14_M_get_deleterERKSt9type_info
FNDA:0,_ZNSt23_Sp_counted_ptr_inplaceIN5lgxZJ2IS3SubESaIS2_ELN9__gnu_cxx12_Lock_policyE2EE14_M_get_deleterERKSt9type_info
FNDA:0,_ZNSt14__shared_countILN9__gnu_cxx12_Lock_policyE2EEC2Ev
FNDA:0,_ZNSt14__shared_countILN9__gnu_cxx12_Lock_policyE2EEC2IN5lgxZJ2IS3SubESaIS6_EIRP7myTemp_iEEESt19_Sp_make_shared_tagPT_RKT0_DpOT1_
FNDA:0,_ZNSt14__shared_countILN9__gnu_cxx12_Lock_policyE2EEC2IN5lgxZJ2IS4MoveESaIS6_EIRP7myTemp_S9_EEESt19_Sp_make_shared_tagPT_RKT0_DpOT1_
FNDA:0,_ZNSt14__shared_countILN9__gnu_cxx12_Lock_policyE2EEC2IN5lgxZJ2IS4MoveESaIS6_EIRP7myTemp_SA_NS6_11OperandTypeESB_EEESt19_Sp_make_shared_tagPT_RKT0_DpOT1_
FNDA:0,_ZNSt14__shared_countILN9__gnu_cxx12_Lock_policyE2EED2Ev
FNDA:0,_ZNSt14__shared_countILN9__gnu_cxx12_Lock_policyE2EEC2ERKS2_
FNDA:0,_ZNSt14__shared_countILN9__gnu_cxx12_Lock_policyE2EEaSERKS2_
FNDA:0,_ZNSt14__shared_countILN9__gnu_cxx12_Lock_policyE2EE7_M_swapERS2_
FNDA:0,_ZNKSt14__shared_countILN9__gnu_cxx12_Lock_policyE2EE14_M_get_deleterERKSt9type_info
FNDA:0,_ZSt32__enable_shared_from_this_helperILN9__gnu_cxx12_Lock_policyE2EEvRKSt14__shared_countIXT_EEz
FNDA:0,_ZNSt12__shared_ptrIN5lgxZJ2IS3AAIELN9__gnu_cxx12_Lock_policyE2EEaSERKS5_
FNDA:0,_ZNSt12__shared_ptrIN5lgxZJ2IS3AAIELN9__gnu_cxx12_Lock_policyE2EEC2ERKS5_
FNDA:0,_ZNSt12__shared_ptrIN5lgxZJ2IS3SubELN9__gnu_cxx12_Lock_policyE2EED2Ev
FNDA:0,_ZNSt12__shared_ptrIN5lgxZJ2IS4MoveELN9__gnu_cxx12_Lock_policyE2EED2Ev
FNDA:0,_ZNSt12__shared_ptrIN5lgxZJ2IS3AAIELN9__gnu_cxx12_Lock_policyE2EED2Ev
FNDA:0,_ZNSt12__shared_ptrIN5lgxZJ2IS3AAIELN9__gnu_cxx12_Lock_policyE2EEC2EOS5_
FNDA:0,_ZNSt12__shared_ptrIN5lgxZJ2IS3AAIELN9__gnu_cxx12_Lock_policyE2EEC2INS1_3SubEvEEOS_IT_LS4_2EE
FNDA:0,_ZNSt12__shared_ptrIN5lgxZJ2IS3AAIELN9__gnu_cxx12_Lock_policyE2EEC2INS1_4MoveEvEEOS_IT_LS4_2EE
FNDA:2403,_ZNKSt12__shared_ptrIN5lgxZJ2IS3AAIELN9__gnu_cxx12_Lock_policyE2EEptEv
FNDA:0,_ZNSt12__shared_ptrIN5lgxZJ2IS3SubELN9__gnu_cxx12_Lock_policyE2EEC2ISaIS2_EIRP7myTemp_iEEESt19_Sp_make_shared_tagRKT_DpOT0_
FNDA:0,_ZNSt12__shared_ptrIN5lgxZJ2IS4MoveELN9__gnu_cxx12_Lock_policyE2EEC2ISaIS2_EIRP7myTemp_S9_EEESt19_Sp_make_shared_tagRKT_DpOT0_
FNDA:0,_ZNSt12__shared_ptrIN5lgxZJ2IS4MoveELN9__gnu_cxx12_Lock_policyE2EEC2ISaIS2_EIRP7myTemp_SA_NS2_11OperandTypeESB_EEESt19_Sp_make_shared_tagRKT_DpOT0_
FNF:46
FNH:1
DA:86,0
DA:109,0
DA:110,0
DA:113,0
DA:114,0
DA:123,0
DA:124,0
DA:130,0
DA:131,0
DA:137,0
DA:141,0
DA:144,0
DA:157,0
DA:158,0
DA:161,0
DA:164,0
DA:384,0
DA:387,0
DA:393,0
DA:394,0
DA:396,0
DA:399,0
DA:400,0
DA:401,0
DA:403,0
DA:406,0
DA:407,0
DA:411,0
DA:415,0
DA:416,0
DA:417,0
DA:418,0
DA:422,0
DA:425,0
DA:427,0
DA:443,0
DA:444,0
DA:491,0
DA:493,0
DA:498,0
DA:499,0
DA:502,0
DA:503,0
DA:504,0
DA:506,0
DA:508,0
DA:509,0
DA:510,0
DA:511,0
DA:543,0
DA:545,0
DA:546,0
DA:547,0
DA:549,0
DA:550,0
DA:552,0
DA:553,0
DA:554,0
DA:557,0
DA:559,0
DA:560,0
DA:562,0
DA:563,0
DA:564,0
DA:565,0
DA:566,0
DA:568,0
DA:572,0
DA:574,0
DA:575,0
DA:576,0
DA:577,0
DA:588,0
DA:589,0
DA:723,0
DA:724,0
DA:728,0
DA:779,0
DA:781,0
DA:789,0
DA:790,0
DA:792,0
DA:793,0
DA:794,0
DA:798,0
DA:799,0
DA:801,0
DA:802,0
DA:803,0
DA:912,2403
DA:915,2403
DA:954,0
DA:957,0
DA:961,0
DA:962,0
DA:963,0
DA:964,0
LF:97
LH:2
end_of_record
SF:/usr/include/c++/4.8/bits/stl_algo.h
FN:78,_ZSt22__move_median_to_firstIN9__gnu_cxx17__normal_iteratorIPiSt6vectorIiSaIiEEEEEvT_S7_S7_S7_
FN:158,_ZSt6__findIN9__gnu_cxx17__normal_iteratorIPP7myTemp_St6vectorIS3_SaIS3_EEEES3_ET_S9_S9_RKT0_St26random_access_iterator_tag
FN:158,_ZSt6__findIN9__gnu_cxx17__normal_iteratorIPiSt6vectorIiSaIiEEEEiET_S7_S7_RKT0_St26random_access_iterator_tag
FN:1929,_ZSt13__heap_selectIN9__gnu_cxx17__normal_iteratorIPiSt6vectorIiSaIiEEEEEvT_S7_S7_
FN:2092,_ZSt25__unguarded_linear_insertIN9__gnu_cxx17__normal_iteratorIPiSt6vectorIiSaIiEEEEEvT_
FN:2129,_ZSt16__insertion_sortIN9__gnu_cxx17__normal_iteratorIPiSt6vectorIiSaIiEEEEEvT_S7_
FN:2174,_ZSt26__unguarded_insertion_sortIN9__gnu_cxx17__normal_iteratorIPiSt6vectorIiSaIiEEEEEvT_S7_
FN:2206,_ZSt22__final_insertion_sortIN9__gnu_cxx17__normal_iteratorIPiSt6vectorIiSaIiEEEEEvT_S7_
FN:2237,_ZSt21__unguarded_partitionIN9__gnu_cxx17__normal_iteratorIPiSt6vectorIiSaIiEEEEiET_S7_S7_RKT0_
FN:2278,_ZSt27__unguarded_partition_pivotIN9__gnu_cxx17__normal_iteratorIPiSt6vectorIiSaIiEEEEET_S7_S7_
FN:2302,_ZSt16__introsort_loopIN9__gnu_cxx17__normal_iteratorIPiSt6vectorIiSaIiEEEElEvT_S7_T0_
FN:4432,_ZSt4findIN9__gnu_cxx17__normal_iteratorIPiSt6vectorIiSaIiEEEEiET_S7_S7_RKT0_
FN:4432,_ZSt4findIN9__gnu_cxx17__normal_iteratorIPP7myTemp_St6vectorIS3_SaIS3_EEEES3_ET_S9_S9_RKT0_
FN:5294,_ZSt12partial_sortIN9__gnu_cxx17__normal_iteratorIPiSt6vectorIiSaIiEEEEEvT_S7_S7_
FN:5447,_ZSt4sortIN9__gnu_cxx17__normal_iteratorIPiSt6vectorIiSaIiEEEEEvT_S7_
FN:5526,_ZSt5mergeIN9__gnu_cxx17__normal_iteratorIPiSt6vectorIiSaIiEEEES6_St20back_insert_iteratorIS5_EET1_T_SA_T0_SB_S9_
FN:5738,_ZSt9set_unionIN9__gnu_cxx17__normal_iteratorIPiSt6vectorIiSaIiEEEES6_St20back_insert_iteratorIS5_EET1_T_SA_T0_SB_S9_
FNDA:0,_ZSt22__move_median_to_firstIN9__gnu_cxx17__normal_iteratorIPiSt6vectorIiSaIiEEEEEvT_S7_S7_S7_
FNDA:61,_ZSt6__findIN9__gnu_cxx17__normal_iteratorIPP7myTemp_St6vectorIS3_SaIS3_EEEES3_ET_S9_S9_RKT0_St26random_access_iterator_tag
FNDA:102,_ZSt6__findIN9__gnu_cxx17__normal_iteratorIPiSt6vectorIiSaIiEEEEiET_S7_S7_RKT0_St26random_access_iterator_tag
FNDA:0,_ZSt13__heap_selectIN9__gnu_cxx17__normal_iteratorIPiSt6vectorIiSaIiEEEEEvT_S7_S7_
FNDA:84,_ZSt25__unguarded_linear_insertIN9__gnu_cxx17__normal_iteratorIPiSt6vectorIiSaIiEEEEEvT_
FNDA:83,_ZSt16__insertion_sortIN9__gnu_cxx17__normal_iteratorIPiSt6vectorIiSaIiEEEEEvT_S7_
FNDA:0,_ZSt26__unguarded_insertion_sortIN9__gnu_cxx17__normal_iteratorIPiSt6vectorIiSaIiEEEEEvT_S7_
FNDA:83,_ZSt22__final_insertion_sortIN9__gnu_cxx17__normal_iteratorIPiSt6vectorIiSaIiEEEEEvT_S7_
FNDA:0,_ZSt21__unguarded_partitionIN9__gnu_cxx17__normal_iteratorIPiSt6vectorIiSaIiEEEEiET_S7_S7_RKT0_
FNDA:0,_ZSt27__unguarded_partition_pivotIN9__gnu_cxx17__normal_iteratorIPiSt6vectorIiSaIiEEEEET_S7_S7_
FNDA:83,_ZSt16__introsort_loopIN9__gnu_cxx17__normal_iteratorIPiSt6vectorIiSaIiEEEElEvT_S7_T0_
FNDA:61,_ZSt4findIN9__gnu_cxx17__normal_iteratorIPP7myTemp_St6vectorIS3_SaIS3_EEEES3_ET_S9_S9_RKT0_
FNDA:102,_ZSt4findIN9__gnu_cxx17__normal_iteratorIPiSt6vectorIiSaIiEEEEiET_S7_S7_RKT0_
FNDA:0,_ZSt12partial_sortIN9__gnu_cxx17__normal_iteratorIPiSt6vectorIiSaIiEEEEEvT_S7_S7_
FNDA:164,_ZSt4sortIN9__gnu_cxx17__normal_iteratorIPiSt6vectorIiSaIiEEEEEvT_S7_
FNDA:33,_ZSt5mergeIN9__gnu_cxx17__normal_iteratorIPiSt6vectorIiSaIiEEEES6_St20back_insert_iteratorIS5_EET1_T_SA_T0_SB_S9_
FNDA:82,_ZSt9set_unionIN9__gnu_cxx17__normal_iteratorIPiSt6vectorIiSaIiEEEES6_St20back_insert_iteratorIS5_EET1_T_SA_T0_SB_S9_
FNF:17
FNH:11
DA:78,0
DA:85,0
DA:87,0
DA:88,0
DA:89,0
DA:90,0
DA:92,0
DA:94,0
DA:95,0
DA:96,0
DA:97,0
DA:99,0
DA:100,0
DA:158,163
DA:162,163
DA:164,180
DA:166,69
DA:167,36
DA:168,33
DA:170,33
DA:171,11
DA:172,22
DA:174,22
DA:175,5
DA:176,17
DA:178,17
DA:179,0
DA:180,17
DA:183,111
DA:186,14
DA:187,2
DA:188,12
DA:190,41
DA:191,9
DA:192,32
DA:194,79
DA:195,29
DA:196,50
DA:199,71
DA:1929,0
DA:1933,0
DA:1934,0
DA:1935,0
DA:1936,0
DA:1937,0
DA:2092,84
DA:2095,84
DA:2096,84
DA:2097,84
DA:2098,170
DA:2100,2
DA:2101,2
DA:2102,2
DA:2104,84
DA:2105,84
DA:2129,83
DA:2132,83
DA:2133,83
DA:2135,170
DA:2137,87
DA:2140,3
DA:2141,3
DA:2142,3
DA:2145,84
DA:2174,0
DA:2180,0
DA:2181,0
DA:2182,0
DA:2206,83
DA:2209,83
DA:2211,0
DA:2212,0
DA:2215,83
DA:2216,83
DA:2237,0
DA:2242,0
DA:2243,0
DA:2244,0
DA:2245,0
DA:2246,0
DA:2247,0
DA:2248,0
DA:2249,0
DA:2250,0
DA:2278,0
DA:2281,0
DA:2282,0
DA:2283,0
DA:2302,83
DA:2306,166
DA:2308,0
DA:2310,0
DA:2311,83
DA:2313,0
DA:2315,0
DA:2316,0
DA:2317,0
DA:4432,163
DA:4441,163
DA:5294,0
DA:5308,0
DA:5309,0
DA:5310,0
DA:5447,164
DA:5458,164
DA:5460,83
DA:5461,83
DA:5462,83
DA:5464,164
DA:5526,33
DA:5546,72
DA:5548,6
DA:5550,6
DA:5551,6
DA:5555,0
DA:5556,0
DA:5558,6
DA:5561,33
DA:5738,82
DA:5759,186
DA:5761,22
DA:5763,8
DA:5764,8
DA:5766,14
DA:5768,14
DA:5769,14
DA:5773,0
DA:5774,0
DA:5775,0
DA:5777,22
DA:5780,82
LF:131
LH:76
end_of_record
SF:/usr/include/c++/4.8/bits/stl_algobase.h
FN:119,_ZSt9iter_swapIN9__gnu_cxx17__normal_iteratorIPiSt6vectorIiSaIiEEEES6_EvT_T0_
FN:216,_ZSt3maxImERKT_S2_S2_
FN:277,_ZSt12__niter_baseIN9__gnu_cxx17__normal_iteratorIPKiSt6vectorIiSaIiEEEEENSt11_Niter_baseIT_E13iterator_typeES9_
FN:277,_ZSt12__niter_baseIPKP7myTemp_ENSt11_Niter_baseIT_E13iterator_typeES5_
FN:277,_ZSt12__niter_baseIPPiENSt11_Niter_baseIT_E13iterator_typeES3_
FN:277,_ZSt12__niter_baseIPP7myTemp_ENSt11_Niter_baseIT_E13iterator_typeES4_
FN:277,_ZSt12__niter_baseISt20back_insert_iteratorISt6vectorIiSaIiEEEENSt11_Niter_baseIT_E13iterator_typeES6_
FN:277,_ZSt12__niter_baseISt15_Deque_iteratorIiRKiPS1_EENSt11_Niter_baseIT_E13iterator_typeES6_
FN:277,_ZSt12__niter_baseIPSt10shared_ptrIN5lgxZJ2IS3AAIEEENSt11_Niter_baseIT_E13iterator_typeES7_
FN:277,_ZSt12__niter_baseIN9__gnu_cxx17__normal_iteratorIPKSt10shared_ptrIN5lgxZJ2IS3AAIEESt6vectorIS6_SaIS6_EEEEENSt11_Niter_baseIT_E13iterator_typeESE_
FN:277,_ZSt12__niter_baseISt15_Deque_iteratorIiRiPiEENSt11_Niter_baseIT_E13iterator_typeES5_
FN:277,_ZSt12__niter_baseIN9__gnu_cxx17__normal_iteratorIPSt10shared_ptrIN5lgxZJ2IS3AAIEESt6vectorIS6_SaIS6_EEEEENSt11_Niter_baseIT_E13iterator_typeESD_
FN:277,_ZSt12__niter_baseIN9__gnu_cxx17__normal_iteratorIPP7myTemp_St6vectorIS3_SaIS3_EEEEENSt11_Niter_baseIT_E13iterator_typeESA_
FN:277,_ZSt12__niter_baseIN9__gnu_cxx17__normal_iteratorIPiSt6vectorIiSaIiEEEEENSt11_Niter_baseIT_E13iterator_typeES8_
FN:277,_ZSt12__niter_baseIPiENSt11_Niter_baseIT_E13iterator_typeES2_
FN:288,_ZSt12__miter_baseIPiENSt11_Miter_baseIT_E13iterator_typeES2_
FN:288,_ZSt12__miter_baseIN9__gnu_cxx17__normal_iteratorIPKiSt6vectorIiSaIiEEEEENSt11_Miter_baseIT_E13iterator_typeES9_
FN:288,_ZSt12__miter_baseISt13move_iteratorIPiEENSt11_Miter_baseIT_E13iterator_typeES4_
FN:288,_ZSt12__miter_baseIN9__gnu_cxx17__normal_iteratorIPKSt10shared_ptrIN5lgxZJ2IS3AAIEESt6vectorIS6_SaIS6_EEEEENSt11_Miter_baseIT_E13iterator_typeESE_
FN:288,_ZSt12__miter_baseIPSt10shared_ptrIN5lgxZJ2IS3AAIEEENSt11_Miter_baseIT_E13iterator_typeES7_
FN:288,_ZSt12__miter_baseIPPiENSt11_Miter_baseIT_E13iterator_typeES3_
FN:288,_ZSt12__miter_baseISt15_Deque_iteratorIiRKiPS1_EENSt11_Miter_baseIT_E13iterator_typeES6_
FN:288,_ZSt12__miter_baseIN9__gnu_cxx17__normal_iteratorIPP7myTemp_St6vectorIS3_SaIS3_EEEEENSt11_Miter_baseIT_E13iterator_typeESA_
FN:288,_ZSt12__miter_baseIPKP7myTemp_ENSt11_Miter_baseIT_E13iterator_typeES5_
FN:288,_ZSt12__miter_baseIN9__gnu_cxx17__normal_iteratorIPiSt6vectorIiSaIiEEEEENSt11_Miter_baseIT_E13iterator_typeES8_
FN:330,_ZNSt11__copy_moveILb0ELb0ESt26random_access_iterator_tagE8__copy_mIPKSt10shared_ptrIN5lgxZJ2IS3AAIEEPS7_EET0_T_SC_SB_
FN:330,_ZNSt11__copy_moveILb0ELb0ESt26random_access_iterator_tagE8__copy_mIPiSt20back_insert_iteratorISt6vectorIiSaIiEEEEET0_T_SA_S9_
FN:330,_ZNSt11__copy_moveILb0ELb0ESt26random_access_iterator_tagE8__copy_mISt15_Deque_iteratorIiRKiPS4_ES3_IiRiPiEEET0_T_SC_SB_
FN:330,_ZNSt11__copy_moveILb0ELb0ESt26random_access_iterator_tagE8__copy_mIPSt10shared_ptrIN5lgxZJ2IS3AAIEES8_EET0_T_SA_S9_
FN:368,_ZNSt11__copy_moveILb0ELb1ESt26random_access_iterator_tagE8__copy_mIP7myTemp_EEPT_PKS5_S8_S6_
FN:368,_ZNSt11__copy_moveILb0ELb1ESt26random_access_iterator_tagE8__copy_mIPiEEPT_PKS4_S7_S5_
FN:368,_ZNSt11__copy_moveILb0ELb1ESt26random_access_iterator_tagE8__copy_mIiEEPT_PKS3_S6_S4_
FN:368,_ZNSt11__copy_moveILb1ELb1ESt26random_access_iterator_tagE8__copy_mIP7myTemp_EEPT_PKS5_S8_S6_
FN:368,_ZNSt11__copy_moveILb1ELb1ESt26random_access_iterator_tagE8__copy_mIiEEPT_PKS3_S6_S4_
FN:379,_ZSt13__copy_move_aILb0EPiSt20back_insert_iteratorISt6vectorIiSaIiEEEET1_T0_S7_S6_
FN:379,_ZSt13__copy_move_aILb0EPPiS1_ET1_T0_S3_S2_
FN:379,_ZSt13__copy_move_aILb0EPKSt10shared_ptrIN5lgxZJ2IS3AAIEEPS4_ET1_T0_S9_S8_
FN:379,_ZSt13__copy_move_aILb0EPiS0_ET1_T0_S2_S1_
FN:379,_ZSt13__copy_move_aILb0EPKP7myTemp_PS1_ET1_T0_S6_S5_
FN:379,_ZSt13__copy_move_aILb1EPiS0_ET1_T0_S2_S1_
FN:379,_ZSt13__copy_move_aILb0EPSt10shared_ptrIN5lgxZJ2IS3AAIEES5_ET1_T0_S7_S6_
FN:379,_ZSt13__copy_move_aILb1EPP7myTemp_S2_ET1_T0_S4_S3_
FN:379,_ZSt13__copy_move_aILb0EPKiPiET1_T0_S4_S3_
FN:379,_ZSt13__copy_move_aILb0EPP7myTemp_S2_ET1_T0_S4_S3_
FN:379,_ZSt13__copy_move_aILb0ESt15_Deque_iteratorIiRKiPS1_ES0_IiRiPiEET1_T0_S9_S8_
FN:424,_ZSt14__copy_move_a2ILb0EN9__gnu_cxx17__normal_iteratorIPKSt10shared_ptrIN5lgxZJ2IS3AAIEESt6vectorIS6_SaIS6_EEEENS1_IPS6_SB_EEET1_T0_SG_SF_
FN:424,_ZSt14__copy_move_a2ILb0EN9__gnu_cxx17__normal_iteratorIPKiSt6vectorIiSaIiEEEENS1_IPiS6_EEET1_T0_SB_SA_
FN:424,_ZSt14__copy_move_a2ILb1EPiS0_ET1_T0_S2_S1_
FN:424,_ZSt14__copy_move_a2ILb0EPKP7myTemp_PS1_ET1_T0_S6_S5_
FN:424,_ZSt14__copy_move_a2ILb1EN9__gnu_cxx17__normal_iteratorIPiSt6vectorIiSaIiEEEES6_ET1_T0_S8_S7_
FN:424,_ZSt14__copy_move_a2ILb1EN9__gnu_cxx17__normal_iteratorIPP7myTemp_St6vectorIS3_SaIS3_EEEES8_ET1_T0_SA_S9_
FN:424,_ZSt14__copy_move_a2ILb0EN9__gnu_cxx17__normal_iteratorIPP7myTemp_St6vectorIS3_SaIS3_EEEES4_ET1_T0_SA_S9_
FN:424,_ZSt14__copy_move_a2ILb0EN9__gnu_cxx17__normal_iteratorIPKiSt6vectorIiSaIiEEEEPiET1_T0_SA_S9_
FN:424,_ZSt14__copy_move_a2ILb0EPPiS1_ET1_T0_S3_S2_
FN:424,_ZSt14__copy_move_a2ILb0ESt15_Deque_iteratorIiRKiPS1_ES0_IiRiPiEET1_T0_S9_S8_
FN:424,_ZSt14__copy_move_a2ILb0EN9__gnu_cxx17__normal_iteratorIPiSt6vectorIiSaIiEEEESt20back_insert_iteratorIS5_EET1_T0_SA_S9_
FN:424,_ZSt14__copy_move_a2ILb0EPSt10shared_ptrIN5lgxZJ2IS3AAIEES5_ET1_T0_S7_S6_
FN:424,_ZSt14__copy_move_a2ILb0EPiS0_ET1_T0_S2_S1_
FN:450,_ZSt4copyISt13move_iteratorIPiES1_ET0_T_S4_S3_
FN:450,_ZSt4copyIN9__gnu_cxx17__normal_iteratorIPKiSt6vectorIiSaIiEEEENS1_IPiS6_EEET0_T_SB_SA_
FN:450,_ZSt4copyIPKP7myTemp_PS1_ET0_T_S6_S5_
FN:450,_ZSt4copyIN9__gnu_cxx17__normal_iteratorIPKSt10shared_ptrIN5lgxZJ2IS3AAIEESt6vectorIS6_SaIS6_EEEENS1_IPS6_SB_EEET0_T_SG_SF_
FN:450,_ZSt4copyISt15_Deque_iteratorIiRKiPS1_ES0_IiRiPiEET0_T_S9_S8_
FN:450,_ZSt4copyIN9__gnu_cxx17__normal_iteratorIPKiSt6vectorIiSaIiEEEEPiET0_T_SA_S9_
FN:450,_ZSt4copyIPPiS1_ET0_T_S3_S2_
FN:450,_ZSt4copyIPiS0_ET0_T_S2_S1_
FN:450,_ZSt4copyIN9__gnu_cxx17__normal_iteratorIPP7myTemp_St6vectorIS3_SaIS3_EEEES4_ET0_T_SA_S9_
FN:450,_ZSt4copyIN9__gnu_cxx17__normal_iteratorIPiSt6vectorIiSaIiEEEESt20back_insert_iteratorIS5_EET0_T_SA_S9_
FN:450,_ZSt4copyIPSt10shared_ptrIN5lgxZJ2IS3AAIEES5_ET0_T_S7_S6_
FN:483,_ZSt4moveIN9__gnu_cxx17__normal_iteratorIPP7myTemp_St6vectorIS3_SaIS3_EEEES8_ET0_T_SA_S9_
FN:483,_ZSt4moveIN9__gnu_cxx17__normal_iteratorIPiSt6vectorIiSaIiEEEES6_ET0_T_S8_S7_
FN:563,_ZNSt20__copy_move_backwardILb0ELb1ESt26random_access_iterator_tagE13__copy_move_bIPiEEPT_PKS4_S7_S5_
FN:563,_ZNSt20__copy_move_backwardILb1ELb1ESt26random_access_iterator_tagE13__copy_move_bIiEEPT_PKS3_S6_S4_
FN:574,_ZSt22__copy_move_backward_aILb0EPPiS1_ET1_T0_S3_S2_
FN:574,_ZSt22__copy_move_backward_aILb1EPiS0_ET1_T0_S2_S1_
FN:592,_ZSt23__copy_move_backward_a2ILb1EN9__gnu_cxx17__normal_iteratorIPiSt6vectorIiSaIiEEEES6_ET1_T0_S8_S7_
FN:592,_ZSt23__copy_move_backward_a2ILb0EPPiS1_ET1_T0_S3_S2_
FN:619,_ZSt13copy_backwardIPPiS1_ET0_T_S3_S2_
FN:655,_ZSt13move_backwardIN9__gnu_cxx17__normal_iteratorIPiSt6vectorIiSaIiEEEES6_ET0_T_S8_S7_
FN:988,_ZSt4__lgl
FNDA:0,_ZSt9iter_swapIN9__gnu_cxx17__normal_iteratorIPiSt6vectorIiSaIiEEEES6_EvT_T0_
FNDA:5925,_ZSt3maxImERKT_S2_S2_
FNDA:13116,_ZSt12__niter_baseIPP7myTemp_ENSt11_Niter_baseIT_E13iterator_typeES4_
FNDA:100,_ZSt12__niter_baseIPKP7myTemp_ENSt11_Niter_baseIT_E13iterator_typeES5_
FNDA:0,_ZSt12__niter_baseIPPiENSt11_Niter_baseIT_E13iterator_typeES3_
FNDA:26,_ZSt12__niter_baseISt15_Deque_iteratorIiRiPiEENSt11_Niter_baseIT_E13iterator_typeES5_
FNDA:52,_ZSt12__niter_baseISt15_Deque_iteratorIiRKiPS1_EENSt11_Niter_baseIT_E13iterator_typeES6_
FNDA:3254,_ZSt12__niter_baseIN9__gnu_cxx17__normal_iteratorIPP7myTemp_St6vectorIS3_SaIS3_EEEEENSt11_Niter_baseIT_E13iterator_typeESA_
FNDA:17910,_ZSt12__niter_baseIPiENSt11_Niter_baseIT_E13iterator_typeES2_
FNDA:23084,_ZSt12__niter_baseIN9__gnu_cxx17__normal_iteratorIPKiSt6vectorIiSaIiEEEEENSt11_Niter_baseIT_E13iterator_typeES9_
FNDA:230,_ZSt12__niter_baseISt20back_insert_iteratorISt6vectorIiSaIiEEEENSt11_Niter_baseIT_E13iterator_typeES6_
FNDA:539,_ZSt12__niter_baseIN9__gnu_cxx17__normal_iteratorIPiSt6vectorIiSaIiEEEEENSt11_Niter_baseIT_E13iterator_typeES8_
FNDA:0,_ZSt12__niter_baseIPSt10shared_ptrIN5lgxZJ2IS3AAIEEENSt11_Niter_baseIT_E13iterator_typeES7_
FNDA:0,_ZSt12__niter_baseIN9__gnu_cxx17__normal_iteratorIPSt10shared_ptrIN5lgxZJ2IS3AAIEESt6vectorIS6_SaIS6_EEEEENSt11_Niter_baseIT_E13iterator_typeESD_
FNDA:0,_ZSt12__niter_baseIN9__gnu_cxx17__normal_iteratorIPKSt10shared_ptrIN5lgxZJ2IS3AAIEESt6vectorIS6_SaIS6_EEEEENSt11_Niter_baseIT_E13iterator_typeESE_
FNDA:4256,_ZSt12__miter_baseISt13move_iteratorIPiEENSt11_Miter_baseIT_E13iterator_typeES4_
FNDA:100,_ZSt12__miter_baseIPKP7myTemp_ENSt11_Miter_baseIT_E13iterator_typeES5_
FNDA:0,_ZSt12__miter_baseIPPiENSt11_Miter_baseIT_E13iterator_typeES3_
FNDA:52,_ZSt12__miter_baseISt15_Deque_iteratorIiRKiPS1_EENSt11_Miter_baseIT_E13iterator_typeES6_
FNDA:3130,_ZSt12__miter_baseIN9__gnu_cxx17__normal_iteratorIPP7myTemp_St6vectorIS3_SaIS3_EEEEENSt11_Miter_baseIT_E13iterator_typeESA_
FNDA:0,_ZSt12__miter_baseIPiENSt11_Miter_baseIT_E13iterator_typeES2_
FNDA:23084,_ZSt12__miter_baseIN9__gnu_cxx17__normal_iteratorIPKiSt6vectorIiSaIiEEEEENSt11_Miter_baseIT_E13iterator_typeES9_
FNDA:502,_ZSt12__miter_baseIN9__gnu_cxx17__normal_iteratorIPiSt6vectorIiSaIiEEEEENSt11_Miter_baseIT_E13iterator_typeES8_
FNDA:0,_ZSt12__miter_baseIPSt10shared_ptrIN5lgxZJ2IS3AAIEEENSt11_Miter_baseIT_E13iterator_typeES7_
FNDA:0,_ZSt12__miter_baseIN9__gnu_cxx17__normal_iteratorIPKSt10shared_ptrIN5lgxZJ2IS3AAIEESt6vectorIS6_SaIS6_EEEEENSt11_Miter_baseIT_E13iterator_typeESE_
FNDA:26,_ZNSt11__copy_moveILb0ELb0ESt26random_access_iterator_tagE8__copy_mISt15_Deque_iteratorIiRKiPS4_ES3_IiRiPiEEET0_T_SC_SB_
FNDA:230,_ZNSt11__copy_moveILb0ELb0ESt26random_access_iterator_tagE8__copy_mIPiSt20back_insert_iteratorISt6vectorIiSaIiEEEEET0_T_SA_S9_
FNDA:0,_ZNSt11__copy_moveILb0ELb0ESt26random_access_iterator_tagE8__copy_mIPSt10shared_ptrIN5lgxZJ2IS3AAIEES8_EET0_T_SA_S9_
FNDA:0,_ZNSt11__copy_moveILb0ELb0ESt26random_access_iterator_tagE8__copy_mIPKSt10shared_ptrIN5lgxZJ2IS3AAIEEPS7_EET0_T_SC_SB_
FNDA:1738,_ZNSt11__copy_moveILb0ELb1ESt26random_access_iterator_tagE8__copy_mIP7myTemp_EEPT_PKS5_S8_S6_
FNDA:0,_ZNSt11__copy_moveILb0ELb1ESt26random_access_iterator_tagE8__copy_mIPiEEPT_PKS4_S7_S5_
FNDA:3485,_ZNSt11__copy_moveILb1ELb1ESt26random_access_iterator_tagE8__copy_mIP7myTemp_EEPT_PKS5_S8_S6_
FNDA:2146,_ZNSt11__copy_moveILb1ELb1ESt26random_access_iterator_tagE8__copy_mIiEEPT_PKS3_S6_S4_
FNDA:11542,_ZNSt11__copy_moveILb0ELb1ESt26random_access_iterator_tagE8__copy_mIiEEPT_PKS3_S6_S4_
FNDA:50,_ZSt13__copy_move_aILb0EPP7myTemp_S2_ET1_T0_S4_S3_
FNDA:1688,_ZSt13__copy_move_aILb0EPKP7myTemp_PS1_ET1_T0_S6_S5_
FNDA:0,_ZSt13__copy_move_aILb0EPPiS1_ET1_T0_S3_S2_
FNDA:26,_ZSt13__copy_move_aILb0ESt15_Deque_iteratorIiRKiPS1_ES0_IiRiPiEET1_T0_S9_S8_
FNDA:3485,_ZSt13__copy_move_aILb1EPP7myTemp_S2_ET1_T0_S4_S3_
FNDA:2146,_ZSt13__copy_move_aILb1EPiS0_ET1_T0_S2_S1_
FNDA:0,_ZSt13__copy_move_aILb0EPiS0_ET1_T0_S2_S1_
FNDA:11542,_ZSt13__copy_move_aILb0EPKiPiET1_T0_S4_S3_
FNDA:230,_ZSt13__copy_move_aILb0EPiSt20back_insert_iteratorISt6vectorIiSaIiEEEET1_T0_S7_S6_
FNDA:0,_ZSt13__copy_move_aILb0EPSt10shared_ptrIN5lgxZJ2IS3AAIEES5_ET1_T0_S7_S6_
FNDA:0,_ZSt13__copy_move_aILb0EPKSt10shared_ptrIN5lgxZJ2IS3AAIEEPS4_ET1_T0_S9_S8_
FNDA:50,_ZSt14__copy_move_a2ILb0EN9__gnu_cxx17__normal_iteratorIPP7myTemp_St6vectorIS3_SaIS3_EEEES4_ET1_T0_SA_S9_
FNDA:2128,_ZSt14__copy_move_a2ILb1EPiS0_ET1_T0_S2_S1_
FNDA:50,_ZSt14__copy_move_a2ILb0EPKP7myTemp_PS1_ET1_T0_S6_S5_
FNDA:0,_ZSt14__copy_move_a2ILb0EPPiS1_ET1_T0_S3_S2_
FNDA:26,_ZSt14__copy_move_a2ILb0ESt15_Deque_iteratorIiRKiPS1_ES0_IiRiPiEET1_T0_S9_S8_
FNDA:11526,_ZSt14__copy_move_a2ILb0EN9__gnu_cxx17__normal_iteratorIPKiSt6vectorIiSaIiEEEEPiET1_T0_SA_S9_
FNDA:45,_ZSt14__copy_move_a2ILb1EN9__gnu_cxx17__normal_iteratorIPP7myTemp_St6vectorIS3_SaIS3_EEEES8_ET1_T0_SA_S9_
FNDA:18,_ZSt14__copy_move_a2ILb1EN9__gnu_cxx17__normal_iteratorIPiSt6vectorIiSaIiEEEES6_ET1_T0_S8_S7_
FNDA:0,_ZSt14__copy_move_a2ILb0EPiS0_ET1_T0_S2_S1_
FNDA:16,_ZSt14__copy_move_a2ILb0EN9__gnu_cxx17__normal_iteratorIPKiSt6vectorIiSaIiEEEENS1_IPiS6_EEET1_T0_SB_SA_
FNDA:230,_ZSt14__copy_move_a2ILb0EN9__gnu_cxx17__normal_iteratorIPiSt6vectorIiSaIiEEEESt20back_insert_iteratorIS5_EET1_T0_SA_S9_
FNDA:0,_ZSt14__copy_move_a2ILb0EPSt10shared_ptrIN5lgxZJ2IS3AAIEES5_ET1_T0_S7_S6_
FNDA:0,_ZSt14__copy_move_a2ILb0EN9__gnu_cxx17__normal_iteratorIPKSt10shared_ptrIN5lgxZJ2IS3AAIEESt6vectorIS6_SaIS6_EEEENS1_IPS6_SB_EEET1_T0_SG_SF_
FNDA:50,_ZSt4copyIN9__gnu_cxx17__normal_iteratorIPP7myTemp_St6vectorIS3_SaIS3_EEEES4_ET0_T_SA_S9_
FNDA:2128,_ZSt4copyISt13move_iteratorIPiES1_ET0_T_S4_S3_
FNDA:50,_ZSt4copyIPKP7myTemp_PS1_ET0_T_S6_S5_
FNDA:0,_ZSt4copyIPPiS1_ET0_T_S3_S2_
FNDA:26,_ZSt4copyISt15_Deque_iteratorIiRKiPS1_ES0_IiRiPiEET0_T_S9_S8_
FNDA:11526,_ZSt4copyIN9__gnu_cxx17__normal_iteratorIPKiSt6vectorIiSaIiEEEEPiET0_T_SA_S9_
FNDA:0,_ZSt4copyIPiS0_ET0_T_S2_S1_
FNDA:16,_ZSt4copyIN9__gnu_cxx17__normal_iteratorIPKiSt6vectorIiSaIiEEEENS1_IPiS6_EEET0_T_SB_SA_
FNDA:230,_ZSt4copyIN9__gnu_cxx17__normal_iteratorIPiSt6vectorIiSaIiEEEESt20back_insert_iteratorIS5_EET0_T_SA_S9_
FNDA:0,_ZSt4copyIPSt10shared_ptrIN5lgxZJ2IS3AAIEES5_ET0_T_S7_S6_
FNDA:0,_ZSt4copyIN9__gnu_cxx17__normal_iteratorIPKSt10shared_ptrIN5lgxZJ2IS3AAIEESt6vectorIS6_SaIS6_EEEENS1_IPS6_SB_EEET0_T_SG_SF_
FNDA:45,_ZSt4moveIN9__gnu_cxx17__normal_iteratorIPP7myTemp_St6vectorIS3_SaIS3_EEEES8_ET0_T_SA_S9_
FNDA:18,_ZSt4moveIN9__gnu_cxx17__normal_iteratorIPiSt6vectorIiSaIiEEEES6_ET0_T_S8_S7_
FNDA:0,_ZNSt20__copy_move_backwardILb0ELb1ESt26random_access_iterator_tagE13__copy_move_bIPiEEPT_PKS4_S7_S5_
FNDA:3,_ZNSt20__copy_move_backwardILb1ELb1ESt26random_access_iterator_tagE13__copy_move_bIiEEPT_PKS3_S6_S4_
FNDA:0,_ZSt22__copy_move_backward_aILb0EPPiS1_ET1_T0_S3_S2_
FNDA:3,_ZSt22__copy_move_backward_aILb1EPiS0_ET1_T0_S2_S1_
FNDA:0,_ZSt23__copy_move_backward_a2ILb0EPPiS1_ET1_T0_S3_S2_
FNDA:3,_ZSt23__copy_move_backward_a2ILb1EN9__gnu_cxx17__normal_iteratorIPiSt6vectorIiSaIiEEEES6_ET1_T0_S8_S7_
FNDA:0,_ZSt13copy_backwardIPPiS1_ET0_T_S3_S2_
FNDA:3,_ZSt13move_backwardIN9__gnu_cxx17__normal_iteratorIPiSt6vectorIiSaIiEEEES6_ET0_T_S8_S7_
FNDA:1539,_ZSt4__lgl
FNF:80
FNH:52
DA:119,0
DA:147,0
DA:149,0
DA:216,5925
DA:221,5925
DA:222,3166
DA:223,2759
DA:277,58311
DA:278,58311
DA:288,31124
DA:289,31124
DA:330,256
DA:333,586
DA:335,330
DA:336,330
DA:337,330
DA:339,256
DA:368,18911
DA:370,18911
DA:371,18911
DA:372,14482
DA:373,18911
DA:379,19167
DA:387,19167
DA:390,19167
DA:424,14089
DA:428,14089
DA:450,14026
DA:460,14026
DA:483,63
DA:492,63
DA:563,3
DA:565,3
DA:566,3
DA:567,3
DA:568,3
DA:574,3
DA:582,3
DA:587,3
DA:592,3
DA:596,3
DA:619,0
DA:631,0
DA:655,3
DA:667,3
DA:988,1539
DA:989,1539
LF:47
LH:42
end_of_record
SF:/usr/include/c++/4.8/bits/stl_construct.h
FN:74,_ZSt10_ConstructIN5lgxZJ2LA13DirectedGraph8RealNodeEIRKS3_EEvPT_DpOT0_
FN:74,_ZSt10_ConstructISt10shared_ptrIN5lgxZJ2IS3AAIEEIS4_EEvPT_DpOT0_
FN:74,_ZSt10_ConstructIN5lgxZJ2LA4EdgeEIS2_EEvPT_DpOT0_
FN:74,_ZSt10_ConstructISt10shared_ptrIN5lgxZJ2IS3AAIEEIRKS4_EEvPT_DpOT0_
FN:74,_ZSt10_ConstructIN5lgxZJ2LA4EdgeEIRKS2_EEvPT_DpOT0_
FN:74,_ZSt10_ConstructISt10shared_ptrIN5lgxZJ2IS3AAIEEIRS4_EEvPT_DpOT0_
FN:92,_ZSt8_DestroyISt6vectorIP7myTemp_SaIS2_EEEvPT_
FN:92,_ZSt8_DestroyIN5lgxZJ2LA13DirectedGraph8RealNodeEEvPT_
FN:92,_ZSt8_DestroyISt10shared_ptrIN5lgxZJ2IS3AAIEEEvPT_
FN:100,_ZNSt12_Destroy_auxILb0EE9__destroyIPN5lgxZJ2LA13DirectedGraph8RealNodeEEEvT_S7_
FN:100,_ZNSt12_Destroy_auxILb0EE9__destroyIPSt10shared_ptrIN5lgxZJ2IS3AAIEEEEvT_S8_
FN:100,_ZNSt12_Destroy_auxILb0EE9__destroyIN9__gnu_cxx17__normal_iteratorIPSt10shared_ptrIN5lgxZJ2IS3AAIEESt6vectorIS8_SaIS8_EEEEEEvT_SE_
FN:100,_ZNSt12_Destroy_auxILb0EE9__destroyIPSt6vectorIP7myTemp_SaIS4_EEEEvT_S8_
FN:112,_ZNSt12_Destroy_auxILb1EE9__destroyIN9__gnu_cxx17__normal_iteratorIPiSt6vectorIiSaIiEEEEEEvT_S9_
FN:112,_ZNSt12_Destroy_auxILb1EE9__destroyIPiEEvT_S3_
FN:112,_ZNSt12_Destroy_auxILb1EE9__destroyIPP7myTemp_EEvT_S5_
FN:112,_ZNSt12_Destroy_auxILb1EE9__destroyIPN5lgxZJ2LA4EdgeEEEvT_S6_
FN:122,_ZSt8_DestroyIPP7myTemp_EvT_S3_
FN:122,_ZSt8_DestroyIPiEvT_S1_
FN:122,_ZSt8_DestroyIN9__gnu_cxx17__normal_iteratorIPiSt6vectorIiSaIiEEEEEvT_S7_
FN:122,_ZSt8_DestroyIPN5lgxZJ2LA13DirectedGraph8RealNodeEEvT_S5_
FN:122,_ZSt8_DestroyIPSt10shared_ptrIN5lgxZJ2IS3AAIEEEvT_S6_
FN:122,_ZSt8_DestroyIPSt6vectorIP7myTemp_SaIS2_EEEvT_S6_
FN:122,_ZSt8_DestroyIN9__gnu_cxx17__normal_iteratorIPSt10shared_ptrIN5lgxZJ2IS3AAIEESt6vectorIS6_SaIS6_EEEEEvT_SC_
FN:122,_ZSt8_DestroyIPN5lgxZJ2LA4EdgeEEvT_S4_
FN:148,_ZSt8_DestroyIPiiEvT_S1_RSaIT0_E
FN:148,_ZSt8_DestroyIPN5lgxZJ2LA4EdgeES2_EvT_S4_RSaIT0_E
FN:148,_ZSt8_DestroyIN9__gnu_cxx17__normal_iteratorIPiSt6vectorIiSaIiEEEEiEvT_S7_RSaIT0_E
FN:148,_ZSt8_DestroyIPP7myTemp_S1_EvT_S3_RSaIT0_E
FN:148,_ZSt8_DestroyIPSt10shared_ptrIN5lgxZJ2IS3AAIEES4_EvT_S6_RSaIT0_E
FN:148,_ZSt8_DestroyIN9__gnu_cxx17__normal_iteratorIPSt10shared_ptrIN5lgxZJ2IS3AAIEESt6vectorIS6_SaIS6_EEEES6_EvT_SC_RSaIT0_E
FN:148,_ZSt8_DestroyIPSt6vectorIP7myTemp_SaIS2_EES4_EvT_S6_RSaIT0_E
FN:148,_ZSt8_DestroyIPN5lgxZJ2LA13DirectedGraph8RealNodeES3_EvT_S5_RSaIT0_E
FNDA:0,_ZSt10_ConstructISt10shared_ptrIN5lgxZJ2IS3AAIEEIS4_EEvPT_DpOT0_
FNDA:532,_ZSt10_ConstructIN5lgxZJ2LA4EdgeEIS2_EEvPT_DpOT0_
FNDA:5324,_ZSt10_ConstructIN5lgxZJ2LA4EdgeEIRKS2_EEvPT_DpOT0_
FNDA:5621,_ZSt10_ConstructIN5lgxZJ2LA13DirectedGraph8RealNodeEIRKS3_EEvPT_DpOT0_
FNDA:0,_ZSt10_ConstructISt10shared_ptrIN5lgxZJ2IS3AAIEEIRS4_EEvPT_DpOT0_
FNDA:0,_ZSt10_ConstructISt10shared_ptrIN5lgxZJ2IS3AAIEEIRKS4_EEvPT_DpOT0_
FNDA:0,_ZSt8_DestroyISt6vectorIP7myTemp_SaIS2_EEEvPT_
FNDA:0,_ZSt8_DestroyIN5lgxZJ2LA13DirectedGraph8RealNodeEEvPT_
FNDA:0,_ZSt8_DestroyISt10shared_ptrIN5lgxZJ2IS3AAIEEEvPT_
FNDA:0,_ZNSt12_Destroy_auxILb0EE9__destroyIN9__gnu_cxx17__normal_iteratorIPSt10shared_ptrIN5lgxZJ2IS3AAIEESt6vectorIS8_SaIS8_EEEEEEvT_SE_
FNDA:0,_ZNSt12_Destroy_auxILb0EE9__destroyIPSt6vectorIP7myTemp_SaIS4_EEEEvT_S8_
FNDA:0,_ZNSt12_Destroy_auxILb0EE9__destroyIPN5lgxZJ2LA13DirectedGraph8RealNodeEEEvT_S7_
FNDA:0,_ZNSt12_Destroy_auxILb0EE9__destroyIPSt10shared_ptrIN5lgxZJ2IS3AAIEEEEvT_S8_
FNDA:16,_ZNSt12_Destroy_auxILb1EE9__destroyIN9__gnu_cxx17__normal_iteratorIPiSt6vectorIiSaIiEEEEEEvT_S9_
FNDA:0,_ZNSt12_Destroy_auxILb1EE9__destroyIPN5lgxZJ2LA4EdgeEEEvT_S6_
FNDA:0,_ZNSt12_Destroy_auxILb1EE9__destroyIPiEEvT_S3_
FNDA:0,_ZNSt12_Destroy_auxILb1EE9__destroyIPP7myTemp_EEvT_S5_
FNDA:16,_ZSt8_DestroyIN9__gnu_cxx17__normal_iteratorIPiSt6vectorIiSaIiEEEEEvT_S7_
FNDA:0,_ZSt8_DestroyIN9__gnu_cxx17__normal_iteratorIPSt10shared_ptrIN5lgxZJ2IS3AAIEESt6vectorIS6_SaIS6_EEEEEvT_SC_
FNDA:0,_ZSt8_DestroyIPSt6vectorIP7myTemp_SaIS2_EEEvT_S6_
FNDA:0,_ZSt8_DestroyIPN5lgxZJ2LA4EdgeEEvT_S4_
FNDA:0,_ZSt8_DestroyIPN5lgxZJ2LA13DirectedGraph8RealNodeEEvT_S5_
FNDA:0,_ZSt8_DestroyIPSt10shared_ptrIN5lgxZJ2IS3AAIEEEvT_S6_
FNDA:0,_ZSt8_DestroyIPiEvT_S1_
FNDA:0,_ZSt8_DestroyIPP7myTemp_EvT_S3_
FNDA:16,_ZSt8_DestroyIN9__gnu_cxx17__normal_iteratorIPiSt6vectorIiSaIiEEEEiEvT_S7_RSaIT0_E
FNDA:0,_ZSt8_DestroyIN9__gnu_cxx17__normal_iteratorIPSt10shared_ptrIN5lgxZJ2IS3AAIEESt6vectorIS6_SaIS6_EEEES6_EvT_SC_RSaIT0_E
FNDA:0,_ZSt8_DestroyIPSt6vectorIP7myTemp_SaIS2_EES4_EvT_S6_RSaIT0_E
FNDA:0,_ZSt8_DestroyIPN5lgxZJ2LA4EdgeES2_EvT_S4_RSaIT0_E
FNDA:0,_ZSt8_DestroyIPN5lgxZJ2LA13DirectedGraph8RealNodeES3_EvT_S5_RSaIT0_E
FNDA:0,_ZSt8_DestroyIPSt10shared_ptrIN5lgxZJ2IS3AAIEES4_EvT_S6_RSaIT0_E
FNDA:0,_ZSt8_DestroyIPiiEvT_S1_RSaIT0_E
FNDA:0,_ZSt8_DestroyIPP7myTemp_S1_EvT_S3_RSaIT0_E
FNF:33
FNH:6
DA:74,11477
DA:75,11477
DA:92,0
DA:93,0
DA:100,0
DA:102,0
DA:103,0
DA:104,0
DA:112,16
DA:122,16
DA:126,16
DA:128,16
DA:148,16
DA:151,16
DA:152,16
LF:15
LH:9
end_of_record
SF:/usr/include/c++/4.8/bits/stl_deque.h
FN:89,_ZSt16__deque_buf_sizem
FN:111,_ZNSt15_Deque_iteratorIiRKiPS0_E14_S_buffer_sizeEv
FN:111,_ZNSt15_Deque_iteratorIiRiPiE14_S_buffer_sizeEv
FN:132,_ZNSt15_Deque_iteratorIiRiPiEC2Ev
FN:135,_ZNSt15_Deque_iteratorIiRiPiEC2ERKS2_
FN:135,_ZNSt15_Deque_iteratorIiRKiPS0_EC2ERKS_IiRiPiE
FN:140,_ZNKSt15_Deque_iteratorIiRiPiEdeEv
FN:140,_ZNKSt15_Deque_iteratorIiRKiPS0_EdeEv
FN:148,_ZNSt15_Deque_iteratorIiRiPiEppEv
FN:148,_ZNSt15_Deque_iteratorIiRKiPS0_EppEv
FN:168,_ZNSt15_Deque_iteratorIiRiPiEmmEv
FN:234,_ZNSt15_Deque_iteratorIiRKiPS0_E11_M_set_nodeEPPi
FN:234,_ZNSt15_Deque_iteratorIiRiPiE11_M_set_nodeEPS1_
FN:247,_ZSteqIiRiPiEbRKSt15_Deque_iteratorIT_T0_T1_ES8_
FN:331,_ZStmiIiRKiPS0_ENSt15_Deque_iteratorIT_T0_T1_E15difference_typeERKS7_SA_
FN:331,_ZStmiIiRiPiENSt15_Deque_iteratorIT_T0_T1_E15difference_typeERKS6_S9_
FN:451,_ZNSt11_Deque_baseIiSaIiEEC2Ev
FN:459,_ZNSt11_Deque_baseIiSaIiEEC2ERKS0_m
FN:468,_ZNSt11_Deque_baseIiSaIiEEC2EOS1_
FN:492,_ZNSt11_Deque_baseIiSaIiEE11_Deque_implD2Ev
FN:500,_ZNSt11_Deque_baseIiSaIiEE11_Deque_implC2Ev
FN:505,_ZNSt11_Deque_baseIiSaIiEE11_Deque_implC2ERKS0_
FN:511,_ZNSt11_Deque_baseIiSaIiEE11_Deque_implC2EOS0_
FN:519,_ZNSt11_Deque_baseIiSaIiEE19_M_get_Tp_allocatorEv
FN:523,_ZNKSt11_Deque_baseIiSaIiEE19_M_get_Tp_allocatorEv
FN:527,_ZNKSt11_Deque_baseIiSaIiEE20_M_get_map_allocatorEv
FN:531,_ZNSt11_Deque_baseIiSaIiEE16_M_allocate_nodeEv
FN:537,_ZNSt11_Deque_baseIiSaIiEE18_M_deallocate_nodeEPi
FN:543,_ZNSt11_Deque_baseIiSaIiEE15_M_allocate_mapEm
FN:547,_ZNSt11_Deque_baseIiSaIiEE17_M_deallocate_mapEPPim
FN:560,_ZNSt11_Deque_baseIiSaIiEED2Ev
FN:581,_ZNSt11_Deque_baseIiSaIiEE17_M_initialize_mapEm
FN:620,_ZNSt11_Deque_baseIiSaIiEE15_M_create_nodesEPPiS3_
FN:638,_ZNSt11_Deque_baseIiSaIiEE16_M_destroy_nodesEPPiS3_
FN:782,_ZNSt5dequeIiSaIiEEC2Ev
FN:841,_ZNSt5dequeIiSaIiEEC2ERKS1_
FN:855,_ZNSt5dequeIiSaIiEEC2EOS1_
FN:917,_ZNSt5dequeIiSaIiEED2Ev
FN:1037,_ZNSt5dequeIiSaIiEE5beginEv
FN:1045,_ZNKSt5dequeIiSaIiEE5beginEv
FN:1054,_ZNSt5dequeIiSaIiEE3endEv
FN:1063,_ZNKSt5dequeIiSaIiEE3endEv
FN:1142,_ZNKSt5dequeIiSaIiEE4sizeEv
FN:1228,_ZNKSt5dequeIiSaIiEE5emptyEv
FN:1329,_ZNSt5dequeIiSaIiEE4backEv
FN:1390,_ZNSt5dequeIiSaIiEE9push_backERKi
FN:1442,_ZNSt5dequeIiSaIiEE8pop_backEv
FN:1596,_ZNSt5dequeIiSaIiEE4swapERS1_
FN:1849,_ZNSt5dequeIiSaIiEE15_M_destroy_dataESt15_Deque_iteratorIiRiPiES5_RKS0_
FN:1924,_ZNSt5dequeIiSaIiEE22_M_reserve_map_at_backEm
FN:2011,_ZSt4swapIiSaIiEEvRSt5dequeIT_T0_ES5_
FNDA:0,_ZSt16__deque_buf_sizem
FNDA:26,_ZNSt15_Deque_iteratorIiRKiPS0_E14_S_buffer_sizeEv
FNDA:198,_ZNSt15_Deque_iteratorIiRiPiE14_S_buffer_sizeEv
FNDA:172,_ZNSt15_Deque_iteratorIiRiPiEC2Ev
FNDA:52,_ZNSt15_Deque_iteratorIiRKiPS0_EC2ERKS_IiRiPiE
FNDA:0,_ZNSt15_Deque_iteratorIiRiPiEC2ERKS2_
FNDA:150,_ZNKSt15_Deque_iteratorIiRKiPS0_EdeEv
FNDA:342,_ZNKSt15_Deque_iteratorIiRiPiEdeEv
FNDA:150,_ZNSt15_Deque_iteratorIiRiPiEppEv
FNDA:150,_ZNSt15_Deque_iteratorIiRKiPS0_EppEv
FNDA:192,_ZNSt15_Deque_iteratorIiRiPiEmmEv
FNDA:0,_ZNSt15_Deque_iteratorIiRKiPS0_E11_M_set_nodeEPPi
FNDA:172,_ZNSt15_Deque_iteratorIiRiPiE11_M_set_nodeEPS1_
FNDA:216,_ZSteqIiRiPiEbRKSt15_Deque_iteratorIT_T0_T1_ES8_
FNDA:26,_ZStmiIiRKiPS0_ENSt15_Deque_iteratorIT_T0_T1_E15difference_typeERKS7_SA_
FNDA:26,_ZStmiIiRiPiENSt15_Deque_iteratorIT_T0_T1_E15difference_typeERKS6_S9_
FNDA:30,_ZNSt11_Deque_baseIiSaIiEEC2Ev
FNDA:26,_ZNSt11_Deque_baseIiSaIiEEC2ERKS0_m
FNDA:30,_ZNSt11_Deque_baseIiSaIiEEC2EOS1_
FNDA:0,_ZNSt11_Deque_baseIiSaIiEE11_Deque_implD2Ev
FNDA:30,_ZNSt11_Deque_baseIiSaIiEE11_Deque_implC2Ev
FNDA:26,_ZNSt11_Deque_baseIiSaIiEE11_Deque_implC2ERKS0_
FNDA:30,_ZNSt11_Deque_baseIiSaIiEE11_Deque_implC2EOS0_
FNDA:0,_ZNSt11_Deque_baseIiSaIiEE19_M_get_Tp_allocatorEv
FNDA:0,_ZNKSt11_Deque_baseIiSaIiEE19_M_get_Tp_allocatorEv
FNDA:0,_ZNKSt11_Deque_baseIiSaIiEE20_M_get_map_allocatorEv
FNDA:86,_ZNSt11_Deque_baseIiSaIiEE16_M_allocate_nodeEv
FNDA:0,_ZNSt11_Deque_baseIiSaIiEE18_M_deallocate_nodeEPi
FNDA:86,_ZNSt11_Deque_baseIiSaIiEE15_M_allocate_mapEm
FNDA:0,_ZNSt11_Deque_baseIiSaIiEE17_M_deallocate_mapEPPim
FNDA:0,_ZNSt11_Deque_baseIiSaIiEED2Ev
FNDA:86,_ZNSt11_Deque_baseIiSaIiEE17_M_initialize_mapEm
FNDA:86,_ZNSt11_Deque_baseIiSaIiEE15_M_create_nodesEPPiS3_
FNDA:0,_ZNSt11_Deque_baseIiSaIiEE16_M_destroy_nodesEPPiS3_
FNDA:30,_ZNSt5dequeIiSaIiEEC2Ev
FNDA:26,_ZNSt5dequeIiSaIiEEC2ERKS1_
FNDA:30,_ZNSt5dequeIiSaIiEEC2EOS1_
FNDA:0,_ZNSt5dequeIiSaIiEED2Ev
FNDA:0,_ZNSt5dequeIiSaIiEE5beginEv
FNDA:26,_ZNKSt5dequeIiSaIiEE5beginEv
FNDA:0,_ZNSt5dequeIiSaIiEE3endEv
FNDA:26,_ZNKSt5dequeIiSaIiEE3endEv
FNDA:26,_ZNKSt5dequeIiSaIiEE4sizeEv
FNDA:216,_ZNKSt5dequeIiSaIiEE5emptyEv
FNDA:192,_ZNSt5dequeIiSaIiEE4backEv
FNDA:67,_ZNSt5dequeIiSaIiEE9push_backERKi
FNDA:175,_ZNSt5dequeIiSaIiEE8pop_backEv
FNDA:15,_ZNSt5dequeIiSaIiEE4swapERS1_
FNDA:0,_ZNSt5dequeIiSaIiEE15_M_destroy_dataESt15_Deque_iteratorIiRiPiES5_RKS0_
FNDA:0,_ZNSt5dequeIiSaIiEE22_M_reserve_map_at_backEm
FNDA:15,_ZSt4swapIiSaIiEEvRSt5dequeIT_T0_ES5_
FNF:51
FNH:35
DA:89,0
DA:91,0
DA:111,224
DA:112,224
DA:132,172
DA:133,172
DA:135,52
DA:137,52
DA:140,492
DA:141,492
DA:148,300
DA:150,300
DA:151,300
DA:153,0
DA:154,0
DA:156,300
DA:168,192
DA:170,192
DA:172,0
DA:173,0
DA:175,192
DA:176,192
DA:234,172
DA:236,172
DA:237,172
DA:238,172
DA:239,172
DA:247,216
DA:249,216
DA:331,52
DA:335,52
DA:337,52
DA:451,30
DA:452,30
DA:453,30
DA:459,26
DA:460,26
DA:461,26
DA:468,30
DA:469,30
DA:471,30
DA:472,30
DA:474,30
DA:475,30
DA:476,30
DA:477,30
DA:479,30
DA:492,0
DA:500,30
DA:502,30
DA:503,30
DA:505,26
DA:507,26
DA:508,26
DA:511,30
DA:512,30
DA:513,30
DA:514,30
DA:519,0
DA:520,0
DA:523,0
DA:524,0
DA:527,0
DA:528,0
DA:531,86
DA:533,86
DA:537,0
DA:539,0
DA:540,0
DA:543,86
DA:544,86
DA:547,0
DA:548,0
DA:560,0
DA:563,0
DA:565,0
DA:566,0
DA:567,0
DA:569,0
DA:581,86
DA:584,86
DA:585,86
DA:587,86
DA:588,172
DA:589,86
DA:597,86
DA:598,86
DA:601,86
DA:602,0
DA:604,0
DA:605,0
DA:606,0
DA:607,0
DA:610,86
DA:611,86
DA:612,86
DA:613,86
DA:614,172
DA:615,86
DA:616,86
DA:620,86
DA:626,172
DA:627,86
DA:629,0
DA:631,0
DA:632,0
DA:634,86
DA:638,0
DA:641,0
DA:642,0
DA:643,0
DA:782,30
DA:783,30
DA:841,26
DA:842,26
DA:843,26
DA:845,52
DA:855,30
DA:856,30
DA:917,0
DA:918,0
DA:1037,0
DA:1038,0
DA:1045,26
DA:1046,26
DA:1054,0
DA:1055,0
DA:1063,26
DA:1064,26
DA:1142,26
DA:1143,26
DA:1228,216
DA:1229,216
DA:1329,192
DA:1331,192
DA:1332,192
DA:1333,192
DA:1390,67
DA:1392,134
DA:1393,67
DA:1395,67
DA:1396,67
DA:1399,0
DA:1400,67
DA:1442,175
DA:1444,175
DA:1447,175
DA:1448,175
DA:1451,0
DA:1452,175
DA:1596,15
DA:1598,15
DA:1599,15
DA:1600,15
DA:1601,15
DA:1605,15
DA:1606,15
DA:1607,15
DA:1849,0
DA:1854,0
DA:1924,0
DA:1926,0
DA:1928,0
DA:1929,0
DA:2011,15
DA:2012,15
LF:166
LH:116
end_of_record
SF:/usr/include/c++/4.8/bits/stl_function.h
FN:234,_ZNKSt4lessIP7myTemp_EclERKS1_S4_
FN:234,_ZNKSt4lessIiEclERKiS2_
FN:494,_ZNKSt10_Select1stISt4pairIKP7myTemp_S2_EEclERKS4_
FN:494,_ZNKSt10_Select1stISt4pairIKiSt6vectorIiSaIiEEEEclERKS5_
FN:494,_ZNKSt10_Select1stISt4pairIKiP7myTemp_EEclERKS4_
FN:494,_ZNKSt10_Select1stISt4pairIKijEEclERKS2_
FN:494,_ZNKSt10_Select1stISt4pairIKiP9myAccess_EEclERKS4_
FNDA:0,_ZNKSt4lessIP7myTemp_EclERKS1_S4_
FNDA:3765,_ZNKSt4lessIiEclERKiS2_
FNDA:0,_ZNKSt10_Select1stISt4pairIKP7myTemp_S2_EEclERKS4_
FNDA:0,_ZNKSt10_Select1stISt4pairIKiP9myAccess_EEclERKS4_
FNDA:519,_ZNKSt10_Select1stISt4pairIKiP7myTemp_EEclERKS4_
FNDA:906,_ZNKSt10_Select1stISt4pairIKiSt6vectorIiSaIiEEEEclERKS5_
FNDA:2183,_ZNKSt10_Select1stISt4pairIKijEEclERKS2_
FNF:7
FNH:4
DA:234,3765
DA:235,3765
DA:494,3608
DA:495,3608
LF:4
LH:4
end_of_record
SF:/usr/include/c++/4.8/bits/stl_heap.h
FN:131,_ZSt11__push_heapIN9__gnu_cxx17__normal_iteratorIPiSt6vectorIiSaIiEEEEliEvT_T0_S8_T1_
FN:227,_ZSt13__adjust_heapIN9__gnu_cxx17__normal_iteratorIPiSt6vectorIiSaIiEEEEliEvT_T0_S8_T1_
FN:253,_ZSt10__pop_heapIN9__gnu_cxx17__normal_iteratorIPiSt6vectorIiSaIiEEEEEvT_S7_S7_
FN:386,_ZSt9make_heapIN9__gnu_cxx17__normal_iteratorIPiSt6vectorIiSaIiEEEEEvT_S7_
FN:465,_ZSt9sort_heapIN9__gnu_cxx17__normal_iteratorIPiSt6vectorIiSaIiEEEEEvT_S7_
FNDA:0,_ZSt11__push_heapIN9__gnu_cxx17__normal_iteratorIPiSt6vectorIiSaIiEEEEliEvT_T0_S8_T1_
FNDA:0,_ZSt13__adjust_heapIN9__gnu_cxx17__normal_iteratorIPiSt6vectorIiSaIiEEEEliEvT_T0_S8_T1_
FNDA:0,_ZSt10__pop_heapIN9__gnu_cxx17__normal_iteratorIPiSt6vectorIiSaIiEEEEEvT_S7_S7_
FNDA:0,_ZSt9make_heapIN9__gnu_cxx17__normal_iteratorIPiSt6vectorIiSaIiEEEEEvT_S7_
FNDA:0,_ZSt9sort_heapIN9__gnu_cxx17__normal_iteratorIPiSt6vectorIiSaIiEEEEEvT_S7_
FNF:5
FNH:0
DA:131,0
DA:134,0
DA:135,0
DA:137,0
DA:138,0
DA:139,0
DA:141,0
DA:142,0
DA:227,0
DA:230,0
DA:231,0
DA:232,0
DA:234,0
DA:235,0
DA:236,0
DA:237,0
DA:238,0
DA:240,0
DA:242,0
DA:243,0
DA:245,0
DA:247,0
DA:248,0
DA:249,0
DA:253,0
DA:261,0
DA:262,0
DA:263,0
DA:265,0
DA:266,0
DA:386,0
DA:399,0
DA:400,0
DA:402,0
DA:403,0
DA:406,0
DA:407,0
DA:408,0
DA:409,0
DA:410,0
DA:411,0
DA:465,0
DA:475,0
DA:477,0
DA:478,0
DA:480,0
LF:46
LH:0
end_of_record
SF:/usr/include/c++/4.8/bits/stl_iterator.h
FN:414,_ZNSt20back_insert_iteratorISt6vectorIiSaIiEEEC2ERS2_
FN:436,_ZNSt20back_insert_iteratorISt6vectorIiSaIiEEEaSERKi
FN:452,_ZNSt20back_insert_iteratorISt6vectorIiSaIiEEEdeEv
FN:457,_ZNSt20back_insert_iteratorISt6vectorIiSaIiEEEppEv
FN:479,_ZSt13back_inserterISt6vectorIiSaIiEEESt20back_insert_iteratorIT_ERS4_
FN:726,_ZN9__gnu_cxx17__normal_iteratorIPKN5lgxZJ2LA13DirectedGraph8RealNodeESt6vectorIS4_SaIS4_EEEC2ERKS6_
FN:726,_ZN9__gnu_cxx17__normal_iteratorIPKP7myTemp_St6vectorIS2_SaIS2_EEEC2ERKS4_
FN:726,_ZN9__gnu_cxx17__normal_iteratorIPKiSt6vectorIiSaIiEEEC2ERKS2_
FN:726,_ZN9__gnu_cxx17__normal_iteratorIPSt10shared_ptrIN5lgxZJ2IS3AAIEESt6vectorIS5_SaIS5_EEEC2ERKS6_
FN:726,_ZN9__gnu_cxx17__normal_iteratorIPKSt10shared_ptrIN5lgxZJ2IS3AAIEESt6vectorIS5_SaIS5_EEEC2ERKS7_
FN:726,_ZN9__gnu_cxx17__normal_iteratorIPKN5lgxZJ2LA4EdgeESt6vectorIS3_SaIS3_EEEC2ERKS5_
FN:726,_ZN9__gnu_cxx17__normal_iteratorIPN5lgxZJ2LA4EdgeESt6vectorIS3_SaIS3_EEEC2ERKS4_
FN:726,_ZN9__gnu_cxx17__normal_iteratorIPiSt6vectorIiSaIiEEEC2ERKS1_
FN:726,_ZN9__gnu_cxx17__normal_iteratorIPP7myTemp_St6vectorIS2_SaIS2_EEEC2ERKS3_
FN:738,_ZNK9__gnu_cxx17__normal_iteratorIPN5lgxZJ2LA4EdgeESt6vectorIS3_SaIS3_EEEdeEv
FN:738,_ZNK9__gnu_cxx17__normal_iteratorIPKSt10shared_ptrIN5lgxZJ2IS3AAIEESt6vectorIS5_SaIS5_EEEdeEv
FN:738,_ZNK9__gnu_cxx17__normal_iteratorIPiSt6vectorIiSaIiEEEdeEv
FN:738,_ZNK9__gnu_cxx17__normal_iteratorIPSt10shared_ptrIN5lgxZJ2IS3AAIEESt6vectorIS5_SaIS5_EEEdeEv
FN:738,_ZNK9__gnu_cxx17__normal_iteratorIPP7myTemp_St6vectorIS2_SaIS2_EEEdeEv
FN:738,_ZNK9__gnu_cxx17__normal_iteratorIPKN5lgxZJ2LA13DirectedGraph8RealNodeESt6vectorIS4_SaIS4_EEEdeEv
FN:738,_ZNK9__gnu_cxx17__normal_iteratorIPKN5lgxZJ2LA4EdgeESt6vectorIS3_SaIS3_EEEdeEv
FN:746,_ZN9__gnu_cxx17__normal_iteratorIPKN5lgxZJ2LA13DirectedGraph8RealNodeESt6vectorIS4_SaIS4_EEEppEv
FN:746,_ZN9__gnu_cxx17__normal_iteratorIPP7myTemp_St6vectorIS2_SaIS2_EEEppEv
FN:746,_ZN9__gnu_cxx17__normal_iteratorIPN5lgxZJ2LA4EdgeESt6vectorIS3_SaIS3_EEEppEv
FN:746,_ZN9__gnu_cxx17__normal_iteratorIPSt10shared_ptrIN5lgxZJ2IS3AAIEESt6vectorIS5_SaIS5_EEEppEv
FN:746,_ZN9__gnu_cxx17__normal_iteratorIPiSt6vectorIiSaIiEEEppEv
FN:746,_ZN9__gnu_cxx17__normal_iteratorIPKSt10shared_ptrIN5lgxZJ2IS3AAIEESt6vectorIS5_SaIS5_EEEppEv
FN:746,_ZN9__gnu_cxx17__normal_iteratorIPKN5lgxZJ2LA4EdgeESt6vectorIS3_SaIS3_EEEppEv
FN:758,_ZN9__gnu_cxx17__normal_iteratorIPiSt6vectorIiSaIiEEEmmEv
FN:778,_ZNK9__gnu_cxx17__normal_iteratorIPP7myTemp_St6vectorIS2_SaIS2_EEEplERKl
FN:778,_ZNK9__gnu_cxx17__normal_iteratorIPiSt6vectorIiSaIiEEEplERKl
FN:786,_ZNK9__gnu_cxx17__normal_iteratorIPiSt6vectorIiSaIiEEEmiERKl
FN:786,_ZNK9__gnu_cxx17__normal_iteratorIPN5lgxZJ2LA4EdgeESt6vectorIS3_SaIS3_EEEmiERKl
FN:790,_ZNK9__gnu_cxx17__normal_iteratorIPKiSt6vectorIiSaIiEEE4baseEv
FN:790,_ZNK9__gnu_cxx17__normal_iteratorIPKN5lgxZJ2LA13DirectedGraph8RealNodeESt6vectorIS4_SaIS4_EEE4baseEv
FN:790,_ZNK9__gnu_cxx17__normal_iteratorIPKN5lgxZJ2LA4EdgeESt6vectorIS3_SaIS3_EEE4baseEv
FN:790,_ZNK9__gnu_cxx17__normal_iteratorIPP7myTemp_St6vectorIS2_SaIS2_EEE4baseEv
FN:790,_ZNK9__gnu_cxx17__normal_iteratorIPSt10shared_ptrIN5lgxZJ2IS3AAIEESt6vectorIS5_SaIS5_EEE4baseEv
FN:790,_ZNK9__gnu_cxx17__normal_iteratorIPKP7myTemp_St6vectorIS2_SaIS2_EEE4baseEv
FN:790,_ZNK9__gnu_cxx17__normal_iteratorIPN5lgxZJ2LA4EdgeESt6vectorIS3_SaIS3_EEE4baseEv
FN:790,_ZNK9__gnu_cxx17__normal_iteratorIPKSt10shared_ptrIN5lgxZJ2IS3AAIEESt6vectorIS5_SaIS5_EEE4baseEv
FN:790,_ZNK9__gnu_cxx17__normal_iteratorIPiSt6vectorIiSaIiEEE4baseEv
FN:811,_ZN9__gnu_cxxeqIPiSt6vectorIiSaIiEEEEbRKNS_17__normal_iteratorIT_T0_EESA_
FN:811,_ZN9__gnu_cxxeqIPKP7myTemp_St6vectorIS2_SaIS2_EEEEbRKNS_17__normal_iteratorIT_T0_EESD_
FN:811,_ZN9__gnu_cxxeqIPKiSt6vectorIiSaIiEEEEbRKNS_17__normal_iteratorIT_T0_EESB_
FN:811,_ZN9__gnu_cxxeqIPKN5lgxZJ2LA4EdgeESt6vectorIS3_SaIS3_EEEEbRKNS_17__normal_iteratorIT_T0_EESE_
FN:823,_ZN9__gnu_cxxneIPSt10shared_ptrIN5lgxZJ2IS3AAIEESt6vectorIS5_SaIS5_EEEEbRKNS_17__normal_iteratorIT_T0_EESF_
FN:823,_ZN9__gnu_cxxneIPKN5lgxZJ2LA4EdgeESt6vectorIS3_SaIS3_EEEEbRKNS_17__normal_iteratorIT_T0_EESE_
FN:823,_ZN9__gnu_cxxneIPP7myTemp_St6vectorIS2_SaIS2_EEEEbRKNS_17__normal_iteratorIT_T0_EESC_
FN:823,_ZN9__gnu_cxxneIPKSt10shared_ptrIN5lgxZJ2IS3AAIEESt6vectorIS5_SaIS5_EEEEbRKNS_17__normal_iteratorIT_T0_EESG_
FN:823,_ZN9__gnu_cxxneIPKN5lgxZJ2LA13DirectedGraph8RealNodeESt6vectorIS4_SaIS4_EEEEbRKNS_17__normal_iteratorIT_T0_EESF_
FN:823,_ZN9__gnu_cxxneIPN5lgxZJ2LA4EdgeESt6vectorIS3_SaIS3_EEEEbRKNS_17__normal_iteratorIT_T0_EESD_
FN:823,_ZN9__gnu_cxxneIPiSt6vectorIiSaIiEEEEbRKNS_17__normal_iteratorIT_T0_EESA_
FN:836,_ZN9__gnu_cxxltIPiSt6vectorIiSaIiEEEEbRKNS_17__normal_iteratorIT_T0_EESA_
FN:896,_ZN9__gnu_cxxmiIPiSt6vectorIiSaIiEEEENS_17__normal_iteratorIT_T0_E15difference_typeERKS8_SB_
FN:896,_ZN9__gnu_cxxmiIPP7myTemp_St6vectorIS2_SaIS2_EEEENS_17__normal_iteratorIT_T0_E15difference_typeERKSA_SD_
FN:950,_ZNSt13move_iteratorIPN5lgxZJ2LA4EdgeEEC2ES3_
FN:950,_ZNSt13move_iteratorIPiEC2ES0_
FN:950,_ZNSt13move_iteratorIPSt10shared_ptrIN5lgxZJ2IS3AAIEEEC2ES5_
FN:958,_ZNKSt13move_iteratorIPSt10shared_ptrIN5lgxZJ2IS3AAIEEE4baseEv
FN:958,_ZNKSt13move_iteratorIPN5lgxZJ2LA4EdgeEE4baseEv
FN:958,_ZNKSt13move_iteratorIPiE4baseEv
FN:962,_ZNKSt13move_iteratorIPSt10shared_ptrIN5lgxZJ2IS3AAIEEEdeEv
FN:962,_ZNKSt13move_iteratorIPN5lgxZJ2LA4EdgeEEdeEv
FN:970,_ZNSt13move_iteratorIPSt10shared_ptrIN5lgxZJ2IS3AAIEEEppEv
FN:970,_ZNSt13move_iteratorIPN5lgxZJ2LA4EdgeEEppEv
FN:1037,_ZSteqIPSt10shared_ptrIN5lgxZJ2IS3AAIEEEbRKSt13move_iteratorIT_ESA_
FN:1037,_ZSteqIPN5lgxZJ2LA4EdgeEEbRKSt13move_iteratorIT_ES8_
FN:1049,_ZStneIPSt10shared_ptrIN5lgxZJ2IS3AAIEEEbRKSt13move_iteratorIT_ESA_
FN:1049,_ZStneIPN5lgxZJ2LA4EdgeEEbRKSt13move_iteratorIT_ES8_
FN:1132,_ZSt32__make_move_if_noexcept_iteratorIPSt10shared_ptrIN5lgxZJ2IS3AAIEESt13move_iteratorIS5_EET0_T_
FN:1132,_ZSt32__make_move_if_noexcept_iteratorIPN5lgxZJ2LA4EdgeESt13move_iteratorIS3_EET0_T_
FN:1132,_ZSt32__make_move_if_noexcept_iteratorIPiSt13move_iteratorIS0_EET0_T_
FNDA:115,_ZNSt20back_insert_iteratorISt6vectorIiSaIiEEEC2ERS2_
FNDA:208,_ZNSt20back_insert_iteratorISt6vectorIiSaIiEEEaSERKi
FNDA:208,_ZNSt20back_insert_iteratorISt6vectorIiSaIiEEEdeEv
FNDA:208,_ZNSt20back_insert_iteratorISt6vectorIiSaIiEEEppEv
FNDA:115,_ZSt13back_inserterISt6vectorIiSaIiEEESt20back_insert_iteratorIT_ERS4_
FNDA:3376,_ZN9__gnu_cxx17__normal_iteratorIPKP7myTemp_St6vectorIS2_SaIS2_EEEC2ERKS4_
FNDA:8460,_ZN9__gnu_cxx17__normal_iteratorIPKN5lgxZJ2LA13DirectedGraph8RealNodeESt6vectorIS4_SaIS4_EEEC2ERKS6_
FNDA:2704,_ZN9__gnu_cxx17__normal_iteratorIPKN5lgxZJ2LA4EdgeESt6vectorIS3_SaIS3_EEEC2ERKS5_
FNDA:23934,_ZN9__gnu_cxx17__normal_iteratorIPKiSt6vectorIiSaIiEEEC2ERKS2_
FNDA:210,_ZN9__gnu_cxx17__normal_iteratorIPKSt10shared_ptrIN5lgxZJ2IS3AAIEESt6vectorIS5_SaIS5_EEEC2ERKS7_
FNDA:0,_ZN9__gnu_cxx17__normal_iteratorIPSt10shared_ptrIN5lgxZJ2IS3AAIEESt6vectorIS5_SaIS5_EEEC2ERKS6_
FNDA:11921,_ZN9__gnu_cxx17__normal_iteratorIPP7myTemp_St6vectorIS2_SaIS2_EEEC2ERKS3_
FNDA:616,_ZN9__gnu_cxx17__normal_iteratorIPN5lgxZJ2LA4EdgeESt6vectorIS3_SaIS3_EEEC2ERKS4_
FNDA:3331,_ZN9__gnu_cxx17__normal_iteratorIPiSt6vectorIiSaIiEEEC2ERKS1_
FNDA:14894,_ZNK9__gnu_cxx17__normal_iteratorIPKN5lgxZJ2LA4EdgeESt6vectorIS3_SaIS3_EEEdeEv
FNDA:5621,_ZNK9__gnu_cxx17__normal_iteratorIPKN5lgxZJ2LA13DirectedGraph8RealNodeESt6vectorIS4_SaIS4_EEEdeEv
FNDA:973,_ZNK9__gnu_cxx17__normal_iteratorIPKSt10shared_ptrIN5lgxZJ2IS3AAIEESt6vectorIS5_SaIS5_EEEdeEv
FNDA:20739,_ZNK9__gnu_cxx17__normal_iteratorIPP7myTemp_St6vectorIS2_SaIS2_EEEdeEv
FNDA:0,_ZNK9__gnu_cxx17__normal_iteratorIPSt10shared_ptrIN5lgxZJ2IS3AAIEESt6vectorIS5_SaIS5_EEEdeEv
FNDA:363,_ZNK9__gnu_cxx17__normal_iteratorIPN5lgxZJ2LA4EdgeESt6vectorIS3_SaIS3_EEEdeEv
FNDA:2482,_ZNK9__gnu_cxx17__normal_iteratorIPiSt6vectorIiSaIiEEEdeEv
FNDA:14894,_ZN9__gnu_cxx17__normal_iteratorIPKN5lgxZJ2LA4EdgeESt6vectorIS3_SaIS3_EEEppEv
FNDA:5621,_ZN9__gnu_cxx17__normal_iteratorIPKN5lgxZJ2LA13DirectedGraph8RealNodeESt6vectorIS4_SaIS4_EEEppEv
FNDA:973,_ZN9__gnu_cxx17__normal_iteratorIPKSt10shared_ptrIN5lgxZJ2IS3AAIEESt6vectorIS5_SaIS5_EEEppEv
FNDA:6712,_ZN9__gnu_cxx17__normal_iteratorIPP7myTemp_St6vectorIS2_SaIS2_EEEppEv
FNDA:0,_ZN9__gnu_cxx17__normal_iteratorIPSt10shared_ptrIN5lgxZJ2IS3AAIEESt6vectorIS5_SaIS5_EEEppEv
FNDA:250,_ZN9__gnu_cxx17__normal_iteratorIPN5lgxZJ2LA4EdgeESt6vectorIS3_SaIS3_EEEppEv
FNDA:1847,_ZN9__gnu_cxx17__normal_iteratorIPiSt6vectorIiSaIiEEEppEv
FNDA:86,_ZN9__gnu_cxx17__normal_iteratorIPiSt6vectorIiSaIiEEEmmEv
FNDA:148,_ZNK9__gnu_cxx17__normal_iteratorIPiSt6vectorIiSaIiEEEplERKl
FNDA:1639,_ZNK9__gnu_cxx17__normal_iteratorIPP7myTemp_St6vectorIS2_SaIS2_EEEplERKl
FNDA:35,_ZNK9__gnu_cxx17__normal_iteratorIPN5lgxZJ2LA4EdgeESt6vectorIS3_SaIS3_EEEmiERKl
FNDA:83,_ZNK9__gnu_cxx17__normal_iteratorIPiSt6vectorIiSaIiEEEmiERKl
FNDA:19702,_ZNK9__gnu_cxx17__normal_iteratorIPKN5lgxZJ2LA13DirectedGraph8RealNodeESt6vectorIS4_SaIS4_EEE4baseEv
FNDA:2156,_ZNK9__gnu_cxx17__normal_iteratorIPKSt10shared_ptrIN5lgxZJ2IS3AAIEESt6vectorIS5_SaIS5_EEE4baseEv
FNDA:3376,_ZNK9__gnu_cxx17__normal_iteratorIPKP7myTemp_St6vectorIS2_SaIS2_EEE4baseEv
FNDA:32492,_ZNK9__gnu_cxx17__normal_iteratorIPKN5lgxZJ2LA4EdgeESt6vectorIS3_SaIS3_EEE4baseEv
FNDA:23934,_ZNK9__gnu_cxx17__normal_iteratorIPKiSt6vectorIiSaIiEEE4baseEv
FNDA:0,_ZNK9__gnu_cxx17__normal_iteratorIPSt10shared_ptrIN5lgxZJ2IS3AAIEESt6vectorIS5_SaIS5_EEE4baseEv
FNDA:41158,_ZNK9__gnu_cxx17__normal_iteratorIPP7myTemp_St6vectorIS2_SaIS2_EEE4baseEv
FNDA:1046,_ZNK9__gnu_cxx17__normal_iteratorIPN5lgxZJ2LA4EdgeESt6vectorIS3_SaIS3_EEE4baseEv
FNDA:8059,_ZNK9__gnu_cxx17__normal_iteratorIPiSt6vectorIiSaIiEEE4baseEv
FNDA:83,_ZN9__gnu_cxxeqIPiSt6vectorIiSaIiEEEEbRKNS_17__normal_iteratorIT_T0_EESA_
FNDA:50,_ZN9__gnu_cxxeqIPKP7myTemp_St6vectorIS2_SaIS2_EEEEbRKNS_17__normal_iteratorIT_T0_EESD_
FNDA:93,_ZN9__gnu_cxxeqIPKN5lgxZJ2LA4EdgeESt6vectorIS3_SaIS3_EEEEbRKNS_17__normal_iteratorIT_T0_EESE_
FNDA:425,_ZN9__gnu_cxxeqIPKiSt6vectorIiSaIiEEEEbRKNS_17__normal_iteratorIT_T0_EESB_
FNDA:16153,_ZN9__gnu_cxxneIPKN5lgxZJ2LA4EdgeESt6vectorIS3_SaIS3_EEEEbRKNS_17__normal_iteratorIT_T0_EESE_
FNDA:6009,_ZN9__gnu_cxxneIPKN5lgxZJ2LA13DirectedGraph8RealNodeESt6vectorIS4_SaIS4_EEEEbRKNS_17__normal_iteratorIT_T0_EESF_
FNDA:1078,_ZN9__gnu_cxxneIPKSt10shared_ptrIN5lgxZJ2IS3AAIEESt6vectorIS5_SaIS5_EEEEbRKNS_17__normal_iteratorIT_T0_EESG_
FNDA:0,_ZN9__gnu_cxxneIPSt10shared_ptrIN5lgxZJ2IS3AAIEESt6vectorIS5_SaIS5_EEEEbRKNS_17__normal_iteratorIT_T0_EESF_
FNDA:13001,_ZN9__gnu_cxxneIPP7myTemp_St6vectorIS2_SaIS2_EEEEbRKNS_17__normal_iteratorIT_T0_EESC_
FNDA:523,_ZN9__gnu_cxxneIPN5lgxZJ2LA4EdgeESt6vectorIS3_SaIS3_EEEEbRKNS_17__normal_iteratorIT_T0_EESD_
FNDA:3231,_ZN9__gnu_cxxneIPiSt6vectorIiSaIiEEEEbRKNS_17__normal_iteratorIT_T0_EESA_
FNDA:0,_ZN9__gnu_cxxltIPiSt6vectorIiSaIiEEEEbRKNS_17__normal_iteratorIT_T0_EESA_
FNDA:4495,_ZN9__gnu_cxxmiIPP7myTemp_St6vectorIS2_SaIS2_EEEENS_17__normal_iteratorIT_T0_E15difference_typeERKSA_SD_
FNDA:446,_ZN9__gnu_cxxmiIPiSt6vectorIiSaIiEEEENS_17__normal_iteratorIT_T0_E15difference_typeERKS8_SB_
FNDA:0,_ZNSt13move_iteratorIPSt10shared_ptrIN5lgxZJ2IS3AAIEEEC2ES5_
FNDA:482,_ZNSt13move_iteratorIPN5lgxZJ2LA4EdgeEEC2ES3_
FNDA:4256,_ZNSt13move_iteratorIPiEC2ES0_
FNDA:4256,_ZNKSt13move_iteratorIPiE4baseEv
FNDA:0,_ZNKSt13move_iteratorIPSt10shared_ptrIN5lgxZJ2IS3AAIEEE4baseEv
FNDA:1546,_ZNKSt13move_iteratorIPN5lgxZJ2LA4EdgeEE4baseEv
FNDA:0,_ZNKSt13move_iteratorIPSt10shared_ptrIN5lgxZJ2IS3AAIEEEdeEv
FNDA:532,_ZNKSt13move_iteratorIPN5lgxZJ2LA4EdgeEEdeEv
FNDA:0,_ZNSt13move_iteratorIPSt10shared_ptrIN5lgxZJ2IS3AAIEEEppEv
FNDA:532,_ZNSt13move_iteratorIPN5lgxZJ2LA4EdgeEEppEv
FNDA:0,_ZSteqIPSt10shared_ptrIN5lgxZJ2IS3AAIEEEbRKSt13move_iteratorIT_ESA_
FNDA:773,_ZSteqIPN5lgxZJ2LA4EdgeEEbRKSt13move_iteratorIT_ES8_
FNDA:0,_ZStneIPSt10shared_ptrIN5lgxZJ2IS3AAIEEEbRKSt13move_iteratorIT_ESA_
FNDA:773,_ZStneIPN5lgxZJ2LA4EdgeEEbRKSt13move_iteratorIT_ES8_
FNDA:0,_ZSt32__make_move_if_noexcept_iteratorIPSt10shared_ptrIN5lgxZJ2IS3AAIEESt13move_iteratorIS5_EET0_T_
FNDA:482,_ZSt32__make_move_if_noexcept_iteratorIPN5lgxZJ2LA4EdgeESt13move_iteratorIS3_EET0_T_
FNDA:4256,_ZSt32__make_move_if_noexcept_iteratorIPiSt13move_iteratorIS0_EET0_T_
FNF:73
FNH:60
DA:414,115
DA:436,208
DA:438,208
DA:439,208
DA:452,208
DA:453,208
DA:457,208
DA:458,208
DA:479,115
DA:480,115
DA:726,54552
DA:738,45072
DA:739,45072
DA:746,30297
DA:748,30297
DA:749,30297
DA:758,86
DA:760,86
DA:761,86
DA:778,1787
DA:779,1787
DA:786,118
DA:787,118
DA:790,131923
DA:791,131923
DA:811,651
DA:813,651
DA:823,39995
DA:825,39995
DA:836,0
DA:838,0
DA:896,4941
DA:898,4941
DA:950,4738
DA:951,4738
DA:958,5802
DA:959,5802
DA:962,532
DA:963,532
DA:970,532
DA:972,532
DA:973,532
DA:1037,773
DA:1039,773
DA:1049,773
DA:1051,773
DA:1132,4738
DA:1133,4738
LF:48
LH:46
end_of_record
SF:/usr/include/c++/4.8/bits/stl_iterator_base_funcs.h
FN:90,_ZSt10__distanceIN9__gnu_cxx17__normal_iteratorIPP7myTemp_St6vectorIS3_SaIS3_EEEEENSt15iterator_traitsIT_E15difference_typeESA_SA_St26random_access_iterator_tag
FN:90,_ZSt10__distanceIPKP7myTemp_ENSt15iterator_traitsIT_E15difference_typeES5_S5_St26random_access_iterator_tag
FN:114,_ZSt8distanceIPKP7myTemp_ENSt15iterator_traitsIT_E15difference_typeES5_S5_
FN:114,_ZSt8distanceIN9__gnu_cxx17__normal_iteratorIPP7myTemp_St6vectorIS3_SaIS3_EEEEENSt15iterator_traitsIT_E15difference_typeESA_SA_
FNDA:50,_ZSt10__distanceIN9__gnu_cxx17__normal_iteratorIPP7myTemp_St6vectorIS3_SaIS3_EEEEENSt15iterator_traitsIT_E15difference_typeESA_SA_St26random_access_iterator_tag
FNDA:50,_ZSt10__distanceIPKP7myTemp_ENSt15iterator_traitsIT_E15difference_typeES5_S5_St26random_access_iterator_tag
FNDA:50,_ZSt8distanceIN9__gnu_cxx17__normal_iteratorIPP7myTemp_St6vectorIS3_SaIS3_EEEEENSt15iterator_traitsIT_E15difference_typeESA_SA_
FNDA:50,_ZSt8distanceIPKP7myTemp_ENSt15iterator_traitsIT_E15difference_typeES5_S5_
FNF:4
FNH:4
DA:90,100
DA:96,100
DA:114,100
DA:118,100
LF:4
LH:4
end_of_record
SF:/usr/include/c++/4.8/bits/stl_iterator_base_types.h
FN:118,_ZNSt8iteratorISt19output_iterator_tagvvvvEC2Ev
FN:201,_ZSt19__iterator_categoryIPKP7myTemp_ENSt15iterator_traitsIT_E17iterator_categoryERKS5_
FN:201,_ZSt19__iterator_categoryIN9__gnu_cxx17__normal_iteratorIPP7myTemp_St6vectorIS3_SaIS3_EEEEENSt15iterator_traitsIT_E17iterator_categoryERKSA_
FN:201,_ZSt19__iterator_categoryIN9__gnu_cxx17__normal_iteratorIPiSt6vectorIiSaIiEEEEENSt15iterator_traitsIT_E17iterator_categoryERKS8_
FN:212,_ZNSt10_Iter_baseIN9__gnu_cxx17__normal_iteratorIPKSt10shared_ptrIN5lgxZJ2IS3AAIEESt6vectorIS6_SaIS6_EEEELb0EE7_S_baseESC_
FN:212,_ZNSt10_Iter_baseISt20back_insert_iteratorISt6vectorIiSaIiEEELb0EE7_S_baseES4_
FN:212,_ZNSt10_Iter_baseISt15_Deque_iteratorIiRiPiELb0EE7_S_baseES3_
FN:212,_ZNSt10_Iter_baseIPP7myTemp_Lb0EE7_S_baseES2_
FN:212,_ZNSt10_Iter_baseISt15_Deque_iteratorIiRKiPS1_ELb0EE7_S_baseES4_
FN:212,_ZNSt10_Iter_baseIPPiLb0EE7_S_baseES1_
FN:212,_ZNSt10_Iter_baseIN9__gnu_cxx17__normal_iteratorIPiSt6vectorIiSaIiEEEELb0EE7_S_baseES6_
FN:212,_ZNSt10_Iter_baseIPiLb0EE7_S_baseES0_
FN:212,_ZNSt10_Iter_baseIPSt10shared_ptrIN5lgxZJ2IS3AAIEELb0EE7_S_baseES5_
FN:212,_ZNSt10_Iter_baseIN9__gnu_cxx17__normal_iteratorIPKiSt6vectorIiSaIiEEEELb0EE7_S_baseES7_
FN:212,_ZNSt10_Iter_baseIPKP7myTemp_Lb0EE7_S_baseES3_
FN:212,_ZNSt10_Iter_baseIN9__gnu_cxx17__normal_iteratorIPP7myTemp_St6vectorIS3_SaIS3_EEEELb0EE7_S_baseES8_
FN:220,_ZNSt10_Iter_baseIN9__gnu_cxx17__normal_iteratorIPSt10shared_ptrIN5lgxZJ2IS3AAIEESt6vectorIS6_SaIS6_EEEELb1EE7_S_baseESB_
FN:220,_ZNSt10_Iter_baseIN9__gnu_cxx17__normal_iteratorIPP7myTemp_St6vectorIS3_SaIS3_EEEELb1EE7_S_baseES8_
FN:220,_ZNSt10_Iter_baseISt13move_iteratorIPiELb1EE7_S_baseES2_
FN:220,_ZNSt10_Iter_baseIN9__gnu_cxx17__normal_iteratorIPKiSt6vectorIiSaIiEEEELb1EE7_S_baseES7_
FN:220,_ZNSt10_Iter_baseIN9__gnu_cxx17__normal_iteratorIPiSt6vectorIiSaIiEEEELb1EE7_S_baseES6_
FN:220,_ZNSt10_Iter_baseIN9__gnu_cxx17__normal_iteratorIPKSt10shared_ptrIN5lgxZJ2IS3AAIEESt6vectorIS6_SaIS6_EEEELb1EE7_S_baseESC_
FNDA:977,_ZNSt8iteratorISt19output_iterator_tagvvvvEC2Ev
FNDA:50,_ZSt19__iterator_categoryIPKP7myTemp_ENSt15iterator_traitsIT_E17iterator_categoryERKS5_
FNDA:111,_ZSt19__iterator_categoryIN9__gnu_cxx17__normal_iteratorIPP7myTemp_St6vectorIS3_SaIS3_EEEEENSt15iterator_traitsIT_E17iterator_categoryERKSA_
FNDA:102,_ZSt19__iterator_categoryIN9__gnu_cxx17__normal_iteratorIPiSt6vectorIiSaIiEEEEENSt15iterator_traitsIT_E17iterator_categoryERKS8_
FNDA:13116,_ZNSt10_Iter_baseIPP7myTemp_Lb0EE7_S_baseES2_
FNDA:200,_ZNSt10_Iter_baseIPKP7myTemp_Lb0EE7_S_baseES3_
FNDA:26,_ZNSt10_Iter_baseISt15_Deque_iteratorIiRiPiELb0EE7_S_baseES3_
FNDA:0,_ZNSt10_Iter_baseIPPiLb0EE7_S_baseES1_
FNDA:104,_ZNSt10_Iter_baseISt15_Deque_iteratorIiRKiPS1_ELb0EE7_S_baseES4_
FNDA:230,_ZNSt10_Iter_baseISt20back_insert_iteratorISt6vectorIiSaIiEEELb0EE7_S_baseES4_
FNDA:3130,_ZNSt10_Iter_baseIN9__gnu_cxx17__normal_iteratorIPP7myTemp_St6vectorIS3_SaIS3_EEEELb0EE7_S_baseES8_
FNDA:17910,_ZNSt10_Iter_baseIPiLb0EE7_S_baseES0_
FNDA:23084,_ZNSt10_Iter_baseIN9__gnu_cxx17__normal_iteratorIPKiSt6vectorIiSaIiEEEELb0EE7_S_baseES7_
FNDA:502,_ZNSt10_Iter_baseIN9__gnu_cxx17__normal_iteratorIPiSt6vectorIiSaIiEEEELb0EE7_S_baseES6_
FNDA:0,_ZNSt10_Iter_baseIPSt10shared_ptrIN5lgxZJ2IS3AAIEELb0EE7_S_baseES5_
FNDA:0,_ZNSt10_Iter_baseIN9__gnu_cxx17__normal_iteratorIPKSt10shared_ptrIN5lgxZJ2IS3AAIEESt6vectorIS6_SaIS6_EEEELb0EE7_S_baseESC_
FNDA:4256,_ZNSt10_Iter_baseISt13move_iteratorIPiELb1EE7_S_baseES2_
FNDA:3254,_ZNSt10_Iter_baseIN9__gnu_cxx17__normal_iteratorIPP7myTemp_St6vectorIS3_SaIS3_EEEELb1EE7_S_baseES8_
FNDA:23084,_ZNSt10_Iter_baseIN9__gnu_cxx17__normal_iteratorIPKiSt6vectorIiSaIiEEEELb1EE7_S_baseES7_
FNDA:539,_ZNSt10_Iter_baseIN9__gnu_cxx17__normal_iteratorIPiSt6vectorIiSaIiEEEELb1EE7_S_baseES6_
FNDA:0,_ZNSt10_Iter_baseIN9__gnu_cxx17__normal_iteratorIPSt10shared_ptrIN5lgxZJ2IS3AAIEESt6vectorIS6_SaIS6_EEEELb1EE7_S_baseESB_
FNDA:0,_ZNSt10_Iter_baseIN9__gnu_cxx17__normal_iteratorIPKSt10shared_ptrIN5lgxZJ2IS3AAIEESt6vectorIS6_SaIS6_EEEELb1EE7_S_baseESC_
FNF:22
FNH:17
DA:118,977
DA:201,263
DA:202,263
DA:212,58302
DA:213,58302
DA:220,31133
DA:221,31133
LF:7
LH:7
end_of_record
SF:/usr/include/c++/4.8/bits/stl_map.h
FN:96,_ZNSt3mapIiSt6vectorIiSaIiEESt4lessIiESaISt4pairIKiS2_EEED2Ev
FN:96,_ZNSt3mapIiP9myAccess_St4lessIiESaISt4pairIKiS1_EEED2Ev
FN:96,_ZNSt3mapIP7myTemp_iSt4lessIS1_ESaISt4pairIKS1_iEEED2Ev
FN:96,_ZNSt3mapIiP7myTemp_St4lessIiESaISt4pairIKiS1_EEED2Ev
FN:96,_ZNSt3mapIP7myTemp_S1_St4lessIS1_ESaISt4pairIKS1_S1_EEED2Ev
FN:96,_ZNSt3mapIijSt4lessIiESaISt4pairIKijEEED2Ev
FN:160,_ZNSt3mapIijSt4lessIiESaISt4pairIKijEEEC2Ev
FN:160,_ZNSt3mapIiSt6vectorIiSaIiEESt4lessIiESaISt4pairIKiS2_EEEC2Ev
FN:160,_ZNSt3mapIiP9myAccess_St4lessIiESaISt4pairIKiS1_EEEC2Ev
FN:160,_ZNSt3mapIP7myTemp_S1_St4lessIS1_ESaISt4pairIKS1_S1_EEEC2Ev
FN:160,_ZNSt3mapIiP7myTemp_St4lessIiESaISt4pairIKiS1_EEEC2Ev
FN:279,_ZNSt3mapIP7myTemp_iSt4lessIS1_ESaISt4pairIKS1_iEEEaSEOS8_
FN:320,_ZNSt3mapIiSt6vectorIiSaIiEESt4lessIiESaISt4pairIKiS2_EEE5beginEv
FN:320,_ZNSt3mapIiP7myTemp_St4lessIiESaISt4pairIKiS1_EEE5beginEv
FN:338,_ZNSt3mapIP7myTemp_S1_St4lessIS1_ESaISt4pairIKS1_S1_EEE3endEv
FN:338,_ZNSt3mapIiP9myAccess_St4lessIiESaISt4pairIKiS1_EEE3endEv
FN:338,_ZNSt3mapIijSt4lessIiESaISt4pairIKijEEE3endEv
FN:338,_ZNSt3mapIiP7myTemp_St4lessIiESaISt4pairIKiS1_EEE3endEv
FN:338,_ZNSt3mapIiSt6vectorIiSaIiEESt4lessIiESaISt4pairIKiS2_EEE3endEv
FN:456,_ZNSt3mapIiP9myAccess_St4lessIiESaISt4pairIKiS1_EEEixERS5_
FN:456,_ZNSt3mapIiP7myTemp_St4lessIiESaISt4pairIKiS1_EEEixERS5_
FN:456,_ZNSt3mapIiSt6vectorIiSaIiEESt4lessIiESaISt4pairIKiS2_EEEixERS6_
FN:456,_ZNSt3mapIijSt4lessIiESaISt4pairIKijEEEixERS3_
FN:476,_ZNSt3mapIiP9myAccess_St4lessIiESaISt4pairIKiS1_EEEixEOi
FN:476,_ZNSt3mapIijSt4lessIiESaISt4pairIKijEEEixEOi
FN:476,_ZNSt3mapIP7myTemp_S1_St4lessIS1_ESaISt4pairIKS1_S1_EEEixEOS1_
FN:726,_ZNSt3mapIijSt4lessIiESaISt4pairIKijEEE5eraseERS3_
FN:778,_ZNSt3mapIP7myTemp_iSt4lessIS1_ESaISt4pairIKS1_iEEE4swapERS8_
FN:788,_ZNSt3mapIiP7myTemp_St4lessIiESaISt4pairIKiS1_EEE5clearEv
FN:788,_ZNSt3mapIiSt6vectorIiSaIiEESt4lessIiESaISt4pairIKiS2_EEE5clearEv
FN:788,_ZNSt3mapIP7myTemp_iSt4lessIS1_ESaISt4pairIKS1_iEEE5clearEv
FN:788,_ZNSt3mapIiP9myAccess_St4lessIiESaISt4pairIKiS1_EEE5clearEv
FN:788,_ZNSt3mapIijSt4lessIiESaISt4pairIKijEEE5clearEv
FN:797,_ZNKSt3mapIiP9myAccess_St4lessIiESaISt4pairIKiS1_EEE8key_compEv
FN:797,_ZNKSt3mapIijSt4lessIiESaISt4pairIKijEEE8key_compEv
FN:797,_ZNKSt3mapIiP7myTemp_St4lessIiESaISt4pairIKiS1_EEE8key_compEv
FN:797,_ZNKSt3mapIP7myTemp_S1_St4lessIS1_ESaISt4pairIKS1_S1_EEE8key_compEv
FN:797,_ZNKSt3mapIiSt6vectorIiSaIiEESt4lessIiESaISt4pairIKiS2_EEE8key_compEv
FN:863,_ZNSt3mapIiP9myAccess_St4lessIiESaISt4pairIKiS1_EEE11lower_boundERS5_
FN:863,_ZNSt3mapIiP7myTemp_St4lessIiESaISt4pairIKiS1_EEE11lower_boundERS5_
FN:863,_ZNSt3mapIiSt6vectorIiSaIiEESt4lessIiESaISt4pairIKiS2_EEE11lower_boundERS6_
FN:863,_ZNSt3mapIijSt4lessIiESaISt4pairIKijEEE11lower_boundERS3_
FN:863,_ZNSt3mapIP7myTemp_S1_St4lessIS1_ESaISt4pairIKS1_S1_EEE11lower_boundERS5_
FNDA:0,_ZNSt3mapIP7myTemp_S1_St4lessIS1_ESaISt4pairIKS1_S1_EEED2Ev
FNDA:0,_ZNSt3mapIP7myTemp_iSt4lessIS1_ESaISt4pairIKS1_iEEED2Ev
FNDA:0,_ZNSt3mapIiSt6vectorIiSaIiEESt4lessIiESaISt4pairIKiS2_EEED2Ev
FNDA:0,_ZNSt3mapIiP9myAccess_St4lessIiESaISt4pairIKiS1_EEED2Ev
FNDA:0,_ZNSt3mapIiP7myTemp_St4lessIiESaISt4pairIKiS1_EEED2Ev
FNDA:0,_ZNSt3mapIijSt4lessIiESaISt4pairIKijEEED2Ev
FNDA:15,_ZNSt3mapIP7myTemp_S1_St4lessIS1_ESaISt4pairIKS1_S1_EEEC2Ev
FNDA:30,_ZNSt3mapIiSt6vectorIiSaIiEESt4lessIiESaISt4pairIKiS2_EEEC2Ev
FNDA:15,_ZNSt3mapIiP9myAccess_St4lessIiESaISt4pairIKiS1_EEEC2Ev
FNDA:15,_ZNSt3mapIiP7myTemp_St4lessIiESaISt4pairIKiS1_EEEC2Ev
FNDA:15,_ZNSt3mapIijSt4lessIiESaISt4pairIKijEEEC2Ev
FNDA:15,_ZNSt3mapIP7myTemp_iSt4lessIS1_ESaISt4pairIKS1_iEEEaSEOS8_
FNDA:15,_ZNSt3mapIiP7myTemp_St4lessIiESaISt4pairIKiS1_EEE5beginEv
FNDA:206,_ZNSt3mapIiSt6vectorIiSaIiEESt4lessIiESaISt4pairIKiS2_EEE5beginEv
FNDA:0,_ZNSt3mapIP7myTemp_S1_St4lessIS1_ESaISt4pairIKS1_S1_EEE3endEv
FNDA:0,_ZNSt3mapIiP9myAccess_St4lessIiESaISt4pairIKiS1_EEE3endEv
FNDA:512,_ZNSt3mapIijSt4lessIiESaISt4pairIKijEEE3endEv
FNDA:225,_ZNSt3mapIiP7myTemp_St4lessIiESaISt4pairIKiS1_EEE3endEv
FNDA:453,_ZNSt3mapIiSt6vectorIiSaIiEESt4lessIiESaISt4pairIKiS2_EEE3endEv
FNDA:0,_ZNSt3mapIiP9myAccess_St4lessIiESaISt4pairIKiS1_EEEixERS5_
FNDA:128,_ZNSt3mapIiP7myTemp_St4lessIiESaISt4pairIKiS1_EEEixERS5_
FNDA:247,_ZNSt3mapIiSt6vectorIiSaIiEESt4lessIiESaISt4pairIKiS2_EEEixERS6_
FNDA:497,_ZNSt3mapIijSt4lessIiESaISt4pairIKijEEEixERS3_
FNDA:0,_ZNSt3mapIP7myTemp_S1_St4lessIS1_ESaISt4pairIKS1_S1_EEEixEOS1_
FNDA:0,_ZNSt3mapIiP9myAccess_St4lessIiESaISt4pairIKiS1_EEEixEOi
FNDA:15,_ZNSt3mapIijSt4lessIiESaISt4pairIKijEEEixEOi
FNDA:67,_ZNSt3mapIijSt4lessIiESaISt4pairIKijEEE5eraseERS3_
FNDA:15,_ZNSt3mapIP7myTemp_iSt4lessIS1_ESaISt4pairIKS1_iEEE4swapERS8_
FNDA:15,_ZNSt3mapIP7myTemp_iSt4lessIS1_ESaISt4pairIKS1_iEEE5clearEv
FNDA:30,_ZNSt3mapIiSt6vectorIiSaIiEESt4lessIiESaISt4pairIKiS2_EEE5clearEv
FNDA:15,_ZNSt3mapIiP9myAccess_St4lessIiESaISt4pairIKiS1_EEE5clearEv
FNDA:15,_ZNSt3mapIiP7myTemp_St4lessIiESaISt4pairIKiS1_EEE5clearEv
FNDA:15,_ZNSt3mapIijSt4lessIiESaISt4pairIKijEEE5clearEv
FNDA:0,_ZNKSt3mapIP7myTemp_S1_St4lessIS1_ESaISt4pairIKS1_S1_EEE8key_compEv
FNDA:0,_ZNKSt3mapIiP9myAccess_St4lessIiESaISt4pairIKiS1_EEE8key_compEv
FNDA:83,_ZNKSt3mapIiP7myTemp_St4lessIiESaISt4pairIKiS1_EEE8key_compEv
FNDA:157,_ZNKSt3mapIiSt6vectorIiSaIiEESt4lessIiESaISt4pairIKiS2_EEE8key_compEv
FNDA:415,_ZNKSt3mapIijSt4lessIiESaISt4pairIKijEEE8key_compEv
FNDA:0,_ZNSt3mapIP7myTemp_S1_St4lessIS1_ESaISt4pairIKS1_S1_EEE11lower_boundERS5_
FNDA:0,_ZNSt3mapIiP9myAccess_St4lessIiESaISt4pairIKiS1_EEE11lower_boundERS5_
FNDA:128,_ZNSt3mapIiP7myTemp_St4lessIiESaISt4pairIKiS1_EEE11lower_boundERS5_
FNDA:247,_ZNSt3mapIiSt6vectorIiSaIiEESt4lessIiESaISt4pairIKiS2_EEE11lower_boundERS6_
FNDA:512,_ZNSt3mapIijSt4lessIiESaISt4pairIKijEEE11lower_boundERS3_
FNF:43
FNH:28
DA:96,0
DA:160,90
DA:161,90
DA:279,15
DA:283,15
DA:284,15
DA:285,15
DA:320,221
DA:321,221
DA:338,1190
DA:339,1190
DA:456,872
DA:461,872
DA:463,872
DA:465,297
DA:471,872
DA:476,15
DA:481,15
DA:483,15
DA:484,0
DA:485,0
DA:487,15
DA:726,67
DA:727,67
DA:778,15
DA:779,15
DA:788,90
DA:789,90
DA:797,655
DA:798,655
DA:863,887
DA:864,887
LF:32
LH:29
end_of_record
SF:/usr/include/c++/4.8/bits/stl_pair.h
FN:96,_ZNSt4pairIKiSt6vectorIiSaIiEEED2Ev
FN:127,_ZNSt4pairIKiSt6vectorIiSaIiEEEC2ERKS4_
FN:133,_ZNSt4pairIPSt18_Rb_tree_node_baseS1_EC2IRS1_vEEOT_RKS1_
FN:138,_ZNSt4pairIPSt18_Rb_tree_node_baseS1_EC2IRS1_vEERKS1_OT_
FN:144,_ZNSt4pairIPSt18_Rb_tree_node_baseS1_EC2IRPSt13_Rb_tree_nodeIS_IKP7myTemp_S6_EESB_vEEOT_OT0_
FN:144,_ZNSt4pairIPSt18_Rb_tree_node_baseS1_EC2IRS1_S4_vEEOT_OT0_
FN:144,_ZNSt4pairIPSt18_Rb_tree_node_baseS1_EC2IRPSt13_Rb_tree_nodeIS_IKiP9myAccess_EESB_vEEOT_OT0_
FN:144,_ZNSt4pairIPSt18_Rb_tree_node_baseS1_EC2IRPSt13_Rb_tree_nodeIS_IKiSt6vectorIiSaIiEEEESC_vEEOT_OT0_
FN:144,_ZNSt4pairIPSt18_Rb_tree_node_baseS1_EC2IRPSt13_Rb_tree_nodeIS_IKijEES9_vEEOT_OT0_
FN:144,_ZNSt4pairIPSt18_Rb_tree_node_baseS1_EC2IRPSt13_Rb_tree_nodeIS_IKiP7myTemp_EESB_vEEOT_OT0_
FN:144,_ZNSt4pairISt17_Rb_tree_iteratorIS_IKijEES3_EC2IS3_S3_vEEOT_OT0_
FNDA:0,_ZNSt4pairIKiSt6vectorIiSaIiEEED2Ev
FNDA:154,_ZNSt4pairIKiSt6vectorIiSaIiEEEC2ERKS4_
FNDA:0,_ZNSt4pairIPSt18_Rb_tree_node_baseS1_EC2IRS1_vEEOT_RKS1_
FNDA:0,_ZNSt4pairIPSt18_Rb_tree_node_baseS1_EC2IRS1_vEERKS1_OT_
FNDA:0,_ZNSt4pairIPSt18_Rb_tree_node_baseS1_EC2IRPSt13_Rb_tree_nodeIS_IKP7myTemp_S6_EESB_vEEOT_OT0_
FNDA:0,_ZNSt4pairIPSt18_Rb_tree_node_baseS1_EC2IRPSt13_Rb_tree_nodeIS_IKiP9myAccess_EESB_vEEOT_OT0_
FNDA:15,_ZNSt4pairIPSt18_Rb_tree_node_baseS1_EC2IRPSt13_Rb_tree_nodeIS_IKiP7myTemp_EESB_vEEOT_OT0_
FNDA:23,_ZNSt4pairIPSt18_Rb_tree_node_baseS1_EC2IRPSt13_Rb_tree_nodeIS_IKiSt6vectorIiSaIiEEEESC_vEEOT_OT0_
FNDA:17,_ZNSt4pairIPSt18_Rb_tree_node_baseS1_EC2IRPSt13_Rb_tree_nodeIS_IKijEES9_vEEOT_OT0_
FNDA:67,_ZNSt4pairISt17_Rb_tree_iteratorIS_IKijEES3_EC2IS3_S3_vEEOT_OT0_
FNDA:0,_ZNSt4pairIPSt18_Rb_tree_node_baseS1_EC2IRS1_S4_vEEOT_OT0_
FNF:11
FNH:5
DA:96,0
DA:127,154
DA:133,0
DA:134,0
DA:138,0
DA:139,0
DA:144,122
DA:145,122
LF:8
LH:3
end_of_record
SF:/usr/include/c++/4.8/bits/stl_stack.h
FN:96,_ZNSt5stackIiSt5dequeIiSaIiEEED2Ev
FN:96,_ZNSt5stackIiSt5dequeIiSaIiEEEC2ERKS3_
FN:138,_ZNSt5stackIiSt5dequeIiSaIiEEEC2EOS2_
FN:146,_ZNKSt5stackIiSt5dequeIiSaIiEEE5emptyEv
FN:159,_ZNSt5stackIiSt5dequeIiSaIiEEE3topEv
FN:186,_ZNSt5stackIiSt5dequeIiSaIiEEE4pushERKi
FN:212,_ZNSt5stackIiSt5dequeIiSaIiEEE3popEv
FN:220,_ZNSt5stackIiSt5dequeIiSaIiEEE4swapERS3_
FNDA:26,_ZNSt5stackIiSt5dequeIiSaIiEEEC2ERKS3_
FNDA:0,_ZNSt5stackIiSt5dequeIiSaIiEEED2Ev
FNDA:30,_ZNSt5stackIiSt5dequeIiSaIiEEEC2EOS2_
FNDA:216,_ZNKSt5stackIiSt5dequeIiSaIiEEE5emptyEv
FNDA:192,_ZNSt5stackIiSt5dequeIiSaIiEEE3topEv
FNDA:67,_ZNSt5stackIiSt5dequeIiSaIiEEE4pushERKi
FNDA:175,_ZNSt5stackIiSt5dequeIiSaIiEEE3popEv
FNDA:15,_ZNSt5stackIiSt5dequeIiSaIiEEE4swapERS3_
FNF:8
FNH:7
DA:96,26
DA:138,30
DA:139,30
DA:146,216
DA:147,216
DA:159,192
DA:162,192
DA:186,67
DA:187,67
DA:212,175
DA:215,175
DA:216,175
DA:220,15
DA:224,15
DA:225,15
LF:15
LH:15
end_of_record
SF:/usr/include/c++/4.8/bits/stl_tree.h
FN:131,_ZNSt13_Rb_tree_nodeISt4pairIKiSt6vectorIiSaIiEEEED2Ev
FN:138,_ZNSt13_Rb_tree_nodeISt4pairIKiP9myAccess_EEC2IIRKSt21piecewise_construct_tSt5tupleIIRS1_EESA_IIEEEEEDpOT_
FN:138,_ZNSt13_Rb_tree_nodeISt4pairIKijEEC2IIRKSt21piecewise_construct_tSt5tupleIIRS1_EES8_IIEEEEEDpOT_
FN:138,_ZNSt13_Rb_tree_nodeISt4pairIKiP9myAccess_EEC2IIRKSt21piecewise_construct_tSt5tupleIIOiEESA_IIEEEEEDpOT_
FN:138,_ZNSt13_Rb_tree_nodeISt4pairIKiP7myTemp_EEC2IIRKSt21piecewise_construct_tSt5tupleIIRS1_EESA_IIEEEEEDpOT_
FN:138,_ZNSt13_Rb_tree_nodeISt4pairIKP7myTemp_S2_EEC2IIRKSt21piecewise_construct_tSt5tupleIIOS2_EESA_IIEEEEEDpOT_
FN:138,_ZNSt13_Rb_tree_nodeISt4pairIKiSt6vectorIiSaIiEEEEC2IIRKSt21piecewise_construct_tSt5tupleIIRS1_EESB_IIEEEEEDpOT_
FN:138,_ZNSt13_Rb_tree_nodeISt4pairIKijEEC2IIRKSt21piecewise_construct_tSt5tupleIIOiEES8_IIEEEEEDpOT_
FN:174,_ZNSt17_Rb_tree_iteratorISt4pairIKijEEC2EPSt13_Rb_tree_nodeIS2_E
FN:174,_ZNSt17_Rb_tree_iteratorISt4pairIKiP9myAccess_EEC2EPSt13_Rb_tree_nodeIS4_E
FN:174,_ZNSt17_Rb_tree_iteratorISt4pairIKP7myTemp_S2_EEC2EPSt13_Rb_tree_nodeIS4_E
FN:174,_ZNSt17_Rb_tree_iteratorISt4pairIKiP7myTemp_EEC2EPSt13_Rb_tree_nodeIS4_E
FN:174,_ZNSt17_Rb_tree_iteratorISt4pairIKiSt6vectorIiSaIiEEEEC2EPSt13_Rb_tree_nodeIS5_E
FN:178,_ZNKSt17_Rb_tree_iteratorISt4pairIKiP9myAccess_EEdeEv
FN:178,_ZNKSt17_Rb_tree_iteratorISt4pairIKiP7myTemp_EEdeEv
FN:178,_ZNKSt17_Rb_tree_iteratorISt4pairIKP7myTemp_S2_EEdeEv
FN:178,_ZNKSt17_Rb_tree_iteratorISt4pairIKijEEdeEv
FN:178,_ZNKSt17_Rb_tree_iteratorISt4pairIKiSt6vectorIiSaIiEEEEdeEv
FN:182,_ZNKSt17_Rb_tree_iteratorISt4pairIKiP7myTemp_EEptEv
FN:187,_ZNSt17_Rb_tree_iteratorISt4pairIKP7myTemp_S2_EEppEv
FN:187,_ZNSt17_Rb_tree_iteratorISt4pairIKiP7myTemp_EEppEv
FN:187,_ZNSt17_Rb_tree_iteratorISt4pairIKijEEppEv
FN:187,_ZNSt17_Rb_tree_iteratorISt4pairIKiP9myAccess_EEppEv
FN:187,_ZNSt17_Rb_tree_iteratorISt4pairIKiSt6vectorIiSaIiEEEEppEv
FN:202,_ZNSt17_Rb_tree_iteratorISt4pairIKiSt6vectorIiSaIiEEEEmmEv
FN:202,_ZNSt17_Rb_tree_iteratorISt4pairIKijEEmmEv
FN:202,_ZNSt17_Rb_tree_iteratorISt4pairIKP7myTemp_S2_EEmmEv
FN:202,_ZNSt17_Rb_tree_iteratorISt4pairIKiP7myTemp_EEmmEv
FN:202,_ZNSt17_Rb_tree_iteratorISt4pairIKiP9myAccess_EEmmEv
FN:217,_ZNKSt17_Rb_tree_iteratorISt4pairIKiSt6vectorIiSaIiEEEEeqERKS6_
FN:217,_ZNKSt17_Rb_tree_iteratorISt4pairIKiP7myTemp_EEeqERKS5_
FN:217,_ZNKSt17_Rb_tree_iteratorISt4pairIKiP9myAccess_EEeqERKS5_
FN:217,_ZNKSt17_Rb_tree_iteratorISt4pairIKP7myTemp_S2_EEeqERKS5_
FN:217,_ZNKSt17_Rb_tree_iteratorISt4pairIKijEEeqERKS3_
FN:221,_ZNKSt17_Rb_tree_iteratorISt4pairIKiP7myTemp_EEneERKS5_
FN:221,_ZNKSt17_Rb_tree_iteratorISt4pairIKiSt6vectorIiSaIiEEEEneERKS6_
FN:250,_ZNSt23_Rb_tree_const_iteratorISt4pairIKiSt6vectorIiSaIiEEEEC2ERKSt17_Rb_tree_iteratorIS5_E
FN:250,_ZNSt23_Rb_tree_const_iteratorISt4pairIKiP7myTemp_EEC2ERKSt17_Rb_tree_iteratorIS4_E
FN:250,_ZNSt23_Rb_tree_const_iteratorISt4pairIKP7myTemp_S2_EEC2ERKSt17_Rb_tree_iteratorIS4_E
FN:250,_ZNSt23_Rb_tree_const_iteratorISt4pairIKijEEC2ERKSt17_Rb_tree_iteratorIS2_E
FN:250,_ZNSt23_Rb_tree_const_iteratorISt4pairIKiP9myAccess_EEC2ERKSt17_Rb_tree_iteratorIS4_E
FN:254,_ZNKSt23_Rb_tree_const_iteratorISt4pairIKiSt6vectorIiSaIiEEEE13_M_const_castEv
FN:254,_ZNKSt23_Rb_tree_const_iteratorISt4pairIKiP9myAccess_EE13_M_const_castEv
FN:254,_ZNKSt23_Rb_tree_const_iteratorISt4pairIKiP7myTemp_EE13_M_const_castEv
FN:254,_ZNKSt23_Rb_tree_const_iteratorISt4pairIKijEE13_M_const_castEv
FN:254,_ZNKSt23_Rb_tree_const_iteratorISt4pairIKP7myTemp_S2_EE13_M_const_castEv
FN:268,_ZNSt23_Rb_tree_const_iteratorISt4pairIKijEEppEv
FN:275,_ZNSt23_Rb_tree_const_iteratorISt4pairIKijEEppEi
FN:298,_ZNKSt23_Rb_tree_const_iteratorISt4pairIKijEEeqERKS3_
FN:302,_ZNKSt23_Rb_tree_const_iteratorISt4pairIKijEEneERKS3_
FN:356,_ZNSt8_Rb_treeIiSt4pairIKiSt6vectorIiSaIiEEESt10_Select1stIS5_ESt4lessIiESaIS5_EE21_M_get_Node_allocatorEv
FN:356,_ZNSt8_Rb_treeIP7myTemp_St4pairIKS1_iESt10_Select1stIS4_ESt4lessIS1_ESaIS4_EE21_M_get_Node_allocatorEv
FN:356,_ZNSt8_Rb_treeIiSt4pairIKiP7myTemp_ESt10_Select1stIS4_ESt4lessIiESaIS4_EE21_M_get_Node_allocatorEv
FN:356,_ZNSt8_Rb_treeIP7myTemp_St4pairIKS1_S1_ESt10_Select1stIS4_ESt4lessIS1_ESaIS4_EE21_M_get_Node_allocatorEv
FN:356,_ZNSt8_Rb_treeIiSt4pairIKijESt10_Select1stIS2_ESt4lessIiESaIS2_EE21_M_get_Node_allocatorEv
FN:356,_ZNSt8_Rb_treeIiSt4pairIKiP9myAccess_ESt10_Select1stIS4_ESt4lessIiESaIS4_EE21_M_get_Node_allocatorEv
FN:369,_ZNSt8_Rb_treeIiSt4pairIKiP9myAccess_ESt10_Select1stIS4_ESt4lessIiESaIS4_EE11_M_get_nodeEv
FN:369,_ZNSt8_Rb_treeIP7myTemp_St4pairIKS1_S1_ESt10_Select1stIS4_ESt4lessIS1_ESaIS4_EE11_M_get_nodeEv
FN:369,_ZNSt8_Rb_treeIiSt4pairIKiSt6vectorIiSaIiEEESt10_Select1stIS5_ESt4lessIiESaIS5_EE11_M_get_nodeEv
FN:369,_ZNSt8_Rb_treeIiSt4pairIKiP7myTemp_ESt10_Select1stIS4_ESt4lessIiESaIS4_EE11_M_get_nodeEv
FN:369,_ZNSt8_Rb_treeIiSt4pairIKijESt10_Select1stIS2_ESt4lessIiESaIS2_EE11_M_get_nodeEv
FN:373,_ZNSt8_Rb_treeIP7myTemp_St4pairIKS1_iESt10_Select1stIS4_ESt4lessIS1_ESaIS4_EE11_M_put_nodeEPSt13_Rb_tree_nodeIS4_E
FN:373,_ZNSt8_Rb_treeIiSt4pairIKiSt6vectorIiSaIiEEESt10_Select1stIS5_ESt4lessIiESaIS5_EE11_M_put_nodeEPSt13_Rb_tree_nodeIS5_E
FN:373,_ZNSt8_Rb_treeIP7myTemp_St4pairIKS1_S1_ESt10_Select1stIS4_ESt4lessIS1_ESaIS4_EE11_M_put_nodeEPSt13_Rb_tree_nodeIS4_E
FN:373,_ZNSt8_Rb_treeIiSt4pairIKijESt10_Select1stIS2_ESt4lessIiESaIS2_EE11_M_put_nodeEPSt13_Rb_tree_nodeIS2_E
FN:373,_ZNSt8_Rb_treeIiSt4pairIKiP7myTemp_ESt10_Select1stIS4_ESt4lessIiESaIS4_EE11_M_put_nodeEPSt13_Rb_tree_nodeIS4_E
FN:373,_ZNSt8_Rb_treeIiSt4pairIKiP9myAccess_ESt10_Select1stIS4_ESt4lessIiESaIS4_EE11_M_put_nodeEPSt13_Rb_tree_nodeIS4_E
FN:401,_ZNSt8_Rb_treeIiSt4pairIKiSt6vectorIiSaIiEEESt10_Select1stIS5_ESt4lessIiESaIS5_EE14_M_create_nodeIIRKSt21piecewise_construct_tSt5tupleIIRS1_EESG_IIEEEEEPSt13_Rb_tree_nodeIS5_EDpOT_
FN:401,_ZNSt8_Rb_treeIiSt4pairIKijESt10_Select1stIS2_ESt4lessIiESaIS2_EE14_M_create_nodeIIRKSt21piecewise_construct_tSt5tupleIIRS1_EESD_IIEEEEEPSt13_Rb_tree_nodeIS2_EDpOT_
FN:401,_ZNSt8_Rb_treeIiSt4pairIKiP9myAccess_ESt10_Select1stIS4_ESt4lessIiESaIS4_EE14_M_create_nodeIIRKSt21piecewise_construct_tSt5tupleIIOiEESF_IIEEEEEPSt13_Rb_tree_nodeIS4_EDpOT_
FN:401,_ZNSt8_Rb_treeIiSt4pairIKijESt10_Select1stIS2_ESt4lessIiESaIS2_EE14_M_create_nodeIIRKSt21piecewise_construct_tSt5tupleIIOiEESD_IIEEEEEPSt13_Rb_tree_nodeIS2_EDpOT_
FN:401,_ZNSt8_Rb_treeIP7myTemp_St4pairIKS1_S1_ESt10_Select1stIS4_ESt4lessIS1_ESaIS4_EE14_M_create_nodeIIRKSt21piecewise_construct_tSt5tupleIIOS1_EESF_IIEEEEEPSt13_Rb_tree_nodeIS4_EDpOT_
FN:401,_ZNSt8_Rb_treeIiSt4pairIKiP7myTemp_ESt10_Select1stIS4_ESt4lessIiESaIS4_EE14_M_create_nodeIIRKSt21piecewise_construct_tSt5tupleIIRS1_EESF_IIEEEEEPSt13_Rb_tree_nodeIS4_EDpOT_
FN:401,_ZNSt8_Rb_treeIiSt4pairIKiP9myAccess_ESt10_Select1stIS4_ESt4lessIiESaIS4_EE14_M_create_nodeIIRKSt21piecewise_construct_tSt5tupleIIRS1_EESF_IIEEEEEPSt13_Rb_tree_nodeIS4_EDpOT_
FN:419,_ZNSt8_Rb_treeIiSt4pairIKiP7myTemp_ESt10_Select1stIS4_ESt4lessIiESaIS4_EE15_M_destroy_nodeEPSt13_Rb_tree_nodeIS4_E
FN:419,_ZNSt8_Rb_treeIP7myTemp_St4pairIKS1_iESt10_Select1stIS4_ESt4lessIS1_ESaIS4_EE15_M_destroy_nodeEPSt13_Rb_tree_nodeIS4_E
FN:419,_ZNSt8_Rb_treeIP7myTemp_St4pairIKS1_S1_ESt10_Select1stIS4_ESt4lessIS1_ESaIS4_EE15_M_destroy_nodeEPSt13_Rb_tree_nodeIS4_E
FN:419,_ZNSt8_Rb_treeIiSt4pairIKiP9myAccess_ESt10_Select1stIS4_ESt4lessIiESaIS4_EE15_M_destroy_nodeEPSt13_Rb_tree_nodeIS4_E
FN:419,_ZNSt8_Rb_treeIiSt4pairIKiSt6vectorIiSaIiEEESt10_Select1stIS5_ESt4lessIiESaIS5_EE15_M_destroy_nodeEPSt13_Rb_tree_nodeIS5_E
FN:419,_ZNSt8_Rb_treeIiSt4pairIKijESt10_Select1stIS2_ESt4lessIiESaIS2_EE15_M_destroy_nodeEPSt13_Rb_tree_nodeIS2_E
FN:439,_ZNSt8_Rb_treeIiSt4pairIKijESt10_Select1stIS2_ESt4lessIiESaIS2_EE13_Rb_tree_implIS6_Lb1EED2Ev
FN:439,_ZNSt8_Rb_treeIiSt4pairIKiP9myAccess_ESt10_Select1stIS4_ESt4lessIiESaIS4_EE13_Rb_tree_implIS8_Lb1EED2Ev
FN:439,_ZNSt8_Rb_treeIiSt4pairIKiP7myTemp_ESt10_Select1stIS4_ESt4lessIiESaIS4_EE13_Rb_tree_implIS8_Lb1EED2Ev
FN:439,_ZNSt8_Rb_treeIP7myTemp_St4pairIKS1_S1_ESt10_Select1stIS4_ESt4lessIS1_ESaIS4_EE13_Rb_tree_implIS8_Lb1EED2Ev
FN:439,_ZNSt8_Rb_treeIP7myTemp_St4pairIKS1_iESt10_Select1stIS4_ESt4lessIS1_ESaIS4_EE13_Rb_tree_implIS8_Lb1EED2Ev
FN:439,_ZNSt8_Rb_treeIiSt4pairIKiSt6vectorIiSaIiEEESt10_Select1stIS5_ESt4lessIiESaIS5_EE13_Rb_tree_implIS9_Lb1EED2Ev
FN:445,_ZNSt8_Rb_treeIiSt4pairIKiSt6vectorIiSaIiEEESt10_Select1stIS5_ESt4lessIiESaIS5_EE13_Rb_tree_implIS9_Lb1EEC2Ev
FN:445,_ZNSt8_Rb_treeIP7myTemp_St4pairIKS1_S1_ESt10_Select1stIS4_ESt4lessIS1_ESaIS4_EE13_Rb_tree_implIS8_Lb1EEC2Ev
FN:445,_ZNSt8_Rb_treeIiSt4pairIKijESt10_Select1stIS2_ESt4lessIiESaIS2_EE13_Rb_tree_implIS6_Lb1EEC2Ev
FN:445,_ZNSt8_Rb_treeIiSt4pairIKiP9myAccess_ESt10_Select1stIS4_ESt4lessIiESaIS4_EE13_Rb_tree_implIS8_Lb1EEC2Ev
FN:445,_ZNSt8_Rb_treeIiSt4pairIKiP7myTemp_ESt10_Select1stIS4_ESt4lessIiESaIS4_EE13_Rb_tree_implIS8_Lb1EEC2Ev
FN:464,_ZNSt8_Rb_treeIiSt4pairIKiSt6vectorIiSaIiEEESt10_Select1stIS5_ESt4lessIiESaIS5_EE13_Rb_tree_implIS9_Lb1EE13_M_initializeEv
FN:464,_ZNSt8_Rb_treeIiSt4pairIKiP7myTemp_ESt10_Select1stIS4_ESt4lessIiESaIS4_EE13_Rb_tree_implIS8_Lb1EE13_M_initializeEv
FN:464,_ZNSt8_Rb_treeIiSt4pairIKijESt10_Select1stIS2_ESt4lessIiESaIS2_EE13_Rb_tree_implIS6_Lb1EE13_M_initializeEv
FN:464,_ZNSt8_Rb_treeIP7myTemp_St4pairIKS1_S1_ESt10_Select1stIS4_ESt4lessIS1_ESaIS4_EE13_Rb_tree_implIS8_Lb1EE13_M_initializeEv
FN:464,_ZNSt8_Rb_treeIiSt4pairIKiP9myAccess_ESt10_Select1stIS4_ESt4lessIiESaIS4_EE13_Rb_tree_implIS8_Lb1EE13_M_initializeEv
FN:477,_ZNSt8_Rb_treeIP7myTemp_St4pairIKS1_iESt10_Select1stIS4_ESt4lessIS1_ESaIS4_EE7_M_rootEv
FN:477,_ZNSt8_Rb_treeIiSt4pairIKijESt10_Select1stIS2_ESt4lessIiESaIS2_EE7_M_rootEv
FN:477,_ZNSt8_Rb_treeIiSt4pairIKiP7myTemp_ESt10_Select1stIS4_ESt4lessIiESaIS4_EE7_M_rootEv
FN:477,_ZNSt8_Rb_treeIiSt4pairIKiP9myAccess_ESt10_Select1stIS4_ESt4lessIiESaIS4_EE7_M_rootEv
FN:477,_ZNSt8_Rb_treeIiSt4pairIKiSt6vectorIiSaIiEEESt10_Select1stIS5_ESt4lessIiESaIS5_EE7_M_rootEv
FN:485,_ZNSt8_Rb_treeIiSt4pairIKiP9myAccess_ESt10_Select1stIS4_ESt4lessIiESaIS4_EE11_M_leftmostEv
FN:485,_ZNSt8_Rb_treeIiSt4pairIKijESt10_Select1stIS2_ESt4lessIiESaIS2_EE11_M_leftmostEv
FN:485,_ZNSt8_Rb_treeIP7myTemp_St4pairIKS1_S1_ESt10_Select1stIS4_ESt4lessIS1_ESaIS4_EE11_M_leftmostEv
FN:485,_ZNSt8_Rb_treeIP7myTemp_St4pairIKS1_iESt10_Select1stIS4_ESt4lessIS1_ESaIS4_EE11_M_leftmostEv
FN:485,_ZNSt8_Rb_treeIiSt4pairIKiP7myTemp_ESt10_Select1stIS4_ESt4lessIiESaIS4_EE11_M_leftmostEv
FN:485,_ZNSt8_Rb_treeIiSt4pairIKiSt6vectorIiSaIiEEESt10_Select1stIS5_ESt4lessIiESaIS5_EE11_M_leftmostEv
FN:493,_ZNSt8_Rb_treeIiSt4pairIKiP7myTemp_ESt10_Select1stIS4_ESt4lessIiESaIS4_EE12_M_rightmostEv
FN:493,_ZNSt8_Rb_treeIiSt4pairIKiP9myAccess_ESt10_Select1stIS4_ESt4lessIiESaIS4_EE12_M_rightmostEv
FN:493,_ZNSt8_Rb_treeIiSt4pairIKijESt10_Select1stIS2_ESt4lessIiESaIS2_EE12_M_rightmostEv
FN:493,_ZNSt8_Rb_treeIP7myTemp_St4pairIKS1_iESt10_Select1stIS4_ESt4lessIS1_ESaIS4_EE12_M_rightmostEv
FN:493,_ZNSt8_Rb_treeIP7myTemp_St4pairIKS1_S1_ESt10_Select1stIS4_ESt4lessIS1_ESaIS4_EE12_M_rightmostEv
FN:493,_ZNSt8_Rb_treeIiSt4pairIKiSt6vectorIiSaIiEEESt10_Select1stIS5_ESt4lessIiESaIS5_EE12_M_rightmostEv
FN:501,_ZNSt8_Rb_treeIiSt4pairIKiSt6vectorIiSaIiEEESt10_Select1stIS5_ESt4lessIiESaIS5_EE8_M_beginEv
FN:501,_ZNSt8_Rb_treeIiSt4pairIKiP9myAccess_ESt10_Select1stIS4_ESt4lessIiESaIS4_EE8_M_beginEv
FN:501,_ZNSt8_Rb_treeIP7myTemp_St4pairIKS1_S1_ESt10_Select1stIS4_ESt4lessIS1_ESaIS4_EE8_M_beginEv
FN:501,_ZNSt8_Rb_treeIiSt4pairIKijESt10_Select1stIS2_ESt4lessIiESaIS2_EE8_M_beginEv
FN:501,_ZNSt8_Rb_treeIiSt4pairIKiP7myTemp_ESt10_Select1stIS4_ESt4lessIiESaIS4_EE8_M_beginEv
FN:501,_ZNSt8_Rb_treeIP7myTemp_St4pairIKS1_iESt10_Select1stIS4_ESt4lessIS1_ESaIS4_EE8_M_beginEv
FN:512,_ZNSt8_Rb_treeIiSt4pairIKiP9myAccess_ESt10_Select1stIS4_ESt4lessIiESaIS4_EE6_M_endEv
FN:512,_ZNSt8_Rb_treeIiSt4pairIKijESt10_Select1stIS2_ESt4lessIiESaIS2_EE6_M_endEv
FN:512,_ZNSt8_Rb_treeIiSt4pairIKiP7myTemp_ESt10_Select1stIS4_ESt4lessIiESaIS4_EE6_M_endEv
FN:512,_ZNSt8_Rb_treeIiSt4pairIKiSt6vectorIiSaIiEEESt10_Select1stIS5_ESt4lessIiESaIS5_EE6_M_endEv
FN:512,_ZNSt8_Rb_treeIP7myTemp_St4pairIKS1_iESt10_Select1stIS4_ESt4lessIS1_ESaIS4_EE6_M_endEv
FN:512,_ZNSt8_Rb_treeIP7myTemp_St4pairIKS1_S1_ESt10_Select1stIS4_ESt4lessIS1_ESaIS4_EE6_M_endEv
FN:520,_ZNSt8_Rb_treeIiSt4pairIKiP7myTemp_ESt10_Select1stIS4_ESt4lessIiESaIS4_EE8_S_valueEPKSt13_Rb_tree_nodeIS4_E
FN:520,_ZNSt8_Rb_treeIP7myTemp_St4pairIKS1_S1_ESt10_Select1stIS4_ESt4lessIS1_ESaIS4_EE8_S_valueEPKSt13_Rb_tree_nodeIS4_E
FN:520,_ZNSt8_Rb_treeIiSt4pairIKiP9myAccess_ESt10_Select1stIS4_ESt4lessIiESaIS4_EE8_S_valueEPKSt13_Rb_tree_nodeIS4_E
FN:520,_ZNSt8_Rb_treeIiSt4pairIKiSt6vectorIiSaIiEEESt10_Select1stIS5_ESt4lessIiESaIS5_EE8_S_valueEPKSt13_Rb_tree_nodeIS5_E
FN:520,_ZNSt8_Rb_treeIiSt4pairIKijESt10_Select1stIS2_ESt4lessIiESaIS2_EE8_S_valueEPKSt13_Rb_tree_nodeIS2_E
FN:524,_ZNSt8_Rb_treeIiSt4pairIKiP7myTemp_ESt10_Select1stIS4_ESt4lessIiESaIS4_EE6_S_keyEPKSt13_Rb_tree_nodeIS4_E
FN:524,_ZNSt8_Rb_treeIiSt4pairIKijESt10_Select1stIS2_ESt4lessIiESaIS2_EE6_S_keyEPKSt13_Rb_tree_nodeIS2_E
FN:524,_ZNSt8_Rb_treeIP7myTemp_St4pairIKS1_S1_ESt10_Select1stIS4_ESt4lessIS1_ESaIS4_EE6_S_keyEPKSt13_Rb_tree_nodeIS4_E
FN:524,_ZNSt8_Rb_treeIiSt4pairIKiP9myAccess_ESt10_Select1stIS4_ESt4lessIiESaIS4_EE6_S_keyEPKSt13_Rb_tree_nodeIS4_E
FN:524,_ZNSt8_Rb_treeIiSt4pairIKiSt6vectorIiSaIiEEESt10_Select1stIS5_ESt4lessIiESaIS5_EE6_S_keyEPKSt13_Rb_tree_nodeIS5_E
FN:528,_ZNSt8_Rb_treeIiSt4pairIKiP9myAccess_ESt10_Select1stIS4_ESt4lessIiESaIS4_EE7_S_leftEPSt18_Rb_tree_node_base
FN:528,_ZNSt8_Rb_treeIiSt4pairIKiP7myTemp_ESt10_Select1stIS4_ESt4lessIiESaIS4_EE7_S_leftEPSt18_Rb_tree_node_base
FN:528,_ZNSt8_Rb_treeIP7myTemp_St4pairIKS1_S1_ESt10_Select1stIS4_ESt4lessIS1_ESaIS4_EE7_S_leftEPSt18_Rb_tree_node_base
FN:528,_ZNSt8_Rb_treeIiSt4pairIKijESt10_Select1stIS2_ESt4lessIiESaIS2_EE7_S_leftEPSt18_Rb_tree_node_base
FN:528,_ZNSt8_Rb_treeIiSt4pairIKiSt6vectorIiSaIiEEESt10_Select1stIS5_ESt4lessIiESaIS5_EE7_S_leftEPSt18_Rb_tree_node_base
FN:528,_ZNSt8_Rb_treeIP7myTemp_St4pairIKS1_iESt10_Select1stIS4_ESt4lessIS1_ESaIS4_EE7_S_leftEPSt18_Rb_tree_node_base
FN:536,_ZNSt8_Rb_treeIP7myTemp_St4pairIKS1_iESt10_Select1stIS4_ESt4lessIS1_ESaIS4_EE8_S_rightEPSt18_Rb_tree_node_base
FN:536,_ZNSt8_Rb_treeIiSt4pairIKijESt10_Select1stIS2_ESt4lessIiESaIS2_EE8_S_rightEPSt18_Rb_tree_node_base
FN:536,_ZNSt8_Rb_treeIiSt4pairIKiP7myTemp_ESt10_Select1stIS4_ESt4lessIiESaIS4_EE8_S_rightEPSt18_Rb_tree_node_base
FN:536,_ZNSt8_Rb_treeIP7myTemp_St4pairIKS1_S1_ESt10_Select1stIS4_ESt4lessIS1_ESaIS4_EE8_S_rightEPSt18_Rb_tree_node_base
FN:536,_ZNSt8_Rb_treeIiSt4pairIKiSt6vectorIiSaIiEEESt10_Select1stIS5_ESt4lessIiESaIS5_EE8_S_rightEPSt18_Rb_tree_node_base
FN:536,_ZNSt8_Rb_treeIiSt4pairIKiP9myAccess_ESt10_Select1stIS4_ESt4lessIiESaIS4_EE8_S_rightEPSt18_Rb_tree_node_base
FN:544,_ZNSt8_Rb_treeIiSt4pairIKiP7myTemp_ESt10_Select1stIS4_ESt4lessIiESaIS4_EE8_S_valueEPKSt18_Rb_tree_node_base
FN:544,_ZNSt8_Rb_treeIiSt4pairIKijESt10_Select1stIS2_ESt4lessIiESaIS2_EE8_S_valueEPKSt18_Rb_tree_node_base
FN:544,_ZNSt8_Rb_treeIiSt4pairIKiP9myAccess_ESt10_Select1stIS4_ESt4lessIiESaIS4_EE8_S_valueEPKSt18_Rb_tree_node_base
FN:544,_ZNSt8_Rb_treeIP7myTemp_St4pairIKS1_S1_ESt10_Select1stIS4_ESt4lessIS1_ESaIS4_EE8_S_valueEPKSt18_Rb_tree_node_base
FN:544,_ZNSt8_Rb_treeIiSt4pairIKiSt6vectorIiSaIiEEESt10_Select1stIS5_ESt4lessIiESaIS5_EE8_S_valueEPKSt18_Rb_tree_node_base
FN:548,_ZNSt8_Rb_treeIiSt4pairIKijESt10_Select1stIS2_ESt4lessIiESaIS2_EE6_S_keyEPKSt18_Rb_tree_node_base
FN:548,_ZNSt8_Rb_treeIiSt4pairIKiP7myTemp_ESt10_Select1stIS4_ESt4lessIiESaIS4_EE6_S_keyEPKSt18_Rb_tree_node_base
FN:548,_ZNSt8_Rb_treeIP7myTemp_St4pairIKS1_S1_ESt10_Select1stIS4_ESt4lessIS1_ESaIS4_EE6_S_keyEPKSt18_Rb_tree_node_base
FN:548,_ZNSt8_Rb_treeIiSt4pairIKiSt6vectorIiSaIiEEESt10_Select1stIS5_ESt4lessIiESaIS5_EE6_S_keyEPKSt18_Rb_tree_node_base
FN:548,_ZNSt8_Rb_treeIiSt4pairIKiP9myAccess_ESt10_Select1stIS4_ESt4lessIiESaIS4_EE6_S_keyEPKSt18_Rb_tree_node_base
FN:648,_ZNSt8_Rb_treeIiSt4pairIKiP7myTemp_ESt10_Select1stIS4_ESt4lessIiESaIS4_EEC2Ev
FN:648,_ZNSt8_Rb_treeIiSt4pairIKiSt6vectorIiSaIiEEESt10_Select1stIS5_ESt4lessIiESaIS5_EEC2Ev
FN:648,_ZNSt8_Rb_treeIiSt4pairIKijESt10_Select1stIS2_ESt4lessIiESaIS2_EEC2Ev
FN:648,_ZNSt8_Rb_treeIiSt4pairIKiP9myAccess_ESt10_Select1stIS4_ESt4lessIiESaIS4_EEC2Ev
FN:648,_ZNSt8_Rb_treeIP7myTemp_St4pairIKS1_S1_ESt10_Select1stIS4_ESt4lessIS1_ESaIS4_EEC2Ev
FN:670,_ZNSt8_Rb_treeIiSt4pairIKijESt10_Select1stIS2_ESt4lessIiESaIS2_EED2Ev
FN:670,_ZNSt8_Rb_treeIP7myTemp_St4pairIKS1_iESt10_Select1stIS4_ESt4lessIS1_ESaIS4_EED2Ev
FN:670,_ZNSt8_Rb_treeIiSt4pairIKiP9myAccess_ESt10_Select1stIS4_ESt4lessIiESaIS4_EED2Ev
FN:670,_ZNSt8_Rb_treeIiSt4pairIKiP7myTemp_ESt10_Select1stIS4_ESt4lessIiESaIS4_EED2Ev
FN:670,_ZNSt8_Rb_treeIP7myTemp_St4pairIKS1_S1_ESt10_Select1stIS4_ESt4lessIS1_ESaIS4_EED2Ev
FN:670,_ZNSt8_Rb_treeIiSt4pairIKiSt6vectorIiSaIiEEESt10_Select1stIS5_ESt4lessIiESaIS5_EED2Ev
FN:678,_ZNKSt8_Rb_treeIiSt4pairIKiSt6vectorIiSaIiEEESt10_Select1stIS5_ESt4lessIiESaIS5_EE8key_compEv
FN:678,_ZNKSt8_Rb_treeIiSt4pairIKiP9myAccess_ESt10_Select1stIS4_ESt4lessIiESaIS4_EE8key_compEv
FN:678,_ZNKSt8_Rb_treeIiSt4pairIKijESt10_Select1stIS2_ESt4lessIiESaIS2_EE8key_compEv
FN:678,_ZNKSt8_Rb_treeIiSt4pairIKiP7myTemp_ESt10_Select1stIS4_ESt4lessIiESaIS4_EE8key_compEv
FN:678,_ZNKSt8_Rb_treeIP7myTemp_St4pairIKS1_S1_ESt10_Select1stIS4_ESt4lessIS1_ESaIS4_EE8key_compEv
FN:682,_ZNSt8_Rb_treeIiSt4pairIKiP7myTemp_ESt10_Select1stIS4_ESt4lessIiESaIS4_EE5beginEv
FN:682,_ZNSt8_Rb_treeIP7myTemp_St4pairIKS1_S1_ESt10_Select1stIS4_ESt4lessIS1_ESaIS4_EE5beginEv
FN:682,_ZNSt8_Rb_treeIiSt4pairIKijESt10_Select1stIS2_ESt4lessIiESaIS2_EE5beginEv
FN:682,_ZNSt8_Rb_treeIiSt4pairIKiSt6vectorIiSaIiEEESt10_Select1stIS5_ESt4lessIiESaIS5_EE5beginEv
FN:682,_ZNSt8_Rb_treeIiSt4pairIKiP9myAccess_ESt10_Select1stIS4_ESt4lessIiESaIS4_EE5beginEv
FN:696,_ZNSt8_Rb_treeIiSt4pairIKiSt6vectorIiSaIiEEESt10_Select1stIS5_ESt4lessIiESaIS5_EE3endEv
FN:696,_ZNSt8_Rb_treeIiSt4pairIKiP7myTemp_ESt10_Select1stIS4_ESt4lessIiESaIS4_EE3endEv
FN:696,_ZNSt8_Rb_treeIiSt4pairIKijESt10_Select1stIS2_ESt4lessIiESaIS2_EE3endEv
FN:696,_ZNSt8_Rb_treeIiSt4pairIKiP9myAccess_ESt10_Select1stIS4_ESt4lessIiESaIS4_EE3endEv
FN:696,_ZNSt8_Rb_treeIP7myTemp_St4pairIKS1_S1_ESt10_Select1stIS4_ESt4lessIS1_ESaIS4_EE3endEv
FN:727,_ZNKSt8_Rb_treeIiSt4pairIKiP7myTemp_ESt10_Select1stIS4_ESt4lessIiESaIS4_EE4sizeEv
FN:727,_ZNKSt8_Rb_treeIP7myTemp_St4pairIKS1_S1_ESt10_Select1stIS4_ESt4lessIS1_ESaIS4_EE4sizeEv
FN:727,_ZNKSt8_Rb_treeIiSt4pairIKiP9myAccess_ESt10_Select1stIS4_ESt4lessIiESaIS4_EE4sizeEv
FN:727,_ZNKSt8_Rb_treeIiSt4pairIKiSt6vectorIiSaIiEEESt10_Select1stIS5_ESt4lessIiESaIS5_EE4sizeEv
FN:727,_ZNKSt8_Rb_treeIiSt4pairIKijESt10_Select1stIS2_ESt4lessIiESaIS2_EE4sizeEv
FN:805,_ZNSt8_Rb_treeIiSt4pairIKijESt10_Select1stIS2_ESt4lessIiESaIS2_EE5eraseB5cxx11ESt23_Rb_tree_const_iteratorIS2_E
FN:840,_ZNSt8_Rb_treeIiSt4pairIKijESt10_Select1stIS2_ESt4lessIiESaIS2_EE5eraseB5cxx11ESt23_Rb_tree_const_iteratorIS2_ESA_
FN:858,_ZNSt8_Rb_treeIiSt4pairIKiP9myAccess_ESt10_Select1stIS4_ESt4lessIiESaIS4_EE5clearEv
FN:858,_ZNSt8_Rb_treeIiSt4pairIKiP7myTemp_ESt10_Select1stIS4_ESt4lessIiESaIS4_EE5clearEv
FN:858,_ZNSt8_Rb_treeIP7myTemp_St4pairIKS1_iESt10_Select1stIS4_ESt4lessIS1_ESaIS4_EE5clearEv
FN:858,_ZNSt8_Rb_treeIiSt4pairIKiSt6vectorIiSaIiEEESt10_Select1stIS5_ESt4lessIiESaIS5_EE5clearEv
FN:858,_ZNSt8_Rb_treeIiSt4pairIKijESt10_Select1stIS2_ESt4lessIiESaIS2_EE5clearEv
FN:878,_ZNSt8_Rb_treeIP7myTemp_St4pairIKS1_S1_ESt10_Select1stIS4_ESt4lessIS1_ESaIS4_EE11lower_boundERS3_
FN:878,_ZNSt8_Rb_treeIiSt4pairIKijESt10_Select1stIS2_ESt4lessIiESaIS2_EE11lower_boundERS1_
FN:878,_ZNSt8_Rb_treeIiSt4pairIKiSt6vectorIiSaIiEEESt10_Select1stIS5_ESt4lessIiESaIS5_EE11lower_boundERS1_
FN:878,_ZNSt8_Rb_treeIiSt4pairIKiP9myAccess_ESt10_Select1stIS4_ESt4lessIiESaIS4_EE11lower_boundERS1_
FN:878,_ZNSt8_Rb_treeIiSt4pairIKiP7myTemp_ESt10_Select1stIS4_ESt4lessIiESaIS4_EE11lower_boundERS1_
FN:1119,_ZNSt8_Rb_treeIiSt4pairIKiP7myTemp_ESt10_Select1stIS4_ESt4lessIiESaIS4_EE8_M_eraseEPSt13_Rb_tree_nodeIS4_E
FN:1119,_ZNSt8_Rb_treeIiSt4pairIKijESt10_Select1stIS2_ESt4lessIiESaIS2_EE8_M_eraseEPSt13_Rb_tree_nodeIS2_E
FN:1119,_ZNSt8_Rb_treeIiSt4pairIKiSt6vectorIiSaIiEEESt10_Select1stIS5_ESt4lessIiESaIS5_EE8_M_eraseEPSt13_Rb_tree_nodeIS5_E
FN:1119,_ZNSt8_Rb_treeIP7myTemp_St4pairIKS1_S1_ESt10_Select1stIS4_ESt4lessIS1_ESaIS4_EE8_M_eraseEPSt13_Rb_tree_nodeIS4_E
FN:1119,_ZNSt8_Rb_treeIiSt4pairIKiP9myAccess_ESt10_Select1stIS4_ESt4lessIiESaIS4_EE8_M_eraseEPSt13_Rb_tree_nodeIS4_E
FN:1119,_ZNSt8_Rb_treeIP7myTemp_St4pairIKS1_iESt10_Select1stIS4_ESt4lessIS1_ESaIS4_EE8_M_eraseEPSt13_Rb_tree_nodeIS4_E
FN:1136,_ZNSt8_Rb_treeIiSt4pairIKiP7myTemp_ESt10_Select1stIS4_ESt4lessIiESaIS4_EE14_M_lower_boundEPSt13_Rb_tree_nodeIS4_ESD_RS1_
FN:1136,_ZNSt8_Rb_treeIP7myTemp_St4pairIKS1_S1_ESt10_Select1stIS4_ESt4lessIS1_ESaIS4_EE14_M_lower_boundEPSt13_Rb_tree_nodeIS4_ESD_RS3_
FN:1136,_ZNSt8_Rb_treeIiSt4pairIKijESt10_Select1stIS2_ESt4lessIiESaIS2_EE14_M_lower_boundEPSt13_Rb_tree_nodeIS2_ESB_RS1_
FN:1136,_ZNSt8_Rb_treeIiSt4pairIKiP9myAccess_ESt10_Select1stIS4_ESt4lessIiESaIS4_EE14_M_lower_boundEPSt13_Rb_tree_nodeIS4_ESD_RS1_
FN:1136,_ZNSt8_Rb_treeIiSt4pairIKiSt6vectorIiSaIiEEESt10_Select1stIS5_ESt4lessIiESaIS5_EE14_M_lower_boundEPSt13_Rb_tree_nodeIS5_ESE_RS1_
FN:1168,_ZNSt8_Rb_treeIiSt4pairIKijESt10_Select1stIS2_ESt4lessIiESaIS2_EE14_M_upper_boundEPSt13_Rb_tree_nodeIS2_ESB_RS1_
FN:1202,_ZNSt8_Rb_treeIiSt4pairIKijESt10_Select1stIS2_ESt4lessIiESaIS2_EE11equal_rangeERS1_
FN:1261,_ZNSt8_Rb_treeIP7myTemp_St4pairIKS1_iESt10_Select1stIS4_ESt4lessIS1_ESaIS4_EE4swapERSA_
FN:1314,_ZNSt8_Rb_treeIiSt4pairIKijESt10_Select1stIS2_ESt4lessIiESaIS2_EE24_M_get_insert_unique_posERS1_
FN:1314,_ZNSt8_Rb_treeIiSt4pairIKiP9myAccess_ESt10_Select1stIS4_ESt4lessIiESaIS4_EE24_M_get_insert_unique_posERS1_
FN:1314,_ZNSt8_Rb_treeIiSt4pairIKiSt6vectorIiSaIiEEESt10_Select1stIS5_ESt4lessIiESaIS5_EE24_M_get_insert_unique_posERS1_
FN:1314,_ZNSt8_Rb_treeIP7myTemp_St4pairIKS1_S1_ESt10_Select1stIS4_ESt4lessIS1_ESaIS4_EE24_M_get_insert_unique_posERS3_
FN:1314,_ZNSt8_Rb_treeIiSt4pairIKiP7myTemp_ESt10_Select1stIS4_ESt4lessIiESaIS4_EE24_M_get_insert_unique_posERS1_
FN:1411,_ZNSt8_Rb_treeIiSt4pairIKiP7myTemp_ESt10_Select1stIS4_ESt4lessIiESaIS4_EE29_M_get_insert_hint_unique_posESt23_Rb_tree_const_iteratorIS4_ERS1_
FN:1411,_ZNSt8_Rb_treeIiSt4pairIKiSt6vectorIiSaIiEEESt10_Select1stIS5_ESt4lessIiESaIS5_EE29_M_get_insert_hint_unique_posESt23_Rb_tree_const_iteratorIS5_ERS1_
FN:1411,_ZNSt8_Rb_treeIP7myTemp_St4pairIKS1_S1_ESt10_Select1stIS4_ESt4lessIS1_ESaIS4_EE29_M_get_insert_hint_unique_posESt23_Rb_tree_const_iteratorIS4_ERS3_
FN:1411,_ZNSt8_Rb_treeIiSt4pairIKijESt10_Select1stIS2_ESt4lessIiESaIS2_EE29_M_get_insert_hint_unique_posESt23_Rb_tree_const_iteratorIS2_ERS1_
FN:1411,_ZNSt8_Rb_treeIiSt4pairIKiP9myAccess_ESt10_Select1stIS4_ESt4lessIiESaIS4_EE29_M_get_insert_hint_unique_posESt23_Rb_tree_const_iteratorIS4_ERS1_
FN:1568,_ZNSt8_Rb_treeIiSt4pairIKiP7myTemp_ESt10_Select1stIS4_ESt4lessIiESaIS4_EE14_M_insert_nodeEPSt18_Rb_tree_node_baseSC_PSt13_Rb_tree_nodeIS4_E
FN:1568,_ZNSt8_Rb_treeIiSt4pairIKiSt6vectorIiSaIiEEESt10_Select1stIS5_ESt4lessIiESaIS5_EE14_M_insert_nodeEPSt18_Rb_tree_node_baseSD_PSt13_Rb_tree_nodeIS5_E
FN:1568,_ZNSt8_Rb_treeIiSt4pairIKiP9myAccess_ESt10_Select1stIS4_ESt4lessIiESaIS4_EE14_M_insert_nodeEPSt18_Rb_tree_node_baseSC_PSt13_Rb_tree_nodeIS4_E
FN:1568,_ZNSt8_Rb_treeIP7myTemp_St4pairIKS1_S1_ESt10_Select1stIS4_ESt4lessIS1_ESaIS4_EE14_M_insert_nodeEPSt18_Rb_tree_node_baseSC_PSt13_Rb_tree_nodeIS4_E
FN:1568,_ZNSt8_Rb_treeIiSt4pairIKijESt10_Select1stIS2_ESt4lessIiESaIS2_EE14_M_insert_nodeEPSt18_Rb_tree_node_baseSA_PSt13_Rb_tree_nodeIS2_E
FN:1666,_ZNSt8_Rb_treeIP7myTemp_St4pairIKS1_S1_ESt10_Select1stIS4_ESt4lessIS1_ESaIS4_EE22_M_emplace_hint_uniqueIIRKSt21piecewise_construct_tSt5tupleIIOS1_EESF_IIEEEEESt17_Rb_tree_iteratorIS4_ESt23_Rb_tree_const_iteratorIS4_EDpOT_
FN:1666,_ZNSt8_Rb_treeIiSt4pairIKiP9myAccess_ESt10_Select1stIS4_ESt4lessIiESaIS4_EE22_M_emplace_hint_uniqueIIRKSt21piecewise_construct_tSt5tupleIIOiEESF_IIEEEEESt17_Rb_tree_iteratorIS4_ESt23_Rb_tree_const_iteratorIS4_EDpOT_
FN:1666,_ZNSt8_Rb_treeIiSt4pairIKiP9myAccess_ESt10_Select1stIS4_ESt4lessIiESaIS4_EE22_M_emplace_hint_uniqueIIRKSt21piecewise_construct_tSt5tupleIIRS1_EESF_IIEEEEESt17_Rb_tree_iteratorIS4_ESt23_Rb_tree_const_iteratorIS4_EDpOT_
FN:1666,_ZNSt8_Rb_treeIiSt4pairIKiP7myTemp_ESt10_Select1stIS4_ESt4lessIiESaIS4_EE22_M_emplace_hint_uniqueIIRKSt21piecewise_construct_tSt5tupleIIRS1_EESF_IIEEEEESt17_Rb_tree_iteratorIS4_ESt23_Rb_tree_const_iteratorIS4_EDpOT_
FN:1666,_ZNSt8_Rb_treeIiSt4pairIKijESt10_Select1stIS2_ESt4lessIiESaIS2_EE22_M_emplace_hint_uniqueIIRKSt21piecewise_construct_tSt5tupleIIOiEESD_IIEEEEESt17_Rb_tree_iteratorIS2_ESt23_Rb_tree_const_iteratorIS2_EDpOT_
FN:1666,_ZNSt8_Rb_treeIiSt4pairIKiSt6vectorIiSaIiEEESt10_Select1stIS5_ESt4lessIiESaIS5_EE22_M_emplace_hint_uniqueIIRKSt21piecewise_construct_tSt5tupleIIRS1_EESG_IIEEEEESt17_Rb_tree_iteratorIS5_ESt23_Rb_tree_const_iteratorIS5_EDpOT_
FN:1666,_ZNSt8_Rb_treeIiSt4pairIKijESt10_Select1stIS2_ESt4lessIiESaIS2_EE22_M_emplace_hint_uniqueIIRKSt21piecewise_construct_tSt5tupleIIRS1_EESD_IIEEEEESt17_Rb_tree_iteratorIS2_ESt23_Rb_tree_const_iteratorIS2_EDpOT_
FN:1739,_ZNSt8_Rb_treeIiSt4pairIKijESt10_Select1stIS2_ESt4lessIiESaIS2_EE12_M_erase_auxESt23_Rb_tree_const_iteratorIS2_E
FN:1753,_ZNSt8_Rb_treeIiSt4pairIKijESt10_Select1stIS2_ESt4lessIiESaIS2_EE12_M_erase_auxESt23_Rb_tree_const_iteratorIS2_ESA_
FN:1766,_ZNSt8_Rb_treeIiSt4pairIKijESt10_Select1stIS2_ESt4lessIiESaIS2_EE5eraseERS1_
FNDA:0,_ZNSt13_Rb_tree_nodeISt4pairIKiSt6vectorIiSaIiEEEED2Ev
FNDA:0,_ZNSt13_Rb_tree_nodeISt4pairIKP7myTemp_S2_EEC2IIRKSt21piecewise_construct_tSt5tupleIIOS2_EESA_IIEEEEEDpOT_
FNDA:0,_ZNSt13_Rb_tree_nodeISt4pairIKiP9myAccess_EEC2IIRKSt21piecewise_construct_tSt5tupleIIOiEESA_IIEEEEEDpOT_
FNDA:0,_ZNSt13_Rb_tree_nodeISt4pairIKiP9myAccess_EEC2IIRKSt21piecewise_construct_tSt5tupleIIRS1_EESA_IIEEEEEDpOT_
FNDA:82,_ZNSt13_Rb_tree_nodeISt4pairIKiP7myTemp_EEC2IIRKSt21piecewise_construct_tSt5tupleIIRS1_EESA_IIEEEEEDpOT_
FNDA:0,_ZNSt13_Rb_tree_nodeISt4pairIKijEEC2IIRKSt21piecewise_construct_tSt5tupleIIOiEES8_IIEEEEEDpOT_
FNDA:93,_ZNSt13_Rb_tree_nodeISt4pairIKiSt6vectorIiSaIiEEEEC2IIRKSt21piecewise_construct_tSt5tupleIIRS1_EESB_IIEEEEEDpOT_
FNDA:122,_ZNSt13_Rb_tree_nodeISt4pairIKijEEC2IIRKSt21piecewise_construct_tSt5tupleIIRS1_EES8_IIEEEEEDpOT_
FNDA:0,_ZNSt17_Rb_tree_iteratorISt4pairIKP7myTemp_S2_EEC2EPSt13_Rb_tree_nodeIS4_E
FNDA:0,_ZNSt17_Rb_tree_iteratorISt4pairIKiP9myAccess_EEC2EPSt13_Rb_tree_nodeIS4_E
FNDA:562,_ZNSt17_Rb_tree_iteratorISt4pairIKiP7myTemp_EEC2EPSt13_Rb_tree_nodeIS4_E
FNDA:1138,_ZNSt17_Rb_tree_iteratorISt4pairIKiSt6vectorIiSaIiEEEEC2EPSt13_Rb_tree_nodeIS5_E
FNDA:1652,_ZNSt17_Rb_tree_iteratorISt4pairIKijEEC2EPSt13_Rb_tree_nodeIS2_E
FNDA:0,_ZNKSt17_Rb_tree_iteratorISt4pairIKP7myTemp_S2_EEdeEv
FNDA:0,_ZNKSt17_Rb_tree_iteratorISt4pairIKiP9myAccess_EEdeEv
FNDA:211,_ZNKSt17_Rb_tree_iteratorISt4pairIKiP7myTemp_EEdeEv
FNDA:927,_ZNKSt17_Rb_tree_iteratorISt4pairIKijEEdeEv
FNDA:558,_ZNKSt17_Rb_tree_iteratorISt4pairIKiSt6vectorIiSaIiEEEEdeEv
FNDA:164,_ZNKSt17_Rb_tree_iteratorISt4pairIKiP7myTemp_EEptEv
FNDA:0,_ZNSt17_Rb_tree_iteratorISt4pairIKP7myTemp_S2_EEppEv
FNDA:0,_ZNSt17_Rb_tree_iteratorISt4pairIKiP9myAccess_EEppEv
FNDA:0,_ZNSt17_Rb_tree_iteratorISt4pairIKijEEppEv
FNDA:82,_ZNSt17_Rb_tree_iteratorISt4pairIKiP7myTemp_EEppEv
FNDA:130,_ZNSt17_Rb_tree_iteratorISt4pairIKiSt6vectorIiSaIiEEEEppEv
FNDA:0,_ZNSt17_Rb_tree_iteratorISt4pairIKP7myTemp_S2_EEmmEv
FNDA:0,_ZNSt17_Rb_tree_iteratorISt4pairIKiP9myAccess_EEmmEv
FNDA:30,_ZNSt17_Rb_tree_iteratorISt4pairIKiP7myTemp_EEmmEv
FNDA:0,_ZNSt17_Rb_tree_iteratorISt4pairIKiSt6vectorIiSaIiEEEEmmEv
FNDA:22,_ZNSt17_Rb_tree_iteratorISt4pairIKijEEmmEv
FNDA:0,_ZNKSt17_Rb_tree_iteratorISt4pairIKP7myTemp_S2_EEeqERKS5_
FNDA:0,_ZNKSt17_Rb_tree_iteratorISt4pairIKiP9myAccess_EEeqERKS5_
FNDA:143,_ZNKSt17_Rb_tree_iteratorISt4pairIKiP7myTemp_EEeqERKS5_
FNDA:270,_ZNKSt17_Rb_tree_iteratorISt4pairIKiSt6vectorIiSaIiEEEEeqERKS6_
FNDA:529,_ZNKSt17_Rb_tree_iteratorISt4pairIKijEEeqERKS3_
FNDA:97,_ZNKSt17_Rb_tree_iteratorISt4pairIKiP7myTemp_EEneERKS5_
FNDA:336,_ZNKSt17_Rb_tree_iteratorISt4pairIKiSt6vectorIiSaIiEEEEneERKS6_
FNDA:0,_ZNSt23_Rb_tree_const_iteratorISt4pairIKP7myTemp_S2_EEC2ERKSt17_Rb_tree_iteratorIS4_E
FNDA:0,_ZNSt23_Rb_tree_const_iteratorISt4pairIKiP9myAccess_EEC2ERKSt17_Rb_tree_iteratorIS4_E
FNDA:82,_ZNSt23_Rb_tree_const_iteratorISt4pairIKiP7myTemp_EEC2ERKSt17_Rb_tree_iteratorIS4_E
FNDA:93,_ZNSt23_Rb_tree_const_iteratorISt4pairIKiSt6vectorIiSaIiEEEEC2ERKSt17_Rb_tree_iteratorIS5_E
FNDA:340,_ZNSt23_Rb_tree_const_iteratorISt4pairIKijEEC2ERKSt17_Rb_tree_iteratorIS2_E
FNDA:0,_ZNKSt23_Rb_tree_const_iteratorISt4pairIKP7myTemp_S2_EE13_M_const_castEv
FNDA:0,_ZNKSt23_Rb_tree_const_iteratorISt4pairIKiP9myAccess_EE13_M_const_castEv
FNDA:82,_ZNKSt23_Rb_tree_const_iteratorISt4pairIKiP7myTemp_EE13_M_const_castEv
FNDA:93,_ZNKSt23_Rb_tree_const_iteratorISt4pairIKiSt6vectorIiSaIiEEEE13_M_const_castEv
FNDA:254,_ZNKSt23_Rb_tree_const_iteratorISt4pairIKijEE13_M_const_castEv
FNDA:65,_ZNSt23_Rb_tree_const_iteratorISt4pairIKijEEppEv
FNDA:65,_ZNSt23_Rb_tree_const_iteratorISt4pairIKijEEppEi
FNDA:84,_ZNKSt23_Rb_tree_const_iteratorISt4pairIKijEEeqERKS3_
FNDA:130,_ZNKSt23_Rb_tree_const_iteratorISt4pairIKijEEneERKS3_
FNDA:0,_ZNSt8_Rb_treeIP7myTemp_St4pairIKS1_iESt10_Select1stIS4_ESt4lessIS1_ESaIS4_EE21_M_get_Node_allocatorEv
FNDA:0,_ZNSt8_Rb_treeIiSt4pairIKiSt6vectorIiSaIiEEESt10_Select1stIS5_ESt4lessIiESaIS5_EE21_M_get_Node_allocatorEv
FNDA:0,_ZNSt8_Rb_treeIiSt4pairIKiP9myAccess_ESt10_Select1stIS4_ESt4lessIiESaIS4_EE21_M_get_Node_allocatorEv
FNDA:0,_ZNSt8_Rb_treeIiSt4pairIKiP7myTemp_ESt10_Select1stIS4_ESt4lessIiESaIS4_EE21_M_get_Node_allocatorEv
FNDA:0,_ZNSt8_Rb_treeIiSt4pairIKijESt10_Select1stIS2_ESt4lessIiESaIS2_EE21_M_get_Node_allocatorEv
FNDA:0,_ZNSt8_Rb_treeIP7myTemp_St4pairIKS1_S1_ESt10_Select1stIS4_ESt4lessIS1_ESaIS4_EE21_M_get_Node_allocatorEv
FNDA:0,_ZNSt8_Rb_treeIP7myTemp_St4pairIKS1_S1_ESt10_Select1stIS4_ESt4lessIS1_ESaIS4_EE11_M_get_nodeEv
FNDA:0,_ZNSt8_Rb_treeIiSt4pairIKiP9myAccess_ESt10_Select1stIS4_ESt4lessIiESaIS4_EE11_M_get_nodeEv
FNDA:82,_ZNSt8_Rb_treeIiSt4pairIKiP7myTemp_ESt10_Select1stIS4_ESt4lessIiESaIS4_EE11_M_get_nodeEv
FNDA:93,_ZNSt8_Rb_treeIiSt4pairIKiSt6vectorIiSaIiEEESt10_Select1stIS5_ESt4lessIiESaIS5_EE11_M_get_nodeEv
FNDA:122,_ZNSt8_Rb_treeIiSt4pairIKijESt10_Select1stIS2_ESt4lessIiESaIS2_EE11_M_get_nodeEv
FNDA:0,_ZNSt8_Rb_treeIP7myTemp_St4pairIKS1_S1_ESt10_Select1stIS4_ESt4lessIS1_ESaIS4_EE11_M_put_nodeEPSt13_Rb_tree_nodeIS4_E
FNDA:0,_ZNSt8_Rb_treeIP7myTemp_St4pairIKS1_iESt10_Select1stIS4_ESt4lessIS1_ESaIS4_EE11_M_put_nodeEPSt13_Rb_tree_nodeIS4_E
FNDA:0,_ZNSt8_Rb_treeIiSt4pairIKiSt6vectorIiSaIiEEESt10_Select1stIS5_ESt4lessIiESaIS5_EE11_M_put_nodeEPSt13_Rb_tree_nodeIS5_E
FNDA:0,_ZNSt8_Rb_treeIiSt4pairIKiP9myAccess_ESt10_Select1stIS4_ESt4lessIiESaIS4_EE11_M_put_nodeEPSt13_Rb_tree_nodeIS4_E
FNDA:0,_ZNSt8_Rb_treeIiSt4pairIKiP7myTemp_ESt10_Select1stIS4_ESt4lessIiESaIS4_EE11_M_put_nodeEPSt13_Rb_tree_nodeIS4_E
FNDA:0,_ZNSt8_Rb_treeIiSt4pairIKijESt10_Select1stIS2_ESt4lessIiESaIS2_EE11_M_put_nodeEPSt13_Rb_tree_nodeIS2_E
FNDA:0,_ZNSt8_Rb_treeIP7myTemp_St4pairIKS1_S1_ESt10_Select1stIS4_ESt4lessIS1_ESaIS4_EE14_M_create_nodeIIRKSt21piecewise_construct_tSt5tupleIIOS1_EESF_IIEEEEEPSt13_Rb_tree_nodeIS4_EDpOT_
FNDA:0,_ZNSt8_Rb_treeIiSt4pairIKiP9myAccess_ESt10_Select1stIS4_ESt4lessIiESaIS4_EE14_M_create_nodeIIRKSt21piecewise_construct_tSt5tupleIIOiEESF_IIEEEEEPSt13_Rb_tree_nodeIS4_EDpOT_
FNDA:0,_ZNSt8_Rb_treeIiSt4pairIKiP9myAccess_ESt10_Select1stIS4_ESt4lessIiESaIS4_EE14_M_create_nodeIIRKSt21piecewise_construct_tSt5tupleIIRS1_EESF_IIEEEEEPSt13_Rb_tree_nodeIS4_EDpOT_
FNDA:82,_ZNSt8_Rb_treeIiSt4pairIKiP7myTemp_ESt10_Select1stIS4_ESt4lessIiESaIS4_EE14_M_create_nodeIIRKSt21piecewise_construct_tSt5tupleIIRS1_EESF_IIEEEEEPSt13_Rb_tree_nodeIS4_EDpOT_
FNDA:0,_ZNSt8_Rb_treeIiSt4pairIKijESt10_Select1stIS2_ESt4lessIiESaIS2_EE14_M_create_nodeIIRKSt21piecewise_construct_tSt5tupleIIOiEESD_IIEEEEEPSt13_Rb_tree_nodeIS2_EDpOT_
FNDA:93,_ZNSt8_Rb_treeIiSt4pairIKiSt6vectorIiSaIiEEESt10_Select1stIS5_ESt4lessIiESaIS5_EE14_M_create_nodeIIRKSt21piecewise_construct_tSt5tupleIIRS1_EESG_IIEEEEEPSt13_Rb_tree_nodeIS5_EDpOT_
FNDA:122,_ZNSt8_Rb_treeIiSt4pairIKijESt10_Select1stIS2_ESt4lessIiESaIS2_EE14_M_create_nodeIIRKSt21piecewise_construct_tSt5tupleIIRS1_EESD_IIEEEEEPSt13_Rb_tree_nodeIS2_EDpOT_
FNDA:0,_ZNSt8_Rb_treeIP7myTemp_St4pairIKS1_S1_ESt10_Select1stIS4_ESt4lessIS1_ESaIS4_EE15_M_destroy_nodeEPSt13_Rb_tree_nodeIS4_E
FNDA:0,_ZNSt8_Rb_treeIP7myTemp_St4pairIKS1_iESt10_Select1stIS4_ESt4lessIS1_ESaIS4_EE15_M_destroy_nodeEPSt13_Rb_tree_nodeIS4_E
FNDA:0,_ZNSt8_Rb_treeIiSt4pairIKiSt6vectorIiSaIiEEESt10_Select1stIS5_ESt4lessIiESaIS5_EE15_M_destroy_nodeEPSt13_Rb_tree_nodeIS5_E
FNDA:0,_ZNSt8_Rb_treeIiSt4pairIKiP9myAccess_ESt10_Select1stIS4_ESt4lessIiESaIS4_EE15_M_destroy_nodeEPSt13_Rb_tree_nodeIS4_E
FNDA:0,_ZNSt8_Rb_treeIiSt4pairIKiP7myTemp_ESt10_Select1stIS4_ESt4lessIiESaIS4_EE15_M_destroy_nodeEPSt13_Rb_tree_nodeIS4_E
FNDA:0,_ZNSt8_Rb_treeIiSt4pairIKijESt10_Select1stIS2_ESt4lessIiESaIS2_EE15_M_destroy_nodeEPSt13_Rb_tree_nodeIS2_E
FNDA:0,_ZNSt8_Rb_treeIP7myTemp_St4pairIKS1_S1_ESt10_Select1stIS4_ESt4lessIS1_ESaIS4_EE13_Rb_tree_implIS8_Lb1EED2Ev
FNDA:0,_ZNSt8_Rb_treeIP7myTemp_St4pairIKS1_iESt10_Select1stIS4_ESt4lessIS1_ESaIS4_EE13_Rb_tree_implIS8_Lb1EED2Ev
FNDA:0,_ZNSt8_Rb_treeIiSt4pairIKiSt6vectorIiSaIiEEESt10_Select1stIS5_ESt4lessIiESaIS5_EE13_Rb_tree_implIS9_Lb1EED2Ev
FNDA:0,_ZNSt8_Rb_treeIiSt4pairIKiP9myAccess_ESt10_Select1stIS4_ESt4lessIiESaIS4_EE13_Rb_tree_implIS8_Lb1EED2Ev
FNDA:0,_ZNSt8_Rb_treeIiSt4pairIKiP7myTemp_ESt10_Select1stIS4_ESt4lessIiESaIS4_EE13_Rb_tree_implIS8_Lb1EED2Ev
FNDA:0,_ZNSt8_Rb_treeIiSt4pairIKijESt10_Select1stIS2_ESt4lessIiESaIS2_EE13_Rb_tree_implIS6_Lb1EED2Ev
FNDA:15,_ZNSt8_Rb_treeIP7myTemp_St4pairIKS1_S1_ESt10_Select1stIS4_ESt4lessIS1_ESaIS4_EE13_Rb_tree_implIS8_Lb1EEC2Ev
FNDA:30,_ZNSt8_Rb_treeIiSt4pairIKiSt6vectorIiSaIiEEESt10_Select1stIS5_ESt4lessIiESaIS5_EE13_Rb_tree_implIS9_Lb1EEC2Ev
FNDA:15,_ZNSt8_Rb_treeIiSt4pairIKiP9myAccess_ESt10_Select1stIS4_ESt4lessIiESaIS4_EE13_Rb_tree_implIS8_Lb1EEC2Ev
FNDA:15,_ZNSt8_Rb_treeIiSt4pairIKiP7myTemp_ESt10_Select1stIS4_ESt4lessIiESaIS4_EE13_Rb_tree_implIS8_Lb1EEC2Ev
FNDA:15,_ZNSt8_Rb_treeIiSt4pairIKijESt10_Select1stIS2_ESt4lessIiESaIS2_EE13_Rb_tree_implIS6_Lb1EEC2Ev
FNDA:15,_ZNSt8_Rb_treeIP7myTemp_St4pairIKS1_S1_ESt10_Select1stIS4_ESt4lessIS1_ESaIS4_EE13_Rb_tree_implIS8_Lb1EE13_M_initializeEv
FNDA:30,_ZNSt8_Rb_treeIiSt4pairIKiSt6vectorIiSaIiEEESt10_Select1stIS5_ESt4lessIiESaIS5_EE13_Rb_tree_implIS9_Lb1EE13_M_initializeEv
FNDA:15,_ZNSt8_Rb_treeIiSt4pairIKiP9myAccess_ESt10_Select1stIS4_ESt4lessIiESaIS4_EE13_Rb_tree_implIS8_Lb1EE13_M_initializeEv
FNDA:15,_ZNSt8_Rb_treeIiSt4pairIKiP7myTemp_ESt10_Select1stIS4_ESt4lessIiESaIS4_EE13_Rb_tree_implIS8_Lb1EE13_M_initializeEv
FNDA:15,_ZNSt8_Rb_treeIiSt4pairIKijESt10_Select1stIS2_ESt4lessIiESaIS2_EE13_Rb_tree_implIS6_Lb1EE13_M_initializeEv
FNDA:105,_ZNSt8_Rb_treeIP7myTemp_St4pairIKS1_iESt10_Select1stIS4_ESt4lessIS1_ESaIS4_EE7_M_rootEv
FNDA:30,_ZNSt8_Rb_treeIiSt4pairIKiSt6vectorIiSaIiEEESt10_Select1stIS5_ESt4lessIiESaIS5_EE7_M_rootEv
FNDA:15,_ZNSt8_Rb_treeIiSt4pairIKiP9myAccess_ESt10_Select1stIS4_ESt4lessIiESaIS4_EE7_M_rootEv
FNDA:15,_ZNSt8_Rb_treeIiSt4pairIKiP7myTemp_ESt10_Select1stIS4_ESt4lessIiESaIS4_EE7_M_rootEv
FNDA:17,_ZNSt8_Rb_treeIiSt4pairIKijESt10_Select1stIS2_ESt4lessIiESaIS2_EE7_M_rootEv
FNDA:228,_ZNSt8_Rb_treeIP7myTemp_St4pairIKS1_iESt10_Select1stIS4_ESt4lessIS1_ESaIS4_EE11_M_leftmostEv
FNDA:0,_ZNSt8_Rb_treeIP7myTemp_St4pairIKS1_S1_ESt10_Select1stIS4_ESt4lessIS1_ESaIS4_EE11_M_leftmostEv
FNDA:39,_ZNSt8_Rb_treeIiSt4pairIKiSt6vectorIiSaIiEEESt10_Select1stIS5_ESt4lessIiESaIS5_EE11_M_leftmostEv
FNDA:15,_ZNSt8_Rb_treeIiSt4pairIKiP9myAccess_ESt10_Select1stIS4_ESt4lessIiESaIS4_EE11_M_leftmostEv
FNDA:66,_ZNSt8_Rb_treeIiSt4pairIKiP7myTemp_ESt10_Select1stIS4_ESt4lessIiESaIS4_EE11_M_leftmostEv
FNDA:48,_ZNSt8_Rb_treeIiSt4pairIKijESt10_Select1stIS2_ESt4lessIiESaIS2_EE11_M_leftmostEv
FNDA:152,_ZNSt8_Rb_treeIP7myTemp_St4pairIKS1_iESt10_Select1stIS4_ESt4lessIS1_ESaIS4_EE12_M_rightmostEv
FNDA:0,_ZNSt8_Rb_treeIP7myTemp_St4pairIKS1_S1_ESt10_Select1stIS4_ESt4lessIS1_ESaIS4_EE12_M_rightmostEv
FNDA:164,_ZNSt8_Rb_treeIiSt4pairIKiSt6vectorIiSaIiEEESt10_Select1stIS5_ESt4lessIiESaIS5_EE12_M_rightmostEv
FNDA:15,_ZNSt8_Rb_treeIiSt4pairIKiP9myAccess_ESt10_Select1stIS4_ESt4lessIiESaIS4_EE12_M_rightmostEv
FNDA:75,_ZNSt8_Rb_treeIiSt4pairIKiP7myTemp_ESt10_Select1stIS4_ESt4lessIiESaIS4_EE12_M_rightmostEv
FNDA:177,_ZNSt8_Rb_treeIiSt4pairIKijESt10_Select1stIS2_ESt4lessIiESaIS2_EE12_M_rightmostEv
FNDA:0,_ZNSt8_Rb_treeIP7myTemp_St4pairIKS1_S1_ESt10_Select1stIS4_ESt4lessIS1_ESaIS4_EE8_M_beginEv
FNDA:0,_ZNSt8_Rb_treeIP7myTemp_St4pairIKS1_iESt10_Select1stIS4_ESt4lessIS1_ESaIS4_EE8_M_beginEv
FNDA:0,_ZNSt8_Rb_treeIiSt4pairIKiSt6vectorIiSaIiEEESt10_Select1stIS5_ESt4lessIiESaIS5_EE8_M_beginEv
FNDA:0,_ZNSt8_Rb_treeIiSt4pairIKiP9myAccess_ESt10_Select1stIS4_ESt4lessIiESaIS4_EE8_M_beginEv
FNDA:0,_ZNSt8_Rb_treeIiSt4pairIKiP7myTemp_ESt10_Select1stIS4_ESt4lessIiESaIS4_EE8_M_beginEv
FNDA:0,_ZNSt8_Rb_treeIiSt4pairIKijESt10_Select1stIS2_ESt4lessIiESaIS2_EE8_M_beginEv
FNDA:1181,_ZNSt8_Rb_treeIP7myTemp_St4pairIKS1_iESt10_Select1stIS4_ESt4lessIS1_ESaIS4_EE6_M_endEv
FNDA:0,_ZNSt8_Rb_treeIP7myTemp_St4pairIKS1_S1_ESt10_Select1stIS4_ESt4lessIS1_ESaIS4_EE6_M_endEv
FNDA:513,_ZNSt8_Rb_treeIiSt4pairIKiSt6vectorIiSaIiEEESt10_Select1stIS5_ESt4lessIiESaIS5_EE6_M_endEv
FNDA:30,_ZNSt8_Rb_treeIiSt4pairIKiP9myAccess_ESt10_Select1stIS4_ESt4lessIiESaIS4_EE6_M_endEv
FNDA:309,_ZNSt8_Rb_treeIiSt4pairIKiP7myTemp_ESt10_Select1stIS4_ESt4lessIiESaIS4_EE6_M_endEv
FNDA:864,_ZNSt8_Rb_treeIiSt4pairIKijESt10_Select1stIS2_ESt4lessIiESaIS2_EE6_M_endEv
FNDA:0,_ZNSt8_Rb_treeIP7myTemp_St4pairIKS1_S1_ESt10_Select1stIS4_ESt4lessIS1_ESaIS4_EE8_S_valueEPKSt13_Rb_tree_nodeIS4_E
FNDA:0,_ZNSt8_Rb_treeIiSt4pairIKiP9myAccess_ESt10_Select1stIS4_ESt4lessIiESaIS4_EE8_S_valueEPKSt13_Rb_tree_nodeIS4_E
FNDA:383,_ZNSt8_Rb_treeIiSt4pairIKiP7myTemp_ESt10_Select1stIS4_ESt4lessIiESaIS4_EE8_S_valueEPKSt13_Rb_tree_nodeIS4_E
FNDA:769,_ZNSt8_Rb_treeIiSt4pairIKiSt6vectorIiSaIiEEESt10_Select1stIS5_ESt4lessIiESaIS5_EE8_S_valueEPKSt13_Rb_tree_nodeIS5_E
FNDA:1961,_ZNSt8_Rb_treeIiSt4pairIKijESt10_Select1stIS2_ESt4lessIiESaIS2_EE8_S_valueEPKSt13_Rb_tree_nodeIS2_E
FNDA:0,_ZNSt8_Rb_treeIP7myTemp_St4pairIKS1_S1_ESt10_Select1stIS4_ESt4lessIS1_ESaIS4_EE6_S_keyEPKSt13_Rb_tree_nodeIS4_E
FNDA:0,_ZNSt8_Rb_treeIiSt4pairIKiP9myAccess_ESt10_Select1stIS4_ESt4lessIiESaIS4_EE6_S_keyEPKSt13_Rb_tree_nodeIS4_E
FNDA:383,_ZNSt8_Rb_treeIiSt4pairIKiP7myTemp_ESt10_Select1stIS4_ESt4lessIiESaIS4_EE6_S_keyEPKSt13_Rb_tree_nodeIS4_E
FNDA:769,_ZNSt8_Rb_treeIiSt4pairIKiSt6vectorIiSaIiEEESt10_Select1stIS5_ESt4lessIiESaIS5_EE6_S_keyEPKSt13_Rb_tree_nodeIS5_E
FNDA:1961,_ZNSt8_Rb_treeIiSt4pairIKijESt10_Select1stIS2_ESt4lessIiESaIS2_EE6_S_keyEPKSt13_Rb_tree_nodeIS2_E
FNDA:0,_ZNSt8_Rb_treeIP7myTemp_St4pairIKS1_S1_ESt10_Select1stIS4_ESt4lessIS1_ESaIS4_EE7_S_leftEPSt18_Rb_tree_node_base
FNDA:0,_ZNSt8_Rb_treeIP7myTemp_St4pairIKS1_iESt10_Select1stIS4_ESt4lessIS1_ESaIS4_EE7_S_leftEPSt18_Rb_tree_node_base
FNDA:0,_ZNSt8_Rb_treeIiSt4pairIKiSt6vectorIiSaIiEEESt10_Select1stIS5_ESt4lessIiESaIS5_EE7_S_leftEPSt18_Rb_tree_node_base
FNDA:0,_ZNSt8_Rb_treeIiSt4pairIKiP9myAccess_ESt10_Select1stIS4_ESt4lessIiESaIS4_EE7_S_leftEPSt18_Rb_tree_node_base
FNDA:0,_ZNSt8_Rb_treeIiSt4pairIKiP7myTemp_ESt10_Select1stIS4_ESt4lessIiESaIS4_EE7_S_leftEPSt18_Rb_tree_node_base
FNDA:0,_ZNSt8_Rb_treeIiSt4pairIKijESt10_Select1stIS2_ESt4lessIiESaIS2_EE7_S_leftEPSt18_Rb_tree_node_base
FNDA:0,_ZNSt8_Rb_treeIP7myTemp_St4pairIKS1_S1_ESt10_Select1stIS4_ESt4lessIS1_ESaIS4_EE8_S_rightEPSt18_Rb_tree_node_base
FNDA:0,_ZNSt8_Rb_treeIP7myTemp_St4pairIKS1_iESt10_Select1stIS4_ESt4lessIS1_ESaIS4_EE8_S_rightEPSt18_Rb_tree_node_base
FNDA:0,_ZNSt8_Rb_treeIiSt4pairIKiSt6vectorIiSaIiEEESt10_Select1stIS5_ESt4lessIiESaIS5_EE8_S_rightEPSt18_Rb_tree_node_base
FNDA:0,_ZNSt8_Rb_treeIiSt4pairIKiP9myAccess_ESt10_Select1stIS4_ESt4lessIiESaIS4_EE8_S_rightEPSt18_Rb_tree_node_base
FNDA:0,_ZNSt8_Rb_treeIiSt4pairIKiP7myTemp_ESt10_Select1stIS4_ESt4lessIiESaIS4_EE8_S_rightEPSt18_Rb_tree_node_base
FNDA:0,_ZNSt8_Rb_treeIiSt4pairIKijESt10_Select1stIS2_ESt4lessIiESaIS2_EE8_S_rightEPSt18_Rb_tree_node_base
FNDA:0,_ZNSt8_Rb_treeIP7myTemp_St4pairIKS1_S1_ESt10_Select1stIS4_ESt4lessIS1_ESaIS4_EE8_S_valueEPKSt18_Rb_tree_node_base
FNDA:0,_ZNSt8_Rb_treeIiSt4pairIKiP9myAccess_ESt10_Select1stIS4_ESt4lessIiESaIS4_EE8_S_valueEPKSt18_Rb_tree_node_base
FNDA:136,_ZNSt8_Rb_treeIiSt4pairIKiP7myTemp_ESt10_Select1stIS4_ESt4lessIiESaIS4_EE8_S_valueEPKSt18_Rb_tree_node_base
FNDA:137,_ZNSt8_Rb_treeIiSt4pairIKiSt6vectorIiSaIiEEESt10_Select1stIS5_ESt4lessIiESaIS5_EE8_S_valueEPKSt18_Rb_tree_node_base
FNDA:222,_ZNSt8_Rb_treeIiSt4pairIKijESt10_Select1stIS2_ESt4lessIiESaIS2_EE8_S_valueEPKSt18_Rb_tree_node_base
FNDA:0,_ZNSt8_Rb_treeIP7myTemp_St4pairIKS1_S1_ESt10_Select1stIS4_ESt4lessIS1_ESaIS4_EE6_S_keyEPKSt18_Rb_tree_node_base
FNDA:0,_ZNSt8_Rb_treeIiSt4pairIKiP9myAccess_ESt10_Select1stIS4_ESt4lessIiESaIS4_EE6_S_keyEPKSt18_Rb_tree_node_base
FNDA:136,_ZNSt8_Rb_treeIiSt4pairIKiP7myTemp_ESt10_Select1stIS4_ESt4lessIiESaIS4_EE6_S_keyEPKSt18_Rb_tree_node_base
FNDA:137,_ZNSt8_Rb_treeIiSt4pairIKiSt6vectorIiSaIiEEESt10_Select1stIS5_ESt4lessIiESaIS5_EE6_S_keyEPKSt18_Rb_tree_node_base
FNDA:222,_ZNSt8_Rb_treeIiSt4pairIKijESt10_Select1stIS2_ESt4lessIiESaIS2_EE6_S_keyEPKSt18_Rb_tree_node_base
FNDA:15,_ZNSt8_Rb_treeIP7myTemp_St4pairIKS1_S1_ESt10_Select1stIS4_ESt4lessIS1_ESaIS4_EEC2Ev
FNDA:30,_ZNSt8_Rb_treeIiSt4pairIKiSt6vectorIiSaIiEEESt10_Select1stIS5_ESt4lessIiESaIS5_EEC2Ev
FNDA:15,_ZNSt8_Rb_treeIiSt4pairIKiP9myAccess_ESt10_Select1stIS4_ESt4lessIiESaIS4_EEC2Ev
FNDA:15,_ZNSt8_Rb_treeIiSt4pairIKiP7myTemp_ESt10_Select1stIS4_ESt4lessIiESaIS4_EEC2Ev
FNDA:15,_ZNSt8_Rb_treeIiSt4pairIKijESt10_Select1stIS2_ESt4lessIiESaIS2_EEC2Ev
FNDA:0,_ZNSt8_Rb_treeIP7myTemp_St4pairIKS1_S1_ESt10_Select1stIS4_ESt4lessIS1_ESaIS4_EED2Ev
FNDA:0,_ZNSt8_Rb_treeIP7myTemp_St4pairIKS1_iESt10_Select1stIS4_ESt4lessIS1_ESaIS4_EED2Ev
FNDA:0,_ZNSt8_Rb_treeIiSt4pairIKiSt6vectorIiSaIiEEESt10_Select1stIS5_ESt4lessIiESaIS5_EED2Ev
FNDA:0,_ZNSt8_Rb_treeIiSt4pairIKiP9myAccess_ESt10_Select1stIS4_ESt4lessIiESaIS4_EED2Ev
FNDA:0,_ZNSt8_Rb_treeIiSt4pairIKiP7myTemp_ESt10_Select1stIS4_ESt4lessIiESaIS4_EED2Ev
FNDA:0,_ZNSt8_Rb_treeIiSt4pairIKijESt10_Select1stIS2_ESt4lessIiESaIS2_EED2Ev
FNDA:0,_ZNKSt8_Rb_treeIP7myTemp_St4pairIKS1_S1_ESt10_Select1stIS4_ESt4lessIS1_ESaIS4_EE8key_compEv
FNDA:0,_ZNKSt8_Rb_treeIiSt4pairIKiP9myAccess_ESt10_Select1stIS4_ESt4lessIiESaIS4_EE8key_compEv
FNDA:83,_ZNKSt8_Rb_treeIiSt4pairIKiP7myTemp_ESt10_Select1stIS4_ESt4lessIiESaIS4_EE8key_compEv
FNDA:157,_ZNKSt8_Rb_treeIiSt4pairIKiSt6vectorIiSaIiEEESt10_Select1stIS5_ESt4lessIiESaIS5_EE8key_compEv
FNDA:415,_ZNKSt8_Rb_treeIiSt4pairIKijESt10_Select1stIS2_ESt4lessIiESaIS2_EE8key_compEv
FNDA:0,_ZNSt8_Rb_treeIP7myTemp_St4pairIKS1_S1_ESt10_Select1stIS4_ESt4lessIS1_ESaIS4_EE5beginEv
FNDA:0,_ZNSt8_Rb_treeIiSt4pairIKiP9myAccess_ESt10_Select1stIS4_ESt4lessIiESaIS4_EE5beginEv
FNDA:84,_ZNSt8_Rb_treeIiSt4pairIKijESt10_Select1stIS2_ESt4lessIiESaIS2_EE5beginEv
FNDA:30,_ZNSt8_Rb_treeIiSt4pairIKiP7myTemp_ESt10_Select1stIS4_ESt4lessIiESaIS4_EE5beginEv
FNDA:229,_ZNSt8_Rb_treeIiSt4pairIKiSt6vectorIiSaIiEEESt10_Select1stIS5_ESt4lessIiESaIS5_EE5beginEv
FNDA:0,_ZNSt8_Rb_treeIP7myTemp_St4pairIKS1_S1_ESt10_Select1stIS4_ESt4lessIS1_ESaIS4_EE3endEv
FNDA:0,_ZNSt8_Rb_treeIiSt4pairIKiP9myAccess_ESt10_Select1stIS4_ESt4lessIiESaIS4_EE3endEv
FNDA:529,_ZNSt8_Rb_treeIiSt4pairIKijESt10_Select1stIS2_ESt4lessIiESaIS2_EE3endEv
FNDA:225,_ZNSt8_Rb_treeIiSt4pairIKiP7myTemp_ESt10_Select1stIS4_ESt4lessIiESaIS4_EE3endEv
FNDA:453,_ZNSt8_Rb_treeIiSt4pairIKiSt6vectorIiSaIiEEESt10_Select1stIS5_ESt4lessIiESaIS5_EE3endEv
FNDA:0,_ZNKSt8_Rb_treeIP7myTemp_St4pairIKS1_S1_ESt10_Select1stIS4_ESt4lessIS1_ESaIS4_EE4sizeEv
FNDA:0,_ZNKSt8_Rb_treeIiSt4pairIKiP9myAccess_ESt10_Select1stIS4_ESt4lessIiESaIS4_EE4sizeEv
FNDA:45,_ZNKSt8_Rb_treeIiSt4pairIKiP7myTemp_ESt10_Select1stIS4_ESt4lessIiESaIS4_EE4sizeEv
FNDA:90,_ZNKSt8_Rb_treeIiSt4pairIKiSt6vectorIiSaIiEEESt10_Select1stIS5_ESt4lessIiESaIS5_EE4sizeEv
FNDA:231,_ZNKSt8_Rb_treeIiSt4pairIKijESt10_Select1stIS2_ESt4lessIiESaIS2_EE4sizeEv
FNDA:65,_ZNSt8_Rb_treeIiSt4pairIKijESt10_Select1stIS2_ESt4lessIiESaIS2_EE5eraseB5cxx11ESt23_Rb_tree_const_iteratorIS2_E
FNDA:67,_ZNSt8_Rb_treeIiSt4pairIKijESt10_Select1stIS2_ESt4lessIiESaIS2_EE5eraseB5cxx11ESt23_Rb_tree_const_iteratorIS2_ESA_
FNDA:15,_ZNSt8_Rb_treeIP7myTemp_St4pairIKS1_iESt10_Select1stIS4_ESt4lessIS1_ESaIS4_EE5clearEv
FNDA:30,_ZNSt8_Rb_treeIiSt4pairIKiSt6vectorIiSaIiEEESt10_Select1stIS5_ESt4lessIiESaIS5_EE5clearEv
FNDA:15,_ZNSt8_Rb_treeIiSt4pairIKiP9myAccess_ESt10_Select1stIS4_ESt4lessIiESaIS4_EE5clearEv
FNDA:15,_ZNSt8_Rb_treeIiSt4pairIKiP7myTemp_ESt10_Select1stIS4_ESt4lessIiESaIS4_EE5clearEv
FNDA:17,_ZNSt8_Rb_treeIiSt4pairIKijESt10_Select1stIS2_ESt4lessIiESaIS2_EE5clearEv
FNDA:0,_ZNSt8_Rb_treeIP7myTemp_St4pairIKS1_S1_ESt10_Select1stIS4_ESt4lessIS1_ESaIS4_EE11lower_boundERS3_
FNDA:0,_ZNSt8_Rb_treeIiSt4pairIKiP9myAccess_ESt10_Select1stIS4_ESt4lessIiESaIS4_EE11lower_boundERS1_
FNDA:128,_ZNSt8_Rb_treeIiSt4pairIKiP7myTemp_ESt10_Select1stIS4_ESt4lessIiESaIS4_EE11lower_boundERS1_
FNDA:247,_ZNSt8_Rb_treeIiSt4pairIKiSt6vectorIiSaIiEEESt10_Select1stIS5_ESt4lessIiESaIS5_EE11lower_boundERS1_
FNDA:512,_ZNSt8_Rb_treeIiSt4pairIKijESt10_Select1stIS2_ESt4lessIiESaIS2_EE11lower_boundERS1_
FNDA:0,_ZNSt8_Rb_treeIP7myTemp_St4pairIKS1_S1_ESt10_Select1stIS4_ESt4lessIS1_ESaIS4_EE8_M_eraseEPSt13_Rb_tree_nodeIS4_E
FNDA:0,_ZNSt8_Rb_treeIP7myTemp_St4pairIKS1_iESt10_Select1stIS4_ESt4lessIS1_ESaIS4_EE8_M_eraseEPSt13_Rb_tree_nodeIS4_E
FNDA:0,_ZNSt8_Rb_treeIiSt4pairIKiSt6vectorIiSaIiEEESt10_Select1stIS5_ESt4lessIiESaIS5_EE8_M_eraseEPSt13_Rb_tree_nodeIS5_E
FNDA:0,_ZNSt8_Rb_treeIiSt4pairIKiP9myAccess_ESt10_Select1stIS4_ESt4lessIiESaIS4_EE8_M_eraseEPSt13_Rb_tree_nodeIS4_E
FNDA:0,_ZNSt8_Rb_treeIiSt4pairIKiP7myTemp_ESt10_Select1stIS4_ESt4lessIiESaIS4_EE8_M_eraseEPSt13_Rb_tree_nodeIS4_E
FNDA:0,_ZNSt8_Rb_treeIiSt4pairIKijESt10_Select1stIS2_ESt4lessIiESaIS2_EE8_M_eraseEPSt13_Rb_tree_nodeIS2_E
FNDA:0,_ZNSt8_Rb_treeIP7myTemp_St4pairIKS1_S1_ESt10_Select1stIS4_ESt4lessIS1_ESaIS4_EE14_M_lower_boundEPSt13_Rb_tree_nodeIS4_ESD_RS3_
FNDA:0,_ZNSt8_Rb_treeIiSt4pairIKiP9myAccess_ESt10_Select1stIS4_ESt4lessIiESaIS4_EE14_M_lower_boundEPSt13_Rb_tree_nodeIS4_ESD_RS1_
FNDA:128,_ZNSt8_Rb_treeIiSt4pairIKiP7myTemp_ESt10_Select1stIS4_ESt4lessIiESaIS4_EE14_M_lower_boundEPSt13_Rb_tree_nodeIS4_ESD_RS1_
FNDA:247,_ZNSt8_Rb_treeIiSt4pairIKiSt6vectorIiSaIiEEESt10_Select1stIS5_ESt4lessIiESaIS5_EE14_M_lower_boundEPSt13_Rb_tree_nodeIS5_ESE_RS1_
FNDA:579,_ZNSt8_Rb_treeIiSt4pairIKijESt10_Select1stIS2_ESt4lessIiESaIS2_EE14_M_lower_boundEPSt13_Rb_tree_nodeIS2_ESB_RS1_
FNDA:67,_ZNSt8_Rb_treeIiSt4pairIKijESt10_Select1stIS2_ESt4lessIiESaIS2_EE14_M_upper_boundEPSt13_Rb_tree_nodeIS2_ESB_RS1_
FNDA:67,_ZNSt8_Rb_treeIiSt4pairIKijESt10_Select1stIS2_ESt4lessIiESaIS2_EE11equal_rangeERS1_
FNDA:15,_ZNSt8_Rb_treeIP7myTemp_St4pairIKS1_iESt10_Select1stIS4_ESt4lessIS1_ESaIS4_EE4swapERSA_
FNDA:0,_ZNSt8_Rb_treeIP7myTemp_St4pairIKS1_S1_ESt10_Select1stIS4_ESt4lessIS1_ESaIS4_EE24_M_get_insert_unique_posERS3_
FNDA:0,_ZNSt8_Rb_treeIiSt4pairIKiP9myAccess_ESt10_Select1stIS4_ESt4lessIiESaIS4_EE24_M_get_insert_unique_posERS1_
FNDA:15,_ZNSt8_Rb_treeIiSt4pairIKiP7myTemp_ESt10_Select1stIS4_ESt4lessIiESaIS4_EE24_M_get_insert_unique_posERS1_
FNDA:23,_ZNSt8_Rb_treeIiSt4pairIKiSt6vectorIiSaIiEEESt10_Select1stIS5_ESt4lessIiESaIS5_EE24_M_get_insert_unique_posERS1_
FNDA:17,_ZNSt8_Rb_treeIiSt4pairIKijESt10_Select1stIS2_ESt4lessIiESaIS2_EE24_M_get_insert_unique_posERS1_
FNDA:0,_ZNSt8_Rb_treeIP7myTemp_St4pairIKS1_S1_ESt10_Select1stIS4_ESt4lessIS1_ESaIS4_EE29_M_get_insert_hint_unique_posESt23_Rb_tree_const_iteratorIS4_ERS3_
FNDA:0,_ZNSt8_Rb_treeIiSt4pairIKiP9myAccess_ESt10_Select1stIS4_ESt4lessIiESaIS4_EE29_M_get_insert_hint_unique_posESt23_Rb_tree_const_iteratorIS4_ERS1_
FNDA:82,_ZNSt8_Rb_treeIiSt4pairIKiP7myTemp_ESt10_Select1stIS4_ESt4lessIiESaIS4_EE29_M_get_insert_hint_unique_posESt23_Rb_tree_const_iteratorIS4_ERS1_
FNDA:93,_ZNSt8_Rb_treeIiSt4pairIKiSt6vectorIiSaIiEEESt10_Select1stIS5_ESt4lessIiESaIS5_EE29_M_get_insert_hint_unique_posESt23_Rb_tree_const_iteratorIS5_ERS1_
FNDA:122,_ZNSt8_Rb_treeIiSt4pairIKijESt10_Select1stIS2_ESt4lessIiESaIS2_EE29_M_get_insert_hint_unique_posESt23_Rb_tree_const_iteratorIS2_ERS1_
FNDA:0,_ZNSt8_Rb_treeIP7myTemp_St4pairIKS1_S1_ESt10_Select1stIS4_ESt4lessIS1_ESaIS4_EE14_M_insert_nodeEPSt18_Rb_tree_node_baseSC_PSt13_Rb_tree_nodeIS4_E
FNDA:0,_ZNSt8_Rb_treeIiSt4pairIKiP9myAccess_ESt10_Select1stIS4_ESt4lessIiESaIS4_EE14_M_insert_nodeEPSt18_Rb_tree_node_baseSC_PSt13_Rb_tree_nodeIS4_E
FNDA:82,_ZNSt8_Rb_treeIiSt4pairIKiP7myTemp_ESt10_Select1stIS4_ESt4lessIiESaIS4_EE14_M_insert_nodeEPSt18_Rb_tree_node_baseSC_PSt13_Rb_tree_nodeIS4_E
FNDA:93,_ZNSt8_Rb_treeIiSt4pairIKiSt6vectorIiSaIiEEESt10_Select1stIS5_ESt4lessIiESaIS5_EE14_M_insert_nodeEPSt18_Rb_tree_node_baseSD_PSt13_Rb_tree_nodeIS5_E
FNDA:122,_ZNSt8_Rb_treeIiSt4pairIKijESt10_Select1stIS2_ESt4lessIiESaIS2_EE14_M_insert_nodeEPSt18_Rb_tree_node_baseSA_PSt13_Rb_tree_nodeIS2_E
FNDA:0,_ZNSt8_Rb_treeIP7myTemp_St4pairIKS1_S1_ESt10_Select1stIS4_ESt4lessIS1_ESaIS4_EE22_M_emplace_hint_uniqueIIRKSt21piecewise_construct_tSt5tupleIIOS1_EESF_IIEEEEESt17_Rb_tree_iteratorIS4_ESt23_Rb_tree_const_iteratorIS4_EDpOT_
FNDA:0,_ZNSt8_Rb_treeIiSt4pairIKiP9myAccess_ESt10_Select1stIS4_ESt4lessIiESaIS4_EE22_M_emplace_hint_uniqueIIRKSt21piecewise_construct_tSt5tupleIIOiEESF_IIEEEEESt17_Rb_tree_iteratorIS4_ESt23_Rb_tree_const_iteratorIS4_EDpOT_
FNDA:0,_ZNSt8_Rb_treeIiSt4pairIKiP9myAccess_ESt10_Select1stIS4_ESt4lessIiESaIS4_EE22_M_emplace_hint_uniqueIIRKSt21piecewise_construct_tSt5tupleIIRS1_EESF_IIEEEEESt17_Rb_tree_iteratorIS4_ESt23_Rb_tree_const_iteratorIS4_EDpOT_
FNDA:82,_ZNSt8_Rb_treeIiSt4pairIKiP7myTemp_ESt10_Select1stIS4_ESt4lessIiESaIS4_EE22_M_emplace_hint_uniqueIIRKSt21piecewise_construct_tSt5tupleIIRS1_EESF_IIEEEEESt17_Rb_tree_iteratorIS4_ESt23_Rb_tree_const_iteratorIS4_EDpOT_
FNDA:0,_ZNSt8_Rb_treeIiSt4pairIKijESt10_Select1stIS2_ESt4lessIiESaIS2_EE22_M_emplace_hint_uniqueIIRKSt21piecewise_construct_tSt5tupleIIOiEESD_IIEEEEESt17_Rb_tree_iteratorIS2_ESt23_Rb_tree_const_iteratorIS2_EDpOT_
FNDA:93,_ZNSt8_Rb_treeIiSt4pairIKiSt6vectorIiSaIiEEESt10_Select1stIS5_ESt4lessIiESaIS5_EE22_M_emplace_hint_uniqueIIRKSt21piecewise_construct_tSt5tupleIIRS1_EESG_IIEEEEESt17_Rb_tree_iteratorIS5_ESt23_Rb_tree_const_iteratorIS5_EDpOT_
FNDA:122,_ZNSt8_Rb_treeIiSt4pairIKijESt10_Select1stIS2_ESt4lessIiESaIS2_EE22_M_emplace_hint_uniqueIIRKSt21piecewise_construct_tSt5tupleIIRS1_EESD_IIEEEEESt17_Rb_tree_iteratorIS2_ESt23_Rb_tree_const_iteratorIS2_EDpOT_
FNDA:65,_ZNSt8_Rb_treeIiSt4pairIKijESt10_Select1stIS2_ESt4lessIiESaIS2_EE12_M_erase_auxESt23_Rb_tree_const_iteratorIS2_E
FNDA:67,_ZNSt8_Rb_treeIiSt4pairIKijESt10_Select1stIS2_ESt4lessIiESaIS2_EE12_M_erase_auxESt23_Rb_tree_const_iteratorIS2_ESA_
FNDA:67,_ZNSt8_Rb_treeIiSt4pairIKijESt10_Select1stIS2_ESt4lessIiESaIS2_EE5eraseERS1_
FNF:239
FNH:125
DA:131,0
DA:138,297
DA:140,297
DA:174,3352
DA:175,3352
DA:178,1696
DA:179,1696
DA:182,164
DA:184,164
DA:187,212
DA:189,212
DA:190,212
DA:202,52
DA:204,52
DA:205,52
DA:217,942
DA:218,942
DA:221,433
DA:222,433
DA:250,515
DA:251,515
DA:254,429
DA:256,429
DA:268,65
DA:270,65
DA:271,65
DA:275,65
DA:277,65
DA:278,65
DA:279,65
DA:298,84
DA:299,84
DA:302,130
DA:303,130
DA:356,0
DA:357,0
DA:369,297
DA:370,297
DA:373,0
DA:374,0
DA:401,297
DA:403,297
DA:406,297
DA:407,297
DA:408,297
DA:410,0
DA:412,0
DA:413,0
DA:415,297
DA:419,0
DA:421,0
DA:422,0
DA:423,0
DA:439,0
DA:445,90
DA:447,90
DA:448,90
DA:464,90
DA:466,90
DA:467,90
DA:468,90
DA:469,90
DA:470,90
DA:477,182
DA:478,182
DA:485,396
DA:486,396
DA:493,583
DA:494,583
DA:501,0
DA:502,0
DA:512,2897
DA:513,2897
DA:520,3113
DA:521,3113
DA:524,3113
DA:525,3113
DA:528,0
DA:529,0
DA:536,0
DA:537,0
DA:544,495
DA:545,495
DA:548,495
DA:549,495
DA:648,90
DA:670,0
DA:671,0
DA:678,655
DA:679,655
DA:682,343
DA:685,343
DA:696,1207
DA:697,1207
DA:727,366
DA:728,366
DA:805,65
DA:807,65
DA:808,65
DA:809,65
DA:810,65
DA:840,67
DA:842,67
DA:843,67
DA:858,92
DA:860,92
DA:861,92
DA:862,92
DA:863,92
DA:864,92
DA:865,92
DA:878,887
DA:879,887
DA:1119,0
DA:1123,0
DA:1125,0
DA:1126,0
DA:1127,0
DA:1128,0
DA:1130,0
DA:1136,954
DA:1140,4244
DA:1141,2336
DA:1142,1079
DA:1144,1257
DA:1145,954
DA:1168,67
DA:1172,167
DA:1173,33
DA:1174,33
DA:1176,0
DA:1177,67
DA:1202,67
DA:1205,67
DA:1206,67
DA:1207,67
DA:1209,149
DA:1210,52
DA:1211,97
DA:1212,30
DA:1215,67
DA:1216,67
DA:1217,67
DA:1220,67
DA:1224,0
DA:1261,15
DA:1264,15
DA:1266,15
DA:1268,15
DA:1269,15
DA:1270,15
DA:1271,15
DA:1273,15
DA:1274,15
DA:1275,15
DA:1278,0
DA:1280,0
DA:1281,0
DA:1282,0
DA:1283,0
DA:1285,0
DA:1286,0
DA:1287,0
DA:1291,0
DA:1292,0
DA:1293,0
DA:1295,0
DA:1296,0
DA:1299,15
DA:1300,15
DA:1304,15
DA:1305,15
DA:1306,15
DA:1314,55
DA:1318,55
DA:1319,55
DA:1320,55
DA:1321,110
DA:1323,0
DA:1324,0
DA:1325,0
DA:1327,55
DA:1328,55
DA:1330,55
DA:1331,55
DA:1333,0
DA:1335,0
DA:1336,0
DA:1337,0
DA:1411,297
DA:1415,297
DA:1419,297
DA:1421,409
DA:1422,177
DA:1423,177
DA:1425,55
DA:1427,65
DA:1430,65
DA:1431,65
DA:1432,13
DA:1433,52
DA:1435,52
DA:1436,24
DA:1438,28
DA:1441,0
DA:1443,0
DA:1446,0
DA:1447,0
DA:1448,0
DA:1449,0
DA:1451,0
DA:1452,0
DA:1454,0
DA:1457,0
DA:1461,0
DA:1568,297
DA:1571,256
DA:1572,201
DA:1573,754
DA:1575,297
DA:1576,297
DA:1577,297
DA:1578,297
DA:1666,297
DA:1669,297
DA:1673,297
DA:1675,297
DA:1676,297
DA:1678,0
DA:1679,0
DA:1681,0
DA:1683,0
DA:1684,0
DA:1739,65
DA:1745,65
DA:1746,65
DA:1747,65
DA:1748,65
DA:1753,67
DA:1756,67
DA:1757,2
DA:1759,195
DA:1760,65
DA:1761,67
DA:1766,67
DA:1769,67
DA:1770,67
DA:1771,67
DA:1772,67
LF:249
LH:183
end_of_record
SF:/usr/include/c++/4.8/bits/stl_uninitialized.h
FN:68,_ZNSt20__uninitialized_copyILb0EE13__uninit_copyIN9__gnu_cxx17__normal_iteratorIPKN5lgxZJ2LA13DirectedGraph8RealNodeESt6vectorIS7_SaIS7_EEEEPS7_EET0_T_SG_SF_
FN:68,_ZNSt20__uninitialized_copyILb0EE13__uninit_copyISt13move_iteratorIPSt10shared_ptrIN5lgxZJ2IS3AAIEEES8_EET0_T_SB_SA_
FN:68,_ZNSt20__uninitialized_copyILb0EE13__uninit_copyIPSt10shared_ptrIN5lgxZJ2IS3AAIEES7_EET0_T_S9_S8_
FN:68,_ZNSt20__uninitialized_copyILb0EE13__uninit_copyIN9__gnu_cxx17__normal_iteratorIPKN5lgxZJ2LA4EdgeESt6vectorIS6_SaIS6_EEEEPS6_EET0_T_SF_SE_
FN:68,_ZNSt20__uninitialized_copyILb0EE13__uninit_copyISt13move_iteratorIPN5lgxZJ2LA4EdgeEES6_EET0_T_S9_S8_
FN:68,_ZNSt20__uninitialized_copyILb0EE13__uninit_copyIN9__gnu_cxx17__normal_iteratorIPKSt10shared_ptrIN5lgxZJ2IS3AAIEESt6vectorIS8_SaIS8_EEEEPS8_EET0_T_SH_SG_
FN:91,_ZNSt20__uninitialized_copyILb1EE13__uninit_copyIPKP7myTemp_PS3_EET0_T_S8_S7_
FN:91,_ZNSt20__uninitialized_copyILb1EE13__uninit_copyIPiS2_EET0_T_S4_S3_
FN:91,_ZNSt20__uninitialized_copyILb1EE13__uninit_copyIN9__gnu_cxx17__normal_iteratorIPKiSt6vectorIiSaIiEEEEPiEET0_T_SC_SB_
FN:91,_ZNSt20__uninitialized_copyILb1EE13__uninit_copyISt15_Deque_iteratorIiRKiPS3_ES2_IiRiPiEEET0_T_SB_SA_
FN:91,_ZNSt20__uninitialized_copyILb1EE13__uninit_copyISt13move_iteratorIPiES3_EET0_T_S6_S5_
FN:91,_ZNSt20__uninitialized_copyILb1EE13__uninit_copyIN9__gnu_cxx17__normal_iteratorIPP7myTemp_St6vectorIS5_SaIS5_EEEES6_EET0_T_SC_SB_
FN:107,_ZSt18uninitialized_copyIPiS0_ET0_T_S2_S1_
FN:107,_ZSt18uninitialized_copyIN9__gnu_cxx17__normal_iteratorIPKiSt6vectorIiSaIiEEEEPiET0_T_SA_S9_
FN:107,_ZSt18uninitialized_copyIPSt10shared_ptrIN5lgxZJ2IS3AAIEES5_ET0_T_S7_S6_
FN:107,_ZSt18uninitialized_copyISt13move_iteratorIPSt10shared_ptrIN5lgxZJ2IS3AAIEEES6_ET0_T_S9_S8_
FN:107,_ZSt18uninitialized_copyISt15_Deque_iteratorIiRKiPS1_ES0_IiRiPiEET0_T_S9_S8_
FN:107,_ZSt18uninitialized_copyIPKP7myTemp_PS1_ET0_T_S6_S5_
FN:107,_ZSt18uninitialized_copyIN9__gnu_cxx17__normal_iteratorIPKN5lgxZJ2LA13DirectedGraph8RealNodeESt6vectorIS5_SaIS5_EEEEPS5_ET0_T_SE_SD_
FN:107,_ZSt18uninitialized_copyISt13move_iteratorIPN5lgxZJ2LA4EdgeEES4_ET0_T_S7_S6_
FN:107,_ZSt18uninitialized_copyISt13move_iteratorIPiES1_ET0_T_S4_S3_
FN:107,_ZSt18uninitialized_copyIN9__gnu_cxx17__normal_iteratorIPP7myTemp_St6vectorIS3_SaIS3_EEEES4_ET0_T_SA_S9_
FN:107,_ZSt18uninitialized_copyIN9__gnu_cxx17__normal_iteratorIPKSt10shared_ptrIN5lgxZJ2IS3AAIEESt6vectorIS6_SaIS6_EEEEPS6_ET0_T_SF_SE_
FN:107,_ZSt18uninitialized_copyIN9__gnu_cxx17__normal_iteratorIPKN5lgxZJ2LA4EdgeESt6vectorIS4_SaIS4_EEEEPS4_ET0_T_SD_SC_
FN:256,_ZSt22__uninitialized_copy_aIN9__gnu_cxx17__normal_iteratorIPKN5lgxZJ2LA13DirectedGraph8RealNodeESt6vectorIS5_SaIS5_EEEEPS5_S5_ET0_T_SE_SD_RSaIT1_E
FN:256,_ZSt22__uninitialized_copy_aIPKP7myTemp_PS1_S1_ET0_T_S6_S5_RSaIT1_E
FN:256,_ZSt22__uninitialized_copy_aISt13move_iteratorIPN5lgxZJ2LA4EdgeEES4_S3_ET0_T_S7_S6_RSaIT1_E
FN:256,_ZSt22__uninitialized_copy_aIN9__gnu_cxx17__normal_iteratorIPKiSt6vectorIiSaIiEEEEPiiET0_T_SA_S9_RSaIT1_E
FN:256,_ZSt22__uninitialized_copy_aIPiS0_iET0_T_S2_S1_RSaIT1_E
FN:256,_ZSt22__uninitialized_copy_aISt13move_iteratorIPiES1_iET0_T_S4_S3_RSaIT1_E
FN:256,_ZSt22__uninitialized_copy_aIN9__gnu_cxx17__normal_iteratorIPP7myTemp_St6vectorIS3_SaIS3_EEEES4_S3_ET0_T_SA_S9_RSaIT1_E
FN:256,_ZSt22__uninitialized_copy_aIN9__gnu_cxx17__normal_iteratorIPKN5lgxZJ2LA4EdgeESt6vectorIS4_SaIS4_EEEEPS4_S4_ET0_T_SD_SC_RSaIT1_E
FN:256,_ZSt22__uninitialized_copy_aISt13move_iteratorIPSt10shared_ptrIN5lgxZJ2IS3AAIEEES6_S5_ET0_T_S9_S8_RSaIT1_E
FN:256,_ZSt22__uninitialized_copy_aIPSt10shared_ptrIN5lgxZJ2IS3AAIEES5_S4_ET0_T_S7_S6_RSaIT1_E
FN:256,_ZSt22__uninitialized_copy_aIN9__gnu_cxx17__normal_iteratorIPKSt10shared_ptrIN5lgxZJ2IS3AAIEESt6vectorIS6_SaIS6_EEEEPS6_S6_ET0_T_SF_SE_RSaIT1_E
FN:256,_ZSt22__uninitialized_copy_aISt15_Deque_iteratorIiRKiPS1_ES0_IiRiPiEiET0_T_S9_S8_RSaIT1_E
FN:274,_ZSt34__uninitialized_move_if_noexcept_aIPiS0_SaIiEET0_T_S3_S2_RT1_
FN:274,_ZSt34__uninitialized_move_if_noexcept_aIPSt10shared_ptrIN5lgxZJ2IS3AAIEES5_SaIS4_EET0_T_S8_S7_RT1_
FN:274,_ZSt34__uninitialized_move_if_noexcept_aIPN5lgxZJ2LA4EdgeES3_SaIS2_EET0_T_S6_S5_RT1_
FNDA:0,_ZNSt20__uninitialized_copyILb0EE13__uninit_copyISt13move_iteratorIPSt10shared_ptrIN5lgxZJ2IS3AAIEEES8_EET0_T_SB_SA_
FNDA:241,_ZNSt20__uninitialized_copyILb0EE13__uninit_copyISt13move_iteratorIPN5lgxZJ2LA4EdgeEES6_EET0_T_S9_S8_
FNDA:403,_ZNSt20__uninitialized_copyILb0EE13__uninit_copyIN9__gnu_cxx17__normal_iteratorIPKN5lgxZJ2LA4EdgeESt6vectorIS6_SaIS6_EEEEPS6_EET0_T_SF_SE_
FNDA:388,_ZNSt20__uninitialized_copyILb0EE13__uninit_copyIN9__gnu_cxx17__normal_iteratorIPKN5lgxZJ2LA13DirectedGraph8RealNodeESt6vectorIS7_SaIS7_EEEEPS7_EET0_T_SG_SF_
FNDA:0,_ZNSt20__uninitialized_copyILb0EE13__uninit_copyIPSt10shared_ptrIN5lgxZJ2IS3AAIEES7_EET0_T_S9_S8_
FNDA:105,_ZNSt20__uninitialized_copyILb0EE13__uninit_copyIN9__gnu_cxx17__normal_iteratorIPKSt10shared_ptrIN5lgxZJ2IS3AAIEESt6vectorIS8_SaIS8_EEEEPS8_EET0_T_SH_SG_
FNDA:50,_ZNSt20__uninitialized_copyILb1EE13__uninit_copyIN9__gnu_cxx17__normal_iteratorIPP7myTemp_St6vectorIS5_SaIS5_EEEES6_EET0_T_SC_SB_
FNDA:2128,_ZNSt20__uninitialized_copyILb1EE13__uninit_copyISt13move_iteratorIPiES3_EET0_T_S6_S5_
FNDA:50,_ZNSt20__uninitialized_copyILb1EE13__uninit_copyIPKP7myTemp_PS3_EET0_T_S8_S7_
FNDA:26,_ZNSt20__uninitialized_copyILb1EE13__uninit_copyISt15_Deque_iteratorIiRKiPS3_ES2_IiRiPiEEET0_T_SB_SA_
FNDA:11526,_ZNSt20__uninitialized_copyILb1EE13__uninit_copyIN9__gnu_cxx17__normal_iteratorIPKiSt6vectorIiSaIiEEEEPiEET0_T_SC_SB_
FNDA:0,_ZNSt20__uninitialized_copyILb1EE13__uninit_copyIPiS2_EET0_T_S4_S3_
FNDA:0,_ZSt18uninitialized_copyISt13move_iteratorIPSt10shared_ptrIN5lgxZJ2IS3AAIEEES6_ET0_T_S9_S8_
FNDA:50,_ZSt18uninitialized_copyIN9__gnu_cxx17__normal_iteratorIPP7myTemp_St6vectorIS3_SaIS3_EEEES4_ET0_T_SA_S9_
FNDA:241,_ZSt18uninitialized_copyISt13move_iteratorIPN5lgxZJ2LA4EdgeEES4_ET0_T_S7_S6_
FNDA:2128,_ZSt18uninitialized_copyISt13move_iteratorIPiES1_ET0_T_S4_S3_
FNDA:50,_ZSt18uninitialized_copyIPKP7myTemp_PS1_ET0_T_S6_S5_
FNDA:26,_ZSt18uninitialized_copyISt15_Deque_iteratorIiRKiPS1_ES0_IiRiPiEET0_T_S9_S8_
FNDA:403,_ZSt18uninitialized_copyIN9__gnu_cxx17__normal_iteratorIPKN5lgxZJ2LA4EdgeESt6vectorIS4_SaIS4_EEEEPS4_ET0_T_SD_SC_
FNDA:388,_ZSt18uninitialized_copyIN9__gnu_cxx17__normal_iteratorIPKN5lgxZJ2LA13DirectedGraph8RealNodeESt6vectorIS5_SaIS5_EEEEPS5_ET0_T_SE_SD_
FNDA:11526,_ZSt18uninitialized_copyIN9__gnu_cxx17__normal_iteratorIPKiSt6vectorIiSaIiEEEEPiET0_T_SA_S9_
FNDA:0,_ZSt18uninitialized_copyIPiS0_ET0_T_S2_S1_
FNDA:0,_ZSt18uninitialized_copyIPSt10shared_ptrIN5lgxZJ2IS3AAIEES5_ET0_T_S7_S6_
FNDA:105,_ZSt18uninitialized_copyIN9__gnu_cxx17__normal_iteratorIPKSt10shared_ptrIN5lgxZJ2IS3AAIEESt6vectorIS6_SaIS6_EEEEPS6_ET0_T_SF_SE_
FNDA:0,_ZSt22__uninitialized_copy_aISt13move_iteratorIPSt10shared_ptrIN5lgxZJ2IS3AAIEEES6_S5_ET0_T_S9_S8_RSaIT1_E
FNDA:50,_ZSt22__uninitialized_copy_aIN9__gnu_cxx17__normal_iteratorIPP7myTemp_St6vectorIS3_SaIS3_EEEES4_S3_ET0_T_SA_S9_RSaIT1_E
FNDA:241,_ZSt22__uninitialized_copy_aISt13move_iteratorIPN5lgxZJ2LA4EdgeEES4_S3_ET0_T_S7_S6_RSaIT1_E
FNDA:2128,_ZSt22__uninitialized_copy_aISt13move_iteratorIPiES1_iET0_T_S4_S3_RSaIT1_E
FNDA:50,_ZSt22__uninitialized_copy_aIPKP7myTemp_PS1_S1_ET0_T_S6_S5_RSaIT1_E
FNDA:26,_ZSt22__uninitialized_copy_aISt15_Deque_iteratorIiRKiPS1_ES0_IiRiPiEiET0_T_S9_S8_RSaIT1_E
FNDA:403,_ZSt22__uninitialized_copy_aIN9__gnu_cxx17__normal_iteratorIPKN5lgxZJ2LA4EdgeESt6vectorIS4_SaIS4_EEEEPS4_S4_ET0_T_SD_SC_RSaIT1_E
FNDA:388,_ZSt22__uninitialized_copy_aIN9__gnu_cxx17__normal_iteratorIPKN5lgxZJ2LA13DirectedGraph8RealNodeESt6vectorIS5_SaIS5_EEEEPS5_S5_ET0_T_SE_SD_RSaIT1_E
FNDA:11526,_ZSt22__uninitialized_copy_aIN9__gnu_cxx17__normal_iteratorIPKiSt6vectorIiSaIiEEEEPiiET0_T_SA_S9_RSaIT1_E
FNDA:0,_ZSt22__uninitialized_copy_aIPiS0_iET0_T_S2_S1_RSaIT1_E
FNDA:0,_ZSt22__uninitialized_copy_aIPSt10shared_ptrIN5lgxZJ2IS3AAIEES5_S4_ET0_T_S7_S6_RSaIT1_E
FNDA:105,_ZSt22__uninitialized_copy_aIN9__gnu_cxx17__normal_iteratorIPKSt10shared_ptrIN5lgxZJ2IS3AAIEESt6vectorIS6_SaIS6_EEEEPS6_S6_ET0_T_SF_SE_RSaIT1_E
FNDA:0,_ZSt34__uninitialized_move_if_noexcept_aIPSt10shared_ptrIN5lgxZJ2IS3AAIEES5_SaIS4_EET0_T_S8_S7_RT1_
FNDA:241,_ZSt34__uninitialized_move_if_noexcept_aIPN5lgxZJ2LA4EdgeES3_SaIS2_EET0_T_S6_S5_RT1_
FNDA:2128,_ZSt34__uninitialized_move_if_noexcept_aIPiS0_SaIiEET0_T_S3_S2_RT1_
FNF:39
FNH:29
DA:68,1137
DA:71,1137
DA:74,13587
DA:75,12450
DA:76,1137
DA:78,0
DA:80,0
DA:81,0
DA:91,13780
DA:93,13780
DA:107,14917
DA:117,14917
DA:256,14917
DA:258,14917
DA:274,2369
DA:281,2369
LF:16
LH:13
end_of_record
SF:/usr/include/c++/4.8/bits/stl_vector.h
FN:79,_ZNSt12_Vector_baseIP7myTemp_SaIS1_EE12_Vector_implD2Ev
FN:79,_ZNSt12_Vector_baseIN5lgxZJ2LA4EdgeESaIS2_EE12_Vector_implD2Ev
FN:79,_ZNSt12_Vector_baseIN5lgxZJ2LA13DirectedGraph8RealNodeESaIS3_EE12_Vector_implD2Ev
FN:79,_ZNSt12_Vector_baseISt6vectorIP7myTemp_SaIS2_EESaIS4_EE12_Vector_implD2Ev
FN:79,_ZNSt12_Vector_baseISt10shared_ptrIN5lgxZJ2IS3AAIEESaIS4_EE12_Vector_implD2Ev
FN:79,_ZNSt12_Vector_baseIiSaIiEE12_Vector_implD2Ev
FN:86,_ZNSt12_Vector_baseIiSaIiEE12_Vector_implC2Ev
FN:86,_ZNSt12_Vector_baseISt10shared_ptrIN5lgxZJ2IS3AAIEESaIS4_EE12_Vector_implC2Ev
FN:86,_ZNSt12_Vector_baseIN5lgxZJ2LA4EdgeESaIS2_EE12_Vector_implC2Ev
FN:90,_ZNSt12_Vector_baseISt6vectorIP7myTemp_SaIS2_EESaIS4_EE12_Vector_implC2ERKS5_
FN:90,_ZNSt12_Vector_baseIN5lgxZJ2LA13DirectedGraph8RealNodeESaIS3_EE12_Vector_implC2ERKS4_
FN:90,_ZNSt12_Vector_baseIiSaIiEE12_Vector_implC2ERKS0_
FN:90,_ZNSt12_Vector_baseIN5lgxZJ2LA4EdgeESaIS2_EE12_Vector_implC2ERKS3_
FN:90,_ZNSt12_Vector_baseIP7myTemp_SaIS1_EE12_Vector_implC2ERKS2_
FN:90,_ZNSt12_Vector_baseISt10shared_ptrIN5lgxZJ2IS3AAIEESaIS4_EE12_Vector_implC2ERKS5_
FN:101,_ZNSt12_Vector_baseISt10shared_ptrIN5lgxZJ2IS3AAIEESaIS4_EE12_Vector_impl12_M_swap_dataERS7_
FN:101,_ZNSt12_Vector_baseIN5lgxZJ2LA4EdgeESaIS2_EE12_Vector_impl12_M_swap_dataERS5_
FN:101,_ZNSt12_Vector_baseIN5lgxZJ2LA13DirectedGraph8RealNodeESaIS3_EE12_Vector_impl12_M_swap_dataERS6_
FN:101,_ZNSt12_Vector_baseIP7myTemp_SaIS1_EE12_Vector_impl12_M_swap_dataERS4_
FN:101,_ZNSt12_Vector_baseISt6vectorIP7myTemp_SaIS2_EESaIS4_EE12_Vector_impl12_M_swap_dataERS7_
FN:113,_ZNSt12_Vector_baseIP7myTemp_SaIS1_EE19_M_get_Tp_allocatorEv
FN:113,_ZNSt12_Vector_baseISt6vectorIP7myTemp_SaIS2_EESaIS4_EE19_M_get_Tp_allocatorEv
FN:113,_ZNSt12_Vector_baseIN5lgxZJ2LA4EdgeESaIS2_EE19_M_get_Tp_allocatorEv
FN:113,_ZNSt12_Vector_baseISt10shared_ptrIN5lgxZJ2IS3AAIEESaIS4_EE19_M_get_Tp_allocatorEv
FN:113,_ZNSt12_Vector_baseIN5lgxZJ2LA13DirectedGraph8RealNodeESaIS3_EE19_M_get_Tp_allocatorEv
FN:113,_ZNSt12_Vector_baseIiSaIiEE19_M_get_Tp_allocatorEv
FN:117,_ZNKSt12_Vector_baseIN5lgxZJ2LA13DirectedGraph8RealNodeESaIS3_EE19_M_get_Tp_allocatorEv
FN:117,_ZNKSt12_Vector_baseIiSaIiEE19_M_get_Tp_allocatorEv
FN:117,_ZNKSt12_Vector_baseIN5lgxZJ2LA4EdgeESaIS2_EE19_M_get_Tp_allocatorEv
FN:117,_ZNKSt12_Vector_baseIP7myTemp_SaIS1_EE19_M_get_Tp_allocatorEv
FN:117,_ZNKSt12_Vector_baseISt10shared_ptrIN5lgxZJ2IS3AAIEESaIS4_EE19_M_get_Tp_allocatorEv
FN:117,_ZNKSt12_Vector_baseISt6vectorIP7myTemp_SaIS2_EESaIS4_EE19_M_get_Tp_allocatorEv
FN:121,_ZNKSt12_Vector_baseIN5lgxZJ2LA4EdgeESaIS2_EE13get_allocatorEv
FN:121,_ZNKSt12_Vector_baseISt6vectorIP7myTemp_SaIS2_EESaIS4_EE13get_allocatorEv
FN:121,_ZNKSt12_Vector_baseIN5lgxZJ2LA13DirectedGraph8RealNodeESaIS3_EE13get_allocatorEv
FN:121,_ZNKSt12_Vector_baseISt10shared_ptrIN5lgxZJ2IS3AAIEESaIS4_EE13get_allocatorEv
FN:121,_ZNKSt12_Vector_baseIP7myTemp_SaIS1_EE13get_allocatorEv
FN:124,_ZNSt12_Vector_baseIiSaIiEEC2Ev
FN:124,_ZNSt12_Vector_baseIN5lgxZJ2LA4EdgeESaIS2_EEC2Ev
FN:124,_ZNSt12_Vector_baseISt10shared_ptrIN5lgxZJ2IS3AAIEESaIS4_EEC2Ev
FN:127,_ZNSt12_Vector_baseISt6vectorIP7myTemp_SaIS2_EESaIS4_EEC2ERKS5_
FN:127,_ZNSt12_Vector_baseIP7myTemp_SaIS1_EEC2ERKS2_
FN:127,_ZNSt12_Vector_baseISt10shared_ptrIN5lgxZJ2IS3AAIEESaIS4_EEC2ERKS5_
FN:127,_ZNSt12_Vector_baseIN5lgxZJ2LA13DirectedGraph8RealNodeESaIS3_EEC2ERKS4_
FN:127,_ZNSt12_Vector_baseIN5lgxZJ2LA4EdgeESaIS2_EEC2ERKS3_
FN:134,_ZNSt12_Vector_baseIiSaIiEEC2EmRKS0_
FN:134,_ZNSt12_Vector_baseIN5lgxZJ2LA13DirectedGraph8RealNodeESaIS3_EEC2EmRKS4_
FN:134,_ZNSt12_Vector_baseISt10shared_ptrIN5lgxZJ2IS3AAIEESaIS4_EEC2EmRKS5_
FN:134,_ZNSt12_Vector_baseIN5lgxZJ2LA4EdgeESaIS2_EEC2EmRKS3_
FN:159,_ZNSt12_Vector_baseIN5lgxZJ2LA4EdgeESaIS2_EED2Ev
FN:159,_ZNSt12_Vector_baseISt10shared_ptrIN5lgxZJ2IS3AAIEESaIS4_EED2Ev
FN:159,_ZNSt12_Vector_baseIiSaIiEED2Ev
FN:159,_ZNSt12_Vector_baseIP7myTemp_SaIS1_EED2Ev
FN:159,_ZNSt12_Vector_baseIN5lgxZJ2LA13DirectedGraph8RealNodeESaIS3_EED2Ev
FN:159,_ZNSt12_Vector_baseISt6vectorIP7myTemp_SaIS2_EESaIS4_EED2Ev
FN:167,_ZNSt12_Vector_baseIN5lgxZJ2LA13DirectedGraph8RealNodeESaIS3_EE11_M_allocateEm
FN:167,_ZNSt12_Vector_baseIiSaIiEE11_M_allocateEm
FN:167,_ZNSt12_Vector_baseISt10shared_ptrIN5lgxZJ2IS3AAIEESaIS4_EE11_M_allocateEm
FN:167,_ZNSt12_Vector_baseIN5lgxZJ2LA4EdgeESaIS2_EE11_M_allocateEm
FN:167,_ZNSt12_Vector_baseIP7myTemp_SaIS1_EE11_M_allocateEm
FN:171,_ZNSt12_Vector_baseIN5lgxZJ2LA13DirectedGraph8RealNodeESaIS3_EE13_M_deallocateEPS3_m
FN:171,_ZNSt12_Vector_baseIiSaIiEE13_M_deallocateEPim
FN:171,_ZNSt12_Vector_baseIP7myTemp_SaIS1_EE13_M_deallocateEPS1_m
FN:171,_ZNSt12_Vector_baseISt10shared_ptrIN5lgxZJ2IS3AAIEESaIS4_EE13_M_deallocateEPS4_m
FN:171,_ZNSt12_Vector_baseISt6vectorIP7myTemp_SaIS2_EESaIS4_EE13_M_deallocateEPS4_m
FN:171,_ZNSt12_Vector_baseIN5lgxZJ2LA4EdgeESaIS2_EE13_M_deallocateEPS2_m
FN:179,_ZNSt12_Vector_baseIN5lgxZJ2LA4EdgeESaIS2_EE17_M_create_storageEm
FN:179,_ZNSt12_Vector_baseIN5lgxZJ2LA13DirectedGraph8RealNodeESaIS3_EE17_M_create_storageEm
FN:179,_ZNSt12_Vector_baseIiSaIiEE17_M_create_storageEm
FN:179,_ZNSt12_Vector_baseISt10shared_ptrIN5lgxZJ2IS3AAIEESaIS4_EE17_M_create_storageEm
FN:248,_ZNSt6vectorISt10shared_ptrIN5lgxZJ2IS3AAIEESaIS4_EEC2Ev
FN:248,_ZNSt6vectorIiSaIiEEC2Ev
FN:248,_ZNSt6vectorIN5lgxZJ2LA4EdgeESaIS2_EEC2Ev
FN:256,_ZNSt6vectorIN5lgxZJ2LA4EdgeESaIS2_EEC2ERKS3_
FN:256,_ZNSt6vectorIN5lgxZJ2LA13DirectedGraph8RealNodeESaIS3_EEC2ERKS4_
FN:256,_ZNSt6vectorIP7myTemp_SaIS1_EEC2ERKS2_
FN:256,_ZNSt6vectorIS_IP7myTemp_SaIS1_EESaIS3_EEC2ERKS4_
FN:256,_ZNSt6vectorISt10shared_ptrIN5lgxZJ2IS3AAIEESaIS4_EEC2ERKS5_
FN:310,_ZNSt6vectorIiSaIiEEC2ERKS1_
FN:310,_ZNSt6vectorIN5lgxZJ2LA4EdgeESaIS2_EEC2ERKS4_
FN:310,_ZNSt6vectorIN5lgxZJ2LA13DirectedGraph8RealNodeESaIS3_EEC2ERKS5_
FN:310,_ZNSt6vectorISt10shared_ptrIN5lgxZJ2IS3AAIEESaIS4_EEC2ERKS6_
FN:364,_ZNSt6vectorIP7myTemp_SaIS1_EEC2ESt16initializer_listIS1_ERKS2_
FN:392,_ZNSt6vectorIP7myTemp_SaIS1_EEC2IN9__gnu_cxx17__normal_iteratorIPS1_S3_EEvEET_S9_RKS2_
FN:414,_ZNSt6vectorIN5lgxZJ2LA13DirectedGraph8RealNodeESaIS3_EED2Ev
FN:414,_ZNSt6vectorIiSaIiEED2Ev
FN:414,_ZNSt6vectorIS_IP7myTemp_SaIS1_EESaIS3_EED2Ev
FN:414,_ZNSt6vectorIN5lgxZJ2LA4EdgeESaIS2_EED2Ev
FN:414,_ZNSt6vectorISt10shared_ptrIN5lgxZJ2IS3AAIEESaIS4_EED2Ev
FN:414,_ZNSt6vectorIP7myTemp_SaIS1_EED2Ev
FN:439,_ZNSt6vectorIN5lgxZJ2LA4EdgeESaIS2_EEaSEOS4_
FN:439,_ZNSt6vectorIN5lgxZJ2LA13DirectedGraph8RealNodeESaIS3_EEaSEOS5_
FN:439,_ZNSt6vectorIS_IP7myTemp_SaIS1_EESaIS3_EEaSEOS5_
FN:439,_ZNSt6vectorIP7myTemp_SaIS1_EEaSEOS3_
FN:439,_ZNSt6vectorISt10shared_ptrIN5lgxZJ2IS3AAIEESaIS4_EEaSEOS6_
FN:538,_ZNSt6vectorISt10shared_ptrIN5lgxZJ2IS3AAIEESaIS4_EE5beginEv
FN:538,_ZNSt6vectorIiSaIiEE5beginEv
FN:538,_ZNSt6vectorIP7myTemp_SaIS1_EE5beginEv
FN:538,_ZNSt6vectorIN5lgxZJ2LA4EdgeESaIS2_EE5beginEv
FN:547,_ZNKSt6vectorIiSaIiEE5beginEv
FN:547,_ZNKSt6vectorIN5lgxZJ2LA13DirectedGraph8RealNodeESaIS3_EE5beginEv
FN:547,_ZNKSt6vectorIP7myTemp_SaIS1_EE5beginEv
FN:547,_ZNKSt6vectorISt10shared_ptrIN5lgxZJ2IS3AAIEESaIS4_EE5beginEv
FN:547,_ZNKSt6vectorIN5lgxZJ2LA4EdgeESaIS2_EE5beginEv
FN:556,_ZNSt6vectorIN5lgxZJ2LA4EdgeESaIS2_EE3endEv
FN:556,_ZNSt6vectorIiSaIiEE3endEv
FN:556,_ZNSt6vectorIP7myTemp_SaIS1_EE3endEv
FN:556,_ZNSt6vectorISt10shared_ptrIN5lgxZJ2IS3AAIEESaIS4_EE3endEv
FN:565,_ZNKSt6vectorIP7myTemp_SaIS1_EE3endEv
FN:565,_ZNKSt6vectorIN5lgxZJ2LA13DirectedGraph8RealNodeESaIS3_EE3endEv
FN:565,_ZNKSt6vectorIiSaIiEE3endEv
FN:565,_ZNKSt6vectorISt10shared_ptrIN5lgxZJ2IS3AAIEESaIS4_EE3endEv
FN:565,_ZNKSt6vectorIN5lgxZJ2LA4EdgeESaIS2_EE3endEv
FN:645,_ZNKSt6vectorIN5lgxZJ2LA13DirectedGraph8RealNodeESaIS3_EE4sizeEv
FN:645,_ZNKSt6vectorIN5lgxZJ2LA4EdgeESaIS2_EE4sizeEv
FN:645,_ZNKSt6vectorIiSaIiEE4sizeEv
FN:645,_ZNKSt6vectorIP7myTemp_SaIS1_EE4sizeEv
FN:645,_ZNKSt6vectorISt10shared_ptrIN5lgxZJ2IS3AAIEESaIS4_EE4sizeEv
FN:650,_ZNKSt6vectorIN5lgxZJ2LA4EdgeESaIS2_EE8max_sizeEv
FN:650,_ZNKSt6vectorIiSaIiEE8max_sizeEv
FN:650,_ZNKSt6vectorISt10shared_ptrIN5lgxZJ2IS3AAIEESaIS4_EE8max_sizeEv
FN:725,_ZNKSt6vectorISt10shared_ptrIN5lgxZJ2IS3AAIEESaIS4_EE8capacityEv
FN:725,_ZNKSt6vectorIiSaIiEE8capacityEv
FN:734,_ZNKSt6vectorIiSaIiEE5emptyEv
FN:734,_ZNKSt6vectorIN5lgxZJ2LA4EdgeESaIS2_EE5emptyEv
FN:734,_ZNKSt6vectorIP7myTemp_SaIS1_EE5emptyEv
FN:770,_ZNSt6vectorIiSaIiEEixEm
FN:770,_ZNSt6vectorIP7myTemp_SaIS1_EEixEm
FN:839,_ZNSt6vectorIP7myTemp_SaIS1_EE5frontEv
FN:855,_ZNSt6vectorIN5lgxZJ2LA4EdgeESaIS2_EE4backEv
FN:855,_ZNSt6vectorIiSaIiEE4backEv
FN:901,_ZNSt6vectorIiSaIiEE9push_backERKi
FN:901,_ZNSt6vectorIN5lgxZJ2LA4EdgeESaIS2_EE9push_backERKS2_
FN:901,_ZNSt6vectorISt10shared_ptrIN5lgxZJ2IS3AAIEESaIS4_EE9push_backERKS4_
FN:919,_ZNSt6vectorISt10shared_ptrIN5lgxZJ2IS3AAIEESaIS4_EE9push_backEOS4_
FN:919,_ZNSt6vectorIiSaIiEE9push_backEOi
FN:937,_ZNSt6vectorIN5lgxZJ2LA4EdgeESaIS2_EE8pop_backEv
FN:937,_ZNSt6vectorIiSaIiEE8pop_backEv
FN:1108,_ZNSt6vectorIN5lgxZJ2LA4EdgeESaIS2_EE4swapERS4_
FN:1108,_ZNSt6vectorISt10shared_ptrIN5lgxZJ2IS3AAIEESaIS4_EE4swapERS6_
FN:1125,_ZNSt6vectorISt10shared_ptrIN5lgxZJ2IS3AAIEESaIS4_EE5clearEv
FN:1125,_ZNSt6vectorIN5lgxZJ2LA4EdgeESaIS2_EE5clearEv
FN:1125,_ZNSt6vectorIiSaIiEE5clearEv
FN:1135,_ZNSt6vectorISt10shared_ptrIN5lgxZJ2IS3AAIEESaIS4_EE20_M_allocate_and_copyIN9__gnu_cxx17__normal_iteratorIPKS4_S6_EEEEPS4_mT_SE_
FN:1135,_ZNSt6vectorIiSaIiEE20_M_allocate_and_copyIN9__gnu_cxx17__normal_iteratorIPKiS1_EEEEPimT_S9_
FN:1172,_ZNSt6vectorIP7myTemp_SaIS1_EE22_M_initialize_dispatchIN9__gnu_cxx17__normal_iteratorIPS1_S3_EEEEvT_S9_St12__false_type
FN:1197,_ZNSt6vectorIP7myTemp_SaIS1_EE19_M_range_initializeIPKS1_EEvT_S7_St20forward_iterator_tag
FN:1197,_ZNSt6vectorIP7myTemp_SaIS1_EE19_M_range_initializeIN9__gnu_cxx17__normal_iteratorIPS1_S3_EEEEvT_S9_St20forward_iterator_tag
FN:1336,_ZNKSt6vectorIiSaIiEE12_M_check_lenEmPKc
FN:1336,_ZNKSt6vectorIN5lgxZJ2LA4EdgeESaIS2_EE12_M_check_lenEmPKc
FN:1336,_ZNKSt6vectorISt10shared_ptrIN5lgxZJ2IS3AAIEESaIS4_EE12_M_check_lenEmPKc
FN:1350,_ZNSt6vectorIN5lgxZJ2LA4EdgeESaIS2_EE15_M_erase_at_endEPS2_
FN:1350,_ZNSt6vectorISt10shared_ptrIN5lgxZJ2IS3AAIEESaIS4_EE15_M_erase_at_endEPS4_
FN:1350,_ZNSt6vectorIiSaIiEE15_M_erase_at_endEPi
FN:1362,_ZNSt6vectorIS_IP7myTemp_SaIS1_EESaIS3_EE14_M_move_assignEOS5_St17integral_constantIbLb1EE
FN:1362,_ZNSt6vectorISt10shared_ptrIN5lgxZJ2IS3AAIEESaIS4_EE14_M_move_assignEOS6_St17integral_constantIbLb1EE
FN:1362,_ZNSt6vectorIN5lgxZJ2LA13DirectedGraph8RealNodeESaIS3_EE14_M_move_assignEOS5_St17integral_constantIbLb1EE
FN:1362,_ZNSt6vectorIN5lgxZJ2LA4EdgeESaIS2_EE14_M_move_assignEOS4_St17integral_constantIbLb1EE
FN:1362,_ZNSt6vectorIP7myTemp_SaIS1_EE14_M_move_assignEOS3_St17integral_constantIbLb1EE
FNDA:0,_ZNSt12_Vector_baseISt6vectorIP7myTemp_SaIS2_EESaIS4_EE12_Vector_implD2Ev
FNDA:0,_ZNSt12_Vector_baseIN5lgxZJ2LA4EdgeESaIS2_EE12_Vector_implD2Ev
FNDA:0,_ZNSt12_Vector_baseIN5lgxZJ2LA13DirectedGraph8RealNodeESaIS3_EE12_Vector_implD2Ev
FNDA:0,_ZNSt12_Vector_baseISt10shared_ptrIN5lgxZJ2IS3AAIEESaIS4_EE12_Vector_implD2Ev
FNDA:0,_ZNSt12_Vector_baseIiSaIiEE12_Vector_implD2Ev
FNDA:0,_ZNSt12_Vector_baseIP7myTemp_SaIS1_EE12_Vector_implD2Ev
FNDA:152,_ZNSt12_Vector_baseIN5lgxZJ2LA4EdgeESaIS2_EE12_Vector_implC2Ev
FNDA:15,_ZNSt12_Vector_baseISt10shared_ptrIN5lgxZJ2IS3AAIEESaIS4_EE12_Vector_implC2Ev
FNDA:2231,_ZNSt12_Vector_baseIiSaIiEE12_Vector_implC2Ev
FNDA:90,_ZNSt12_Vector_baseISt6vectorIP7myTemp_SaIS2_EESaIS4_EE12_Vector_implC2ERKS5_
FNDA:3100,_ZNSt12_Vector_baseIP7myTemp_SaIS1_EE12_Vector_implC2ERKS2_
FNDA:448,_ZNSt12_Vector_baseIN5lgxZJ2LA4EdgeESaIS2_EE12_Vector_implC2ERKS3_
FNDA:478,_ZNSt12_Vector_baseIN5lgxZJ2LA13DirectedGraph8RealNodeESaIS3_EE12_Vector_implC2ERKS4_
FNDA:11460,_ZNSt12_Vector_baseIiSaIiEE12_Vector_implC2ERKS0_
FNDA:0,_ZNSt12_Vector_baseISt10shared_ptrIN5lgxZJ2IS3AAIEESaIS4_EE12_Vector_implC2ERKS5_
FNDA:1162,_ZNSt12_Vector_baseIP7myTemp_SaIS1_EE12_Vector_impl12_M_swap_dataERS4_
FNDA:60,_ZNSt12_Vector_baseISt6vectorIP7myTemp_SaIS2_EESaIS4_EE12_Vector_impl12_M_swap_dataERS7_
FNDA:60,_ZNSt12_Vector_baseIN5lgxZJ2LA13DirectedGraph8RealNodeESaIS3_EE12_Vector_impl12_M_swap_dataERS6_
FNDA:30,_ZNSt12_Vector_baseISt10shared_ptrIN5lgxZJ2IS3AAIEESaIS4_EE12_Vector_impl12_M_swap_dataERS7_
FNDA:122,_ZNSt12_Vector_baseIN5lgxZJ2LA4EdgeESaIS2_EE12_Vector_impl12_M_swap_dataERS5_
FNDA:0,_ZNSt12_Vector_baseISt6vectorIP7myTemp_SaIS2_EESaIS4_EE19_M_get_Tp_allocatorEv
FNDA:0,_ZNSt12_Vector_baseIN5lgxZJ2LA4EdgeESaIS2_EE19_M_get_Tp_allocatorEv
FNDA:0,_ZNSt12_Vector_baseIN5lgxZJ2LA13DirectedGraph8RealNodeESaIS3_EE19_M_get_Tp_allocatorEv
FNDA:0,_ZNSt12_Vector_baseISt10shared_ptrIN5lgxZJ2IS3AAIEESaIS4_EE19_M_get_Tp_allocatorEv
FNDA:0,_ZNSt12_Vector_baseIiSaIiEE19_M_get_Tp_allocatorEv
FNDA:0,_ZNSt12_Vector_baseIP7myTemp_SaIS1_EE19_M_get_Tp_allocatorEv
FNDA:8785,_ZNKSt12_Vector_baseIP7myTemp_SaIS1_EE19_M_get_Tp_allocatorEv
FNDA:90,_ZNKSt12_Vector_baseISt6vectorIP7myTemp_SaIS2_EESaIS4_EE19_M_get_Tp_allocatorEv
FNDA:930,_ZNKSt12_Vector_baseIN5lgxZJ2LA4EdgeESaIS2_EE19_M_get_Tp_allocatorEv
FNDA:418,_ZNKSt12_Vector_baseIN5lgxZJ2LA13DirectedGraph8RealNodeESaIS3_EE19_M_get_Tp_allocatorEv
FNDA:15716,_ZNKSt12_Vector_baseIiSaIiEE19_M_get_Tp_allocatorEv
FNDA:105,_ZNKSt12_Vector_baseISt10shared_ptrIN5lgxZJ2IS3AAIEESaIS4_EE19_M_get_Tp_allocatorEv
FNDA:581,_ZNKSt12_Vector_baseIP7myTemp_SaIS1_EE13get_allocatorEv
FNDA:30,_ZNKSt12_Vector_baseISt6vectorIP7myTemp_SaIS2_EESaIS4_EE13get_allocatorEv
FNDA:45,_ZNKSt12_Vector_baseIN5lgxZJ2LA4EdgeESaIS2_EE13get_allocatorEv
FNDA:30,_ZNKSt12_Vector_baseIN5lgxZJ2LA13DirectedGraph8RealNodeESaIS3_EE13get_allocatorEv
FNDA:15,_ZNKSt12_Vector_baseISt10shared_ptrIN5lgxZJ2IS3AAIEESaIS4_EE13get_allocatorEv
FNDA:152,_ZNSt12_Vector_baseIN5lgxZJ2LA4EdgeESaIS2_EEC2Ev
FNDA:15,_ZNSt12_Vector_baseISt10shared_ptrIN5lgxZJ2IS3AAIEESaIS4_EEC2Ev
FNDA:2231,_ZNSt12_Vector_baseIiSaIiEEC2Ev
FNDA:30,_ZNSt12_Vector_baseISt6vectorIP7myTemp_SaIS2_EESaIS4_EEC2ERKS5_
FNDA:45,_ZNSt12_Vector_baseIN5lgxZJ2LA4EdgeESaIS2_EEC2ERKS3_
FNDA:30,_ZNSt12_Vector_baseIN5lgxZJ2LA13DirectedGraph8RealNodeESaIS3_EEC2ERKS4_
FNDA:0,_ZNSt12_Vector_baseISt10shared_ptrIN5lgxZJ2IS3AAIEESaIS4_EEC2ERKS5_
FNDA:681,_ZNSt12_Vector_baseIP7myTemp_SaIS1_EEC2ERKS2_
FNDA:403,_ZNSt12_Vector_baseIN5lgxZJ2LA4EdgeESaIS2_EEC2EmRKS3_
FNDA:448,_ZNSt12_Vector_baseIN5lgxZJ2LA13DirectedGraph8RealNodeESaIS3_EEC2EmRKS4_
FNDA:11460,_ZNSt12_Vector_baseIiSaIiEEC2EmRKS0_
FNDA:90,_ZNSt12_Vector_baseISt10shared_ptrIN5lgxZJ2IS3AAIEESaIS4_EEC2EmRKS5_
FNDA:0,_ZNSt12_Vector_baseISt6vectorIP7myTemp_SaIS2_EESaIS4_EED2Ev
FNDA:0,_ZNSt12_Vector_baseIN5lgxZJ2LA4EdgeESaIS2_EED2Ev
FNDA:0,_ZNSt12_Vector_baseIN5lgxZJ2LA13DirectedGraph8RealNodeESaIS3_EED2Ev
FNDA:0,_ZNSt12_Vector_baseISt10shared_ptrIN5lgxZJ2IS3AAIEESaIS4_EED2Ev
FNDA:0,_ZNSt12_Vector_baseIiSaIiEED2Ev
FNDA:0,_ZNSt12_Vector_baseIP7myTemp_SaIS1_EED2Ev
FNDA:448,_ZNSt12_Vector_baseIN5lgxZJ2LA13DirectedGraph8RealNodeESaIS3_EE11_M_allocateEm
FNDA:6236,_ZNSt12_Vector_baseIP7myTemp_SaIS1_EE11_M_allocateEm
FNDA:644,_ZNSt12_Vector_baseIN5lgxZJ2LA4EdgeESaIS2_EE11_M_allocateEm
FNDA:13654,_ZNSt12_Vector_baseIiSaIiEE11_M_allocateEm
FNDA:0,_ZNSt12_Vector_baseISt10shared_ptrIN5lgxZJ2IS3AAIEESaIS4_EE11_M_allocateEm
FNDA:0,_ZNSt12_Vector_baseISt6vectorIP7myTemp_SaIS2_EESaIS4_EE13_M_deallocateEPS4_m
FNDA:0,_ZNSt12_Vector_baseIN5lgxZJ2LA4EdgeESaIS2_EE13_M_deallocateEPS2_m
FNDA:0,_ZNSt12_Vector_baseIN5lgxZJ2LA13DirectedGraph8RealNodeESaIS3_EE13_M_deallocateEPS3_m
FNDA:0,_ZNSt12_Vector_baseIP7myTemp_SaIS1_EE13_M_deallocateEPS1_m
FNDA:0,_ZNSt12_Vector_baseIiSaIiEE13_M_deallocateEPim
FNDA:0,_ZNSt12_Vector_baseISt10shared_ptrIN5lgxZJ2IS3AAIEESaIS4_EE13_M_deallocateEPS4_m
FNDA:403,_ZNSt12_Vector_baseIN5lgxZJ2LA4EdgeESaIS2_EE17_M_create_storageEm
FNDA:448,_ZNSt12_Vector_baseIN5lgxZJ2LA13DirectedGraph8RealNodeESaIS3_EE17_M_create_storageEm
FNDA:11460,_ZNSt12_Vector_baseIiSaIiEE17_M_create_storageEm
FNDA:90,_ZNSt12_Vector_baseISt10shared_ptrIN5lgxZJ2IS3AAIEESaIS4_EE17_M_create_storageEm
FNDA:152,_ZNSt6vectorIN5lgxZJ2LA4EdgeESaIS2_EEC2Ev
FNDA:15,_ZNSt6vectorISt10shared_ptrIN5lgxZJ2IS3AAIEESaIS4_EEC2Ev
FNDA:2231,_ZNSt6vectorIiSaIiEEC2Ev
FNDA:581,_ZNSt6vectorIP7myTemp_SaIS1_EEC2ERKS2_
FNDA:30,_ZNSt6vectorIS_IP7myTemp_SaIS1_EESaIS3_EEC2ERKS4_
FNDA:45,_ZNSt6vectorIN5lgxZJ2LA4EdgeESaIS2_EEC2ERKS3_
FNDA:30,_ZNSt6vectorIN5lgxZJ2LA13DirectedGraph8RealNodeESaIS3_EEC2ERKS4_
FNDA:15,_ZNSt6vectorISt10shared_ptrIN5lgxZJ2IS3AAIEESaIS4_EEC2ERKS5_
FNDA:403,_ZNSt6vectorIN5lgxZJ2LA4EdgeESaIS2_EEC2ERKS4_
FNDA:388,_ZNSt6vectorIN5lgxZJ2LA13DirectedGraph8RealNodeESaIS3_EEC2ERKS5_
FNDA:11460,_ZNSt6vectorIiSaIiEEC2ERKS1_
FNDA:90,_ZNSt6vectorISt10shared_ptrIN5lgxZJ2IS3AAIEESaIS4_EEC2ERKS6_
FNDA:50,_ZNSt6vectorIP7myTemp_SaIS1_EEC2ESt16initializer_listIS1_ERKS2_
FNDA:50,_ZNSt6vectorIP7myTemp_SaIS1_EEC2IN9__gnu_cxx17__normal_iteratorIPS1_S3_EEvEET_S9_RKS2_
FNDA:0,_ZNSt6vectorIS_IP7myTemp_SaIS1_EESaIS3_EED2Ev
FNDA:0,_ZNSt6vectorIN5lgxZJ2LA4EdgeESaIS2_EED2Ev
FNDA:0,_ZNSt6vectorIN5lgxZJ2LA13DirectedGraph8RealNodeESaIS3_EED2Ev
FNDA:0,_ZNSt6vectorISt10shared_ptrIN5lgxZJ2IS3AAIEESaIS4_EED2Ev
FNDA:0,_ZNSt6vectorIiSaIiEED2Ev
FNDA:0,_ZNSt6vectorIP7myTemp_SaIS1_EED2Ev
FNDA:581,_ZNSt6vectorIP7myTemp_SaIS1_EEaSEOS3_
FNDA:30,_ZNSt6vectorIS_IP7myTemp_SaIS1_EESaIS3_EEaSEOS5_
FNDA:45,_ZNSt6vectorIN5lgxZJ2LA4EdgeESaIS2_EEaSEOS4_
FNDA:30,_ZNSt6vectorIN5lgxZJ2LA13DirectedGraph8RealNodeESaIS3_EEaSEOS5_
FNDA:15,_ZNSt6vectorISt10shared_ptrIN5lgxZJ2IS3AAIEESaIS4_EEaSEOS6_
FNDA:0,_ZNSt6vectorISt10shared_ptrIN5lgxZJ2IS3AAIEESaIS4_EE5beginEv
FNDA:5078,_ZNSt6vectorIP7myTemp_SaIS1_EE5beginEv
FNDA:273,_ZNSt6vectorIN5lgxZJ2LA4EdgeESaIS2_EE5beginEv
FNDA:1408,_ZNSt6vectorIiSaIiEE5beginEv
FNDA:1688,_ZNKSt6vectorIP7myTemp_SaIS1_EE5beginEv
FNDA:4230,_ZNKSt6vectorIN5lgxZJ2LA13DirectedGraph8RealNodeESaIS3_EE5beginEv
FNDA:1352,_ZNKSt6vectorIN5lgxZJ2LA4EdgeESaIS2_EE5beginEv
FNDA:11967,_ZNKSt6vectorIiSaIiEE5beginEv
FNDA:105,_ZNKSt6vectorISt10shared_ptrIN5lgxZJ2IS3AAIEESaIS4_EE5beginEv
FNDA:0,_ZNSt6vectorISt10shared_ptrIN5lgxZJ2IS3AAIEESaIS4_EE3endEv
FNDA:5080,_ZNSt6vectorIP7myTemp_SaIS1_EE3endEv
FNDA:308,_ZNSt6vectorIN5lgxZJ2LA4EdgeESaIS2_EE3endEv
FNDA:1655,_ZNSt6vectorIiSaIiEE3endEv
FNDA:1688,_ZNKSt6vectorIP7myTemp_SaIS1_EE3endEv
FNDA:4230,_ZNKSt6vectorIN5lgxZJ2LA13DirectedGraph8RealNodeESaIS3_EE3endEv
FNDA:1352,_ZNKSt6vectorIN5lgxZJ2LA4EdgeESaIS2_EE3endEv
FNDA:11967,_ZNKSt6vectorIiSaIiEE3endEv
FNDA:105,_ZNKSt6vectorISt10shared_ptrIN5lgxZJ2IS3AAIEESaIS4_EE3endEv
FNDA:19913,_ZNKSt6vectorIN5lgxZJ2LA4EdgeESaIS2_EE4sizeEv
FNDA:5463,_ZNKSt6vectorIN5lgxZJ2LA13DirectedGraph8RealNodeESaIS3_EE4sizeEv
FNDA:3500,_ZNKSt6vectorISt10shared_ptrIN5lgxZJ2IS3AAIEESaIS4_EE4sizeEv
FNDA:22112,_ZNKSt6vectorIP7myTemp_SaIS1_EE4sizeEv
FNDA:22561,_ZNKSt6vectorIiSaIiEE4sizeEv
FNDA:0,_ZNKSt6vectorISt10shared_ptrIN5lgxZJ2IS3AAIEESaIS4_EE8max_sizeEv
FNDA:482,_ZNKSt6vectorIN5lgxZJ2LA4EdgeESaIS2_EE8max_sizeEv
FNDA:4256,_ZNKSt6vectorIiSaIiEE8max_sizeEv
FNDA:82,_ZNKSt6vectorIiSaIiEE8capacityEv
FNDA:15,_ZNKSt6vectorISt10shared_ptrIN5lgxZJ2IS3AAIEESaIS4_EE8capacityEv
FNDA:50,_ZNKSt6vectorIP7myTemp_SaIS1_EE5emptyEv
FNDA:93,_ZNKSt6vectorIN5lgxZJ2LA4EdgeESaIS2_EE5emptyEv
FNDA:425,_ZNKSt6vectorIiSaIiEE5emptyEv
FNDA:985,_ZNSt6vectorIP7myTemp_SaIS1_EEixEm
FNDA:1,_ZNSt6vectorIiSaIiEEixEm
FNDA:50,_ZNSt6vectorIP7myTemp_SaIS1_EE5frontEv
FNDA:35,_ZNSt6vectorIN5lgxZJ2LA4EdgeESaIS2_EE4backEv
FNDA:83,_ZNSt6vectorIiSaIiEE4backEv
FNDA:0,_ZNSt6vectorISt10shared_ptrIN5lgxZJ2IS3AAIEESaIS4_EE9push_backERKS4_
FNDA:77,_ZNSt6vectorIN5lgxZJ2LA4EdgeESaIS2_EE9push_backERKS2_
FNDA:1762,_ZNSt6vectorIiSaIiEE9push_backERKi
FNDA:0,_ZNSt6vectorISt10shared_ptrIN5lgxZJ2IS3AAIEESaIS4_EE9push_backEOS4_
FNDA:859,_ZNSt6vectorIiSaIiEE9push_backEOi
FNDA:35,_ZNSt6vectorIN5lgxZJ2LA4EdgeESaIS2_EE8pop_backEv
FNDA:83,_ZNSt6vectorIiSaIiEE8pop_backEv
FNDA:0,_ZNSt6vectorISt10shared_ptrIN5lgxZJ2IS3AAIEESaIS4_EE4swapERS6_
FNDA:32,_ZNSt6vectorIN5lgxZJ2LA4EdgeESaIS2_EE4swapERS4_
FNDA:0,_ZNSt6vectorISt10shared_ptrIN5lgxZJ2IS3AAIEESaIS4_EE5clearEv
FNDA:45,_ZNSt6vectorIN5lgxZJ2LA4EdgeESaIS2_EE5clearEv
FNDA:106,_ZNSt6vectorIiSaIiEE5clearEv
FNDA:66,_ZNSt6vectorIiSaIiEE20_M_allocate_and_copyIN9__gnu_cxx17__normal_iteratorIPKiS1_EEEEPimT_S9_
FNDA:15,_ZNSt6vectorISt10shared_ptrIN5lgxZJ2IS3AAIEESaIS4_EE20_M_allocate_and_copyIN9__gnu_cxx17__normal_iteratorIPKS4_S6_EEEEPS4_mT_SE_
FNDA:50,_ZNSt6vectorIP7myTemp_SaIS1_EE22_M_initialize_dispatchIN9__gnu_cxx17__normal_iteratorIPS1_S3_EEEEvT_S9_St12__false_type
FNDA:50,_ZNSt6vectorIP7myTemp_SaIS1_EE19_M_range_initializeIN9__gnu_cxx17__normal_iteratorIPS1_S3_EEEEvT_S9_St20forward_iterator_tag
FNDA:50,_ZNSt6vectorIP7myTemp_SaIS1_EE19_M_range_initializeIPKS1_EEvT_S7_St20forward_iterator_tag
FNDA:0,_ZNKSt6vectorISt10shared_ptrIN5lgxZJ2IS3AAIEESaIS4_EE12_M_check_lenEmPKc
FNDA:241,_ZNKSt6vectorIN5lgxZJ2LA4EdgeESaIS2_EE12_M_check_lenEmPKc
FNDA:2128,_ZNKSt6vectorIiSaIiEE12_M_check_lenEmPKc
FNDA:0,_ZNSt6vectorISt10shared_ptrIN5lgxZJ2IS3AAIEESaIS4_EE15_M_erase_at_endEPS4_
FNDA:45,_ZNSt6vectorIN5lgxZJ2LA4EdgeESaIS2_EE15_M_erase_at_endEPS2_
FNDA:106,_ZNSt6vectorIiSaIiEE15_M_erase_at_endEPi
FNDA:581,_ZNSt6vectorIP7myTemp_SaIS1_EE14_M_move_assignEOS3_St17integral_constantIbLb1EE
FNDA:30,_ZNSt6vectorIS_IP7myTemp_SaIS1_EESaIS3_EE14_M_move_assignEOS5_St17integral_constantIbLb1EE
FNDA:45,_ZNSt6vectorIN5lgxZJ2LA4EdgeESaIS2_EE14_M_move_assignEOS4_St17integral_constantIbLb1EE
FNDA:30,_ZNSt6vectorIN5lgxZJ2LA13DirectedGraph8RealNodeESaIS3_EE14_M_move_assignEOS5_St17integral_constantIbLb1EE
FNDA:15,_ZNSt6vectorISt10shared_ptrIN5lgxZJ2IS3AAIEESaIS4_EE14_M_move_assignEOS6_St17integral_constantIbLb1EE
FNF:159
FNH:117
DA:79,0
DA:86,2398
DA:87,2398
DA:88,2398
DA:90,15576
DA:91,15576
DA:92,15576
DA:101,1434
DA:103,1434
DA:104,1434
DA:105,1434
DA:106,1434
DA:113,0
DA:114,0
DA:117,26044
DA:118,26044
DA:121,701
DA:122,701
DA:124,2398
DA:125,2398
DA:127,786
DA:128,786
DA:134,12401
DA:135,12401
DA:136,12401
DA:159,0
DA:160,0
DA:161,0
DA:167,20982
DA:168,20982
DA:171,0
DA:173,0
DA:174,0
DA:175,0
DA:179,12401
DA:181,12401
DA:182,12401
DA:183,12401
DA:184,12401
DA:248,2398
DA:249,2398
DA:256,701
DA:257,701
DA:310,12341
DA:312,12341
DA:313,12341
DA:316,12341
DA:317,12341
DA:364,50
DA:366,50
DA:368,50
DA:369,100
DA:370,50
DA:392,50
DA:394,50
DA:395,50
DA:414,0
DA:415,0
DA:416,0
DA:439,701
DA:443,701
DA:444,701
DA:445,701
DA:446,701
DA:538,6759
DA:539,6759
DA:547,19342
DA:548,19342
DA:556,7043
DA:557,7043
DA:565,19342
DA:566,19342
DA:645,73549
DA:646,73549
DA:650,4738
DA:651,4738
DA:725,97
DA:727,97
DA:734,568
DA:735,568
DA:770,986
DA:771,986
DA:839,50
DA:840,50
DA:855,118
DA:856,118
DA:901,1839
DA:903,1839
DA:905,430
DA:906,430
DA:907,430
DA:911,1409
DA:915,1839
DA:919,859
DA:920,859
DA:937,118
DA:939,118
DA:940,118
DA:941,118
DA:1108,32
DA:1113,32
DA:1114,32
DA:1115,32
DA:1116,32
DA:1125,151
DA:1126,151
DA:1135,81
DA:1138,81
DA:1141,81
DA:1142,81
DA:1143,81
DA:1145,0
DA:1147,0
DA:1148,0
DA:1172,50
DA:1177,50
DA:1178,50
DA:1197,100
DA:1200,100
DA:1201,100
DA:1202,100
DA:1203,100
DA:1206,100
DA:1207,100
DA:1336,2369
DA:1338,2369
DA:1339,0
DA:1341,2369
DA:1342,2369
DA:1350,151
DA:1352,151
DA:1353,151
DA:1354,151
DA:1362,701
DA:1364,701
DA:1365,701
DA:1366,701
DA:1367,701
DA:1368,701
DA:1369,1402
DA:1370,701
LF:141
LH:124
end_of_record
SF:/usr/include/c++/4.8/bits/vector.tcc
FN:91,_ZNSt6vectorIiSaIiEE12emplace_backIIiEEEvDpOT_
FN:91,_ZNSt6vectorISt10shared_ptrIN5lgxZJ2IS3AAIEESaIS4_EE12emplace_backIIS4_EEEvDpOT_
FN:134,_ZNSt6vectorIP7myTemp_SaIS1_EE5eraseEN9__gnu_cxx17__normal_iteratorIPS1_S3_EE
FN:134,_ZNSt6vectorIiSaIiEE5eraseEN9__gnu_cxx17__normal_iteratorIPiS1_EE
FN:160,_ZNSt6vectorIiSaIiEEaSERKS1_
FN:160,_ZNSt6vectorISt10shared_ptrIN5lgxZJ2IS3AAIEESaIS4_EEaSERKS6_
FN:399,_ZNSt6vectorISt10shared_ptrIN5lgxZJ2IS3AAIEESaIS4_EE19_M_emplace_back_auxIIS4_EEEvDpOT_
FN:399,_ZNSt6vectorIiSaIiEE19_M_emplace_back_auxIIRKiEEEvDpOT_
FN:399,_ZNSt6vectorIN5lgxZJ2LA4EdgeESaIS2_EE19_M_emplace_back_auxIIRKS2_EEEvDpOT_
FN:399,_ZNSt6vectorISt10shared_ptrIN5lgxZJ2IS3AAIEESaIS4_EE19_M_emplace_back_auxIIRKS4_EEEvDpOT_
FN:399,_ZNSt6vectorIiSaIiEE19_M_emplace_back_auxIIiEEEvDpOT_
FNDA:0,_ZNSt6vectorISt10shared_ptrIN5lgxZJ2IS3AAIEESaIS4_EE12emplace_backIIS4_EEEvDpOT_
FNDA:859,_ZNSt6vectorIiSaIiEE12emplace_backIIiEEEvDpOT_
FNDA:46,_ZNSt6vectorIP7myTemp_SaIS1_EE5eraseEN9__gnu_cxx17__normal_iteratorIPS1_S3_EE
FNDA:44,_ZNSt6vectorIiSaIiEE5eraseEN9__gnu_cxx17__normal_iteratorIPiS1_EE
FNDA:82,_ZNSt6vectorIiSaIiEEaSERKS1_
FNDA:15,_ZNSt6vectorISt10shared_ptrIN5lgxZJ2IS3AAIEESaIS4_EEaSERKS6_
FNDA:0,_ZNSt6vectorISt10shared_ptrIN5lgxZJ2IS3AAIEESaIS4_EE19_M_emplace_back_auxIIS4_EEEvDpOT_
FNDA:781,_ZNSt6vectorIiSaIiEE19_M_emplace_back_auxIIiEEEvDpOT_
FNDA:0,_ZNSt6vectorISt10shared_ptrIN5lgxZJ2IS3AAIEESaIS4_EE19_M_emplace_back_auxIIRKS4_EEEvDpOT_
FNDA:62,_ZNSt6vectorIN5lgxZJ2LA4EdgeESaIS2_EE19_M_emplace_back_auxIIRKS2_EEEvDpOT_
FNDA:1347,_ZNSt6vectorIiSaIiEE19_M_emplace_back_auxIIRKiEEEvDpOT_
FNF:11
FNH:8
DA:91,859
DA:94,859
DA:96,78
DA:97,78
DA:98,78
DA:101,781
DA:102,859
DA:134,90
DA:137,90
DA:138,63
DA:139,90
DA:140,90
DA:141,90
DA:160,97
DA:163,97
DA:166,97
DA:168,0
DA:169,0
DA:172,0
DA:173,0
DA:175,0
DA:176,0
DA:177,0
DA:178,0
DA:180,0
DA:181,0
DA:184,97
DA:185,97
DA:188,81
DA:189,81
DA:190,81
DA:191,81
DA:193,81
DA:194,81
DA:195,81
DA:197,16
DA:199,16
DA:200,16
DA:204,0
DA:205,0
DA:206,0
DA:209,0
DA:211,97
DA:213,97
DA:399,2190
DA:403,2190
DA:404,2190
DA:405,2190
DA:408,4380
DA:409,4380
DA:410,2190
DA:412,2190
DA:415,2190
DA:417,2190
DA:419,0
DA:421,0
DA:422,0
DA:424,0
DA:425,0
DA:426,0
DA:428,2190
DA:429,2190
DA:430,2190
DA:432,2190
DA:433,2190
DA:434,2190
DA:435,2190
DA:436,2190
LF:68
LH:48
end_of_record
SF:/usr/include/c++/4.8/ext/alloc_traits.h
FN:166,_ZN9__gnu_cxx14__alloc_traitsISaIiEE17_S_select_on_copyERKS1_
FN:166,_ZN9__gnu_cxx14__alloc_traitsISaISt10shared_ptrIN5lgxZJ2IS3AAIEEEE17_S_select_on_copyERKS6_
FN:166,_ZN9__gnu_cxx14__alloc_traitsISaIN5lgxZJ2LA4EdgeEEE17_S_select_on_copyERKS4_
FN:166,_ZN9__gnu_cxx14__alloc_traitsISaIN5lgxZJ2LA13DirectedGraph8RealNodeEEE17_S_select_on_copyERKS5_
FN:169,_ZN9__gnu_cxx14__alloc_traitsISaIN5lgxZJ2LA4EdgeEEE10_S_on_swapERS4_S6_
FN:169,_ZN9__gnu_cxx14__alloc_traitsISaISt10shared_ptrIN5lgxZJ2IS3AAIEEEE10_S_on_swapERS6_S8_
FN:172,_ZN9__gnu_cxx14__alloc_traitsISaIiEE27_S_propagate_on_copy_assignEv
FN:172,_ZN9__gnu_cxx14__alloc_traitsISaISt10shared_ptrIN5lgxZJ2IS3AAIEEEE27_S_propagate_on_copy_assignEv
FN:175,_ZN9__gnu_cxx14__alloc_traitsISaIN5lgxZJ2LA13DirectedGraph8RealNodeEEE27_S_propagate_on_move_assignEv
FN:175,_ZN9__gnu_cxx14__alloc_traitsISaISt6vectorIP7myTemp_SaIS3_EEEE27_S_propagate_on_move_assignEv
FN:175,_ZN9__gnu_cxx14__alloc_traitsISaIP7myTemp_EE27_S_propagate_on_move_assignEv
FN:175,_ZN9__gnu_cxx14__alloc_traitsISaISt10shared_ptrIN5lgxZJ2IS3AAIEEEE27_S_propagate_on_move_assignEv
FN:175,_ZN9__gnu_cxx14__alloc_traitsISaIN5lgxZJ2LA4EdgeEEE27_S_propagate_on_move_assignEv
FN:181,_ZN9__gnu_cxx14__alloc_traitsISaIiEE15_S_always_equalEv
FN:181,_ZN9__gnu_cxx14__alloc_traitsISaISt10shared_ptrIN5lgxZJ2IS3AAIEEEE15_S_always_equalEv
FNDA:403,_ZN9__gnu_cxx14__alloc_traitsISaIN5lgxZJ2LA4EdgeEEE17_S_select_on_copyERKS4_
FNDA:388,_ZN9__gnu_cxx14__alloc_traitsISaIN5lgxZJ2LA13DirectedGraph8RealNodeEEE17_S_select_on_copyERKS5_
FNDA:11460,_ZN9__gnu_cxx14__alloc_traitsISaIiEE17_S_select_on_copyERKS1_
FNDA:90,_ZN9__gnu_cxx14__alloc_traitsISaISt10shared_ptrIN5lgxZJ2IS3AAIEEEE17_S_select_on_copyERKS6_
FNDA:0,_ZN9__gnu_cxx14__alloc_traitsISaISt10shared_ptrIN5lgxZJ2IS3AAIEEEE10_S_on_swapERS6_S8_
FNDA:32,_ZN9__gnu_cxx14__alloc_traitsISaIN5lgxZJ2LA4EdgeEEE10_S_on_swapERS4_S6_
FNDA:82,_ZN9__gnu_cxx14__alloc_traitsISaIiEE27_S_propagate_on_copy_assignEv
FNDA:15,_ZN9__gnu_cxx14__alloc_traitsISaISt10shared_ptrIN5lgxZJ2IS3AAIEEEE27_S_propagate_on_copy_assignEv
FNDA:581,_ZN9__gnu_cxx14__alloc_traitsISaIP7myTemp_EE27_S_propagate_on_move_assignEv
FNDA:30,_ZN9__gnu_cxx14__alloc_traitsISaISt6vectorIP7myTemp_SaIS3_EEEE27_S_propagate_on_move_assignEv
FNDA:30,_ZN9__gnu_cxx14__alloc_traitsISaIN5lgxZJ2LA13DirectedGraph8RealNodeEEE27_S_propagate_on_move_assignEv
FNDA:45,_ZN9__gnu_cxx14__alloc_traitsISaIN5lgxZJ2LA4EdgeEEE27_S_propagate_on_move_assignEv
FNDA:15,_ZN9__gnu_cxx14__alloc_traitsISaISt10shared_ptrIN5lgxZJ2IS3AAIEEEE27_S_propagate_on_move_assignEv
FNDA:0,_ZN9__gnu_cxx14__alloc_traitsISaIiEE15_S_always_equalEv
FNDA:0,_ZN9__gnu_cxx14__alloc_traitsISaISt10shared_ptrIN5lgxZJ2IS3AAIEEEE15_S_always_equalEv
FNF:15
FNH:12
DA:166,12341
DA:167,12341
DA:169,32
DA:170,32
DA:172,97
DA:173,97
DA:175,701
DA:176,701
DA:181,0
DA:182,0
LF:10
LH:8
end_of_record
SF:/usr/include/c++/4.8/ext/atomicity.h
FN:48,_ZN9__gnu_cxxL18__exchange_and_addEPVii
FN:52,_ZN9__gnu_cxxL12__atomic_addEPVii
FN:65,_ZN9__gnu_cxxL25__exchange_and_add_singleEPii
FN:73,_ZN9__gnu_cxxL19__atomic_add_singleEPii
FN:78,_ZN9__gnu_cxxL27__exchange_and_add_dispatchEPii
FN:92,_ZN9__gnu_cxxL21__atomic_add_dispatchEPii
FNDA:0,_ZN9__gnu_cxxL18__exchange_and_addEPVii
FNDA:0,_ZN9__gnu_cxxL12__atomic_addEPVii
FNDA:0,_ZN9__gnu_cxxL25__exchange_and_add_singleEPii
FNDA:0,_ZN9__gnu_cxxL19__atomic_add_singleEPii
FNDA:0,_ZN9__gnu_cxxL27__exchange_and_add_dispatchEPii
FNDA:0,_ZN9__gnu_cxxL21__atomic_add_dispatchEPii
FNF:6
FNH:0
DA:48,0
DA:49,0
DA:52,0
DA:53,0
DA:65,0
DA:67,0
DA:68,0
DA:69,0
DA:73,0
DA:74,0
DA:78,0
DA:81,0
DA:82,0
DA:84,0
DA:92,0
DA:95,0
DA:96,0
DA:98,0
DA:102,0
LF:19
LH:0
end_of_record
SF:/usr/include/c++/4.8/ext/new_allocator.h
FN:79,_ZN9__gnu_cxx13new_allocatorIP7myTemp_EC2Ev
FN:79,_ZN9__gnu_cxx13new_allocatorIN5lgxZJ2IS3SubEEC2Ev
FN:79,_ZN9__gnu_cxx13new_allocatorISt10shared_ptrIN5lgxZJ2IS3AAIEEEC2Ev
FN:79,_ZN9__gnu_cxx13new_allocatorISt23_Sp_counted_ptr_inplaceIN5lgxZJ2IS3SubESaIS4_ELNS_12_Lock_policyE2EEEC2Ev
FN:79,_ZN9__gnu_cxx13new_allocatorISt13_Rb_tree_nodeISt4pairIKiP9myAccess_EEEC2Ev
FN:79,_ZN9__gnu_cxx13new_allocatorISt23_Sp_counted_ptr_inplaceIN5lgxZJ2IS4MoveESaIS4_ELNS_12_Lock_policyE2EEEC2Ev
FN:79,_ZN9__gnu_cxx13new_allocatorIPiEC2Ev
FN:79,_ZN9__gnu_cxx13new_allocatorISt13_Rb_tree_nodeISt4pairIKiSt6vectorIiSaIiEEEEEC2Ev
FN:79,_ZN9__gnu_cxx13new_allocatorISt13_Rb_tree_nodeISt4pairIKP7myTemp_S4_EEEC2Ev
FN:79,_ZN9__gnu_cxx13new_allocatorISt13_Rb_tree_nodeISt4pairIKijEEEC2Ev
FN:79,_ZN9__gnu_cxx13new_allocatorIN5lgxZJ2IS4MoveEEC2Ev
FN:79,_ZN9__gnu_cxx13new_allocatorIiEC2Ev
FN:79,_ZN9__gnu_cxx13new_allocatorISt13_Rb_tree_nodeISt4pairIKiP7myTemp_EEEC2Ev
FN:79,_ZN9__gnu_cxx13new_allocatorIN5lgxZJ2LA4EdgeEEC2Ev
FN:81,_ZN9__gnu_cxx13new_allocatorISt6vectorIP7myTemp_SaIS3_EEEC2ERKS6_
FN:81,_ZN9__gnu_cxx13new_allocatorIcEC2ERKS1_
FN:81,_ZN9__gnu_cxx13new_allocatorIN5lgxZJ2LA4EdgeEEC2ERKS4_
FN:81,_ZN9__gnu_cxx13new_allocatorISt10shared_ptrIN5lgxZJ2IS3AAIEEEC2ERKS6_
FN:81,_ZN9__gnu_cxx13new_allocatorIN5lgxZJ2IS3SubEEC2ERKS4_
FN:81,_ZN9__gnu_cxx13new_allocatorIP7myTemp_EC2ERKS3_
FN:81,_ZN9__gnu_cxx13new_allocatorIN5lgxZJ2LA13DirectedGraph8RealNodeEEC2ERKS5_
FN:81,_ZN9__gnu_cxx13new_allocatorIN5lgxZJ2IS4MoveEEC2ERKS4_
FN:81,_ZN9__gnu_cxx13new_allocatorIiEC2ERKS1_
FN:86,_ZN9__gnu_cxx13new_allocatorISt13_Rb_tree_nodeISt4pairIKP7myTemp_iEEED2Ev
FN:86,_ZN9__gnu_cxx13new_allocatorIPiED2Ev
FN:86,_ZN9__gnu_cxx13new_allocatorISt13_Rb_tree_nodeISt4pairIKP7myTemp_S4_EEED2Ev
FN:86,_ZN9__gnu_cxx13new_allocatorIN5lgxZJ2IS3SubEED2Ev
FN:86,_ZN9__gnu_cxx13new_allocatorISt23_Sp_counted_ptr_inplaceIN5lgxZJ2IS3SubESaIS4_ELNS_12_Lock_policyE2EEED2Ev
FN:86,_ZN9__gnu_cxx13new_allocatorIP7myTemp_ED2Ev
FN:86,_ZN9__gnu_cxx13new_allocatorISt13_Rb_tree_nodeISt4pairIKiP9myAccess_EEED2Ev
FN:86,_ZN9__gnu_cxx13new_allocatorISt13_Rb_tree_nodeISt4pairIKijEEED2Ev
FN:86,_ZN9__gnu_cxx13new_allocatorISt13_Rb_tree_nodeISt4pairIKiSt6vectorIiSaIiEEEEED2Ev
FN:86,_ZN9__gnu_cxx13new_allocatorIN5lgxZJ2IS4MoveEED2Ev
FN:86,_ZN9__gnu_cxx13new_allocatorISt23_Sp_counted_ptr_inplaceIN5lgxZJ2IS4MoveESaIS4_ELNS_12_Lock_policyE2EEED2Ev
FN:86,_ZN9__gnu_cxx13new_allocatorIcED2Ev
FN:86,_ZN9__gnu_cxx13new_allocatorISt6vectorIP7myTemp_SaIS3_EEED2Ev
FN:86,_ZN9__gnu_cxx13new_allocatorIN5lgxZJ2LA13DirectedGraph8RealNodeEED2Ev
FN:86,_ZN9__gnu_cxx13new_allocatorIiED2Ev
FN:86,_ZN9__gnu_cxx13new_allocatorIN5lgxZJ2LA4EdgeEED2Ev
FN:86,_ZN9__gnu_cxx13new_allocatorISt10shared_ptrIN5lgxZJ2IS3AAIEEED2Ev
FN:86,_ZN9__gnu_cxx13new_allocatorISt13_Rb_tree_nodeISt4pairIKiP7myTemp_EEED2Ev
FN:99,_ZN9__gnu_cxx13new_allocatorISt23_Sp_counted_ptr_inplaceIN5lgxZJ2IS4MoveESaIS4_ELNS_12_Lock_policyE2EEE8allocateEmPKv
FN:99,_ZN9__gnu_cxx13new_allocatorISt13_Rb_tree_nodeISt4pairIKiP7myTemp_EEE8allocateEmPKv
FN:99,_ZN9__gnu_cxx13new_allocatorIN5lgxZJ2LA13DirectedGraph8RealNodeEE8allocateEmPKv
FN:99,_ZN9__gnu_cxx13new_allocatorIN5lgxZJ2LA4EdgeEE8allocateEmPKv
FN:99,_ZN9__gnu_cxx13new_allocatorIP7myTemp_E8allocateEmPKv
FN:99,_ZN9__gnu_cxx13new_allocatorIPiE8allocateEmPKv
FN:99,_ZN9__gnu_cxx13new_allocatorISt13_Rb_tree_nodeISt4pairIKijEEE8allocateEmPKv
FN:99,_ZN9__gnu_cxx13new_allocatorISt13_Rb_tree_nodeISt4pairIKiSt6vectorIiSaIiEEEEE8allocateEmPKv
FN:99,_ZN9__gnu_cxx13new_allocatorISt13_Rb_tree_nodeISt4pairIKP7myTemp_S4_EEE8allocateEmPKv
FN:99,_ZN9__gnu_cxx13new_allocatorISt10shared_ptrIN5lgxZJ2IS3AAIEEE8allocateEmPKv
FN:99,_ZN9__gnu_cxx13new_allocatorIiE8allocateEmPKv
FN:99,_ZN9__gnu_cxx13new_allocatorISt13_Rb_tree_nodeISt4pairIKiP9myAccess_EEE8allocateEmPKv
FN:99,_ZN9__gnu_cxx13new_allocatorISt23_Sp_counted_ptr_inplaceIN5lgxZJ2IS3SubESaIS4_ELNS_12_Lock_policyE2EEE8allocateEmPKv
FN:109,_ZN9__gnu_cxx13new_allocatorISt13_Rb_tree_nodeISt4pairIKijEEE10deallocateEPS5_m
FN:109,_ZN9__gnu_cxx13new_allocatorIN5lgxZJ2LA4EdgeEE10deallocateEPS3_m
FN:109,_ZN9__gnu_cxx13new_allocatorIPiE10deallocateEPS1_m
FN:109,_ZN9__gnu_cxx13new_allocatorISt13_Rb_tree_nodeISt4pairIKP7myTemp_iEEE10deallocateEPS7_m
FN:109,_ZN9__gnu_cxx13new_allocatorISt23_Sp_counted_ptr_inplaceIN5lgxZJ2IS3SubESaIS4_ELNS_12_Lock_policyE2EEE10deallocateEPS7_m
FN:109,_ZN9__gnu_cxx13new_allocatorISt23_Sp_counted_ptr_inplaceIN5lgxZJ2IS4MoveESaIS4_ELNS_12_Lock_policyE2EEE10deallocateEPS7_m
FN:109,_ZN9__gnu_cxx13new_allocatorIP7myTemp_E10deallocateEPS2_m
FN:109,_ZN9__gnu_cxx13new_allocatorISt13_Rb_tree_nodeISt4pairIKiSt6vectorIiSaIiEEEEE10deallocateEPS8_m
FN:109,_ZN9__gnu_cxx13new_allocatorIN5lgxZJ2LA13DirectedGraph8RealNodeEE10deallocateEPS4_m
FN:109,_ZN9__gnu_cxx13new_allocatorISt13_Rb_tree_nodeISt4pairIKiP9myAccess_EEE10deallocateEPS7_m
FN:109,_ZN9__gnu_cxx13new_allocatorISt13_Rb_tree_nodeISt4pairIKiP7myTemp_EEE10deallocateEPS7_m
FN:109,_ZN9__gnu_cxx13new_allocatorISt13_Rb_tree_nodeISt4pairIKP7myTemp_S4_EEE10deallocateEPS7_m
FN:109,_ZN9__gnu_cxx13new_allocatorISt6vectorIP7myTemp_SaIS3_EEE10deallocateEPS5_m
FN:109,_ZN9__gnu_cxx13new_allocatorIiE10deallocateEPim
FN:109,_ZN9__gnu_cxx13new_allocatorISt10shared_ptrIN5lgxZJ2IS3AAIEEE10deallocateEPS5_m
FN:113,_ZNK9__gnu_cxx13new_allocatorISt10shared_ptrIN5lgxZJ2IS3AAIEEE8max_sizeEv
FN:113,_ZNK9__gnu_cxx13new_allocatorISt23_Sp_counted_ptr_inplaceIN5lgxZJ2IS4MoveESaIS4_ELNS_12_Lock_policyE2EEE8max_sizeEv
FN:113,_ZNK9__gnu_cxx13new_allocatorISt13_Rb_tree_nodeISt4pairIKiP9myAccess_EEE8max_sizeEv
FN:113,_ZNK9__gnu_cxx13new_allocatorISt13_Rb_tree_nodeISt4pairIKijEEE8max_sizeEv
FN:113,_ZNK9__gnu_cxx13new_allocatorIN5lgxZJ2LA13DirectedGraph8RealNodeEE8max_sizeEv
FN:113,_ZNK9__gnu_cxx13new_allocatorISt13_Rb_tree_nodeISt4pairIKP7myTemp_S4_EEE8max_sizeEv
FN:113,_ZNK9__gnu_cxx13new_allocatorIP7myTemp_E8max_sizeEv
FN:113,_ZNK9__gnu_cxx13new_allocatorISt13_Rb_tree_nodeISt4pairIKiSt6vectorIiSaIiEEEEE8max_sizeEv
FN:113,_ZNK9__gnu_cxx13new_allocatorIiE8max_sizeEv
FN:113,_ZNK9__gnu_cxx13new_allocatorIN5lgxZJ2LA4EdgeEE8max_sizeEv
FN:113,_ZNK9__gnu_cxx13new_allocatorISt23_Sp_counted_ptr_inplaceIN5lgxZJ2IS3SubESaIS4_ELNS_12_Lock_policyE2EEE8max_sizeEv
FN:113,_ZNK9__gnu_cxx13new_allocatorISt13_Rb_tree_nodeISt4pairIKiP7myTemp_EEE8max_sizeEv
FN:113,_ZNK9__gnu_cxx13new_allocatorIPiE8max_sizeEv
FN:119,_ZN9__gnu_cxx13new_allocatorIN5lgxZJ2IS4MoveEE9constructIS3_IRP7myTemp_S8_NS3_11OperandTypeES9_EEEvPT_DpOT0_
FN:119,_ZN9__gnu_cxx13new_allocatorIN5lgxZJ2IS3SubEE9constructIS3_IRP7myTemp_iEEEvPT_DpOT0_
FN:119,_ZN9__gnu_cxx13new_allocatorISt10shared_ptrIN5lgxZJ2IS3AAIEEE9constructIS5_IS5_EEEvPT_DpOT0_
FN:119,_ZN9__gnu_cxx13new_allocatorISt13_Rb_tree_nodeISt4pairIKP7myTemp_S4_EEE9constructIS7_IRKSt21piecewise_construct_tSt5tupleIIOS4_EESD_IIEEEEEvPT_DpOT0_
FN:119,_ZN9__gnu_cxx13new_allocatorISt13_Rb_tree_nodeISt4pairIKiSt6vectorIiSaIiEEEEE9constructIS8_IRKSt21piecewise_construct_tSt5tupleIIRS3_EESE_IIEEEEEvPT_DpOT0_
FN:119,_ZN9__gnu_cxx13new_allocatorISt13_Rb_tree_nodeISt4pairIKijEEE9constructIS5_IRKSt21piecewise_construct_tSt5tupleIIOiEESB_IIEEEEEvPT_DpOT0_
FN:119,_ZN9__gnu_cxx13new_allocatorISt13_Rb_tree_nodeISt4pairIKiP9myAccess_EEE9constructIS7_IRKSt21piecewise_construct_tSt5tupleIIOiEESD_IIEEEEEvPT_DpOT0_
FN:119,_ZN9__gnu_cxx13new_allocatorISt13_Rb_tree_nodeISt4pairIKijEEE9constructIS5_IRKSt21piecewise_construct_tSt5tupleIIRS3_EESB_IIEEEEEvPT_DpOT0_
FN:119,_ZN9__gnu_cxx13new_allocatorIN5lgxZJ2IS4MoveEE9constructIS3_IRP7myTemp_S7_EEEvPT_DpOT0_
FN:119,_ZN9__gnu_cxx13new_allocatorISt23_Sp_counted_ptr_inplaceIN5lgxZJ2IS4MoveESaIS4_ELNS_12_Lock_policyE2EEE9constructIS7_IKS5_RP7myTemp_SC_EEEvPT_DpOT0_
FN:119,_ZN9__gnu_cxx13new_allocatorISt23_Sp_counted_ptr_inplaceIN5lgxZJ2IS3SubESaIS4_ELNS_12_Lock_policyE2EEE9constructIS7_IKS5_RP7myTemp_iEEEvPT_DpOT0_
FN:119,_ZN9__gnu_cxx13new_allocatorISt10shared_ptrIN5lgxZJ2IS3AAIEEE9constructIS5_IRKS5_EEEvPT_DpOT0_
FN:119,_ZN9__gnu_cxx13new_allocatorIiE9constructIiIiEEEvPT_DpOT0_
FN:119,_ZN9__gnu_cxx13new_allocatorIiE9constructIiIRKiEEEvPT_DpOT0_
FN:119,_ZN9__gnu_cxx13new_allocatorISt13_Rb_tree_nodeISt4pairIKiP7myTemp_EEE9constructIS7_IRKSt21piecewise_construct_tSt5tupleIIRS3_EESD_IIEEEEEvPT_DpOT0_
FN:119,_ZN9__gnu_cxx13new_allocatorISt13_Rb_tree_nodeISt4pairIKiP9myAccess_EEE9constructIS7_IRKSt21piecewise_construct_tSt5tupleIIRS3_EESD_IIEEEEEvPT_DpOT0_
FN:119,_ZN9__gnu_cxx13new_allocatorIN5lgxZJ2LA4EdgeEE9constructIS3_IRKS3_EEEvPT_DpOT0_
FN:119,_ZN9__gnu_cxx13new_allocatorISt23_Sp_counted_ptr_inplaceIN5lgxZJ2IS4MoveESaIS4_ELNS_12_Lock_policyE2EEE9constructIS7_IKS5_RP7myTemp_SD_NS4_11OperandTypeESE_EEEvPT_DpOT0_
FN:124,_ZN9__gnu_cxx13new_allocatorISt13_Rb_tree_nodeISt4pairIKiP7myTemp_EEE7destroyIS7_EEvPT_
FN:124,_ZN9__gnu_cxx13new_allocatorIN5lgxZJ2IS3SubEE7destroyIS3_EEvPT_
FN:124,_ZN9__gnu_cxx13new_allocatorIP7myTemp_E7destroyIS2_EEvPT_
FN:124,_ZN9__gnu_cxx13new_allocatorIiE7destroyIiEEvPT_
FN:124,_ZN9__gnu_cxx13new_allocatorISt13_Rb_tree_nodeISt4pairIKijEEE7destroyIS5_EEvPT_
FN:124,_ZN9__gnu_cxx13new_allocatorIN5lgxZJ2LA4EdgeEE7destroyIS3_EEvPT_
FN:124,_ZN9__gnu_cxx13new_allocatorISt23_Sp_counted_ptr_inplaceIN5lgxZJ2IS3SubESaIS4_ELNS_12_Lock_policyE2EEE7destroyIS7_EEvPT_
FN:124,_ZN9__gnu_cxx13new_allocatorISt23_Sp_counted_ptr_inplaceIN5lgxZJ2IS4MoveESaIS4_ELNS_12_Lock_policyE2EEE7destroyIS7_EEvPT_
FN:124,_ZN9__gnu_cxx13new_allocatorISt10shared_ptrIN5lgxZJ2IS3AAIEEE7destroyIS5_EEvPT_
FN:124,_ZN9__gnu_cxx13new_allocatorISt13_Rb_tree_nodeISt4pairIKiSt6vectorIiSaIiEEEEE7destroyIS8_EEvPT_
FN:124,_ZN9__gnu_cxx13new_allocatorIN5lgxZJ2IS4MoveEE7destroyIS3_EEvPT_
FN:124,_ZN9__gnu_cxx13new_allocatorISt13_Rb_tree_nodeISt4pairIKiP9myAccess_EEE7destroyIS7_EEvPT_
FN:124,_ZN9__gnu_cxx13new_allocatorISt13_Rb_tree_nodeISt4pairIKP7myTemp_iEEE7destroyIS7_EEvPT_
FN:124,_ZN9__gnu_cxx13new_allocatorISt13_Rb_tree_nodeISt4pairIKP7myTemp_S4_EEE7destroyIS7_EEvPT_
FNDA:0,_ZN9__gnu_cxx13new_allocatorISt23_Sp_counted_ptr_inplaceIN5lgxZJ2IS3SubESaIS4_ELNS_12_Lock_policyE2EEEC2Ev
FNDA:0,_ZN9__gnu_cxx13new_allocatorISt23_Sp_counted_ptr_inplaceIN5lgxZJ2IS4MoveESaIS4_ELNS_12_Lock_policyE2EEEC2Ev
FNDA:0,_ZN9__gnu_cxx13new_allocatorIPiEC2Ev
FNDA:15,_ZN9__gnu_cxx13new_allocatorISt13_Rb_tree_nodeISt4pairIKP7myTemp_S4_EEEC2Ev
FNDA:152,_ZN9__gnu_cxx13new_allocatorIN5lgxZJ2LA4EdgeEEC2Ev
FNDA:0,_ZN9__gnu_cxx13new_allocatorISt10shared_ptrIN5lgxZJ2IS3AAIEEEC2Ev
FNDA:30,_ZN9__gnu_cxx13new_allocatorISt13_Rb_tree_nodeISt4pairIKiSt6vectorIiSaIiEEEEEC2Ev
FNDA:15,_ZN9__gnu_cxx13new_allocatorISt13_Rb_tree_nodeISt4pairIKiP9myAccess_EEEC2Ev
FNDA:15,_ZN9__gnu_cxx13new_allocatorISt13_Rb_tree_nodeISt4pairIKiP7myTemp_EEEC2Ev
FNDA:15,_ZN9__gnu_cxx13new_allocatorISt13_Rb_tree_nodeISt4pairIKijEEEC2Ev
FNDA:2261,_ZN9__gnu_cxx13new_allocatorIiEC2Ev
FNDA:0,_ZN9__gnu_cxx13new_allocatorIN5lgxZJ2IS3SubEEC2Ev
FNDA:0,_ZN9__gnu_cxx13new_allocatorIN5lgxZJ2IS4MoveEEC2Ev
FNDA:3347,_ZN9__gnu_cxx13new_allocatorIP7myTemp_EC2Ev
FNDA:0,_ZN9__gnu_cxx13new_allocatorIN5lgxZJ2IS3SubEEC2ERKS4_
FNDA:0,_ZN9__gnu_cxx13new_allocatorIN5lgxZJ2IS4MoveEEC2ERKS4_
FNDA:5005,_ZN9__gnu_cxx13new_allocatorIP7myTemp_EC2ERKS3_
FNDA:120,_ZN9__gnu_cxx13new_allocatorISt6vectorIP7myTemp_SaIS3_EEEC2ERKS6_
FNDA:896,_ZN9__gnu_cxx13new_allocatorIN5lgxZJ2LA4EdgeEEC2ERKS4_
FNDA:896,_ZN9__gnu_cxx13new_allocatorIN5lgxZJ2LA13DirectedGraph8RealNodeEEC2ERKS5_
FNDA:22976,_ZN9__gnu_cxx13new_allocatorIiEC2ERKS1_
FNDA:0,_ZN9__gnu_cxx13new_allocatorISt10shared_ptrIN5lgxZJ2IS3AAIEEEC2ERKS6_
FNDA:0,_ZN9__gnu_cxx13new_allocatorIcEC2ERKS1_
FNDA:0,_ZN9__gnu_cxx13new_allocatorISt23_Sp_counted_ptr_inplaceIN5lgxZJ2IS3SubESaIS4_ELNS_12_Lock_policyE2EEED2Ev
FNDA:0,_ZN9__gnu_cxx13new_allocatorISt23_Sp_counted_ptr_inplaceIN5lgxZJ2IS4MoveESaIS4_ELNS_12_Lock_policyE2EEED2Ev
FNDA:0,_ZN9__gnu_cxx13new_allocatorIPiED2Ev
FNDA:0,_ZN9__gnu_cxx13new_allocatorISt6vectorIP7myTemp_SaIS3_EEED2Ev
FNDA:0,_ZN9__gnu_cxx13new_allocatorISt13_Rb_tree_nodeISt4pairIKP7myTemp_S4_EEED2Ev
FNDA:0,_ZN9__gnu_cxx13new_allocatorIN5lgxZJ2IS3SubEED2Ev
FNDA:0,_ZN9__gnu_cxx13new_allocatorIN5lgxZJ2IS4MoveEED2Ev
FNDA:0,_ZN9__gnu_cxx13new_allocatorIN5lgxZJ2LA4EdgeEED2Ev
FNDA:0,_ZN9__gnu_cxx13new_allocatorIN5lgxZJ2LA13DirectedGraph8RealNodeEED2Ev
FNDA:0,_ZN9__gnu_cxx13new_allocatorIiED2Ev
FNDA:0,_ZN9__gnu_cxx13new_allocatorISt13_Rb_tree_nodeISt4pairIKP7myTemp_iEEED2Ev
FNDA:0,_ZN9__gnu_cxx13new_allocatorISt10shared_ptrIN5lgxZJ2IS3AAIEEED2Ev
FNDA:0,_ZN9__gnu_cxx13new_allocatorISt13_Rb_tree_nodeISt4pairIKiSt6vectorIiSaIiEEEEED2Ev
FNDA:0,_ZN9__gnu_cxx13new_allocatorISt13_Rb_tree_nodeISt4pairIKiP9myAccess_EEED2Ev
FNDA:0,_ZN9__gnu_cxx13new_allocatorISt13_Rb_tree_nodeISt4pairIKiP7myTemp_EEED2Ev
FNDA:0,_ZN9__gnu_cxx13new_allocatorISt13_Rb_tree_nodeISt4pairIKijEEED2Ev
FNDA:0,_ZN9__gnu_cxx13new_allocatorIP7myTemp_ED2Ev
FNDA:0,_ZN9__gnu_cxx13new_allocatorIcED2Ev
FNDA:0,_ZN9__gnu_cxx13new_allocatorISt23_Sp_counted_ptr_inplaceIN5lgxZJ2IS3SubESaIS4_ELNS_12_Lock_policyE2EEE8allocateEmPKv
FNDA:0,_ZN9__gnu_cxx13new_allocatorISt23_Sp_counted_ptr_inplaceIN5lgxZJ2IS4MoveESaIS4_ELNS_12_Lock_policyE2EEE8allocateEmPKv
FNDA:0,_ZN9__gnu_cxx13new_allocatorISt13_Rb_tree_nodeISt4pairIKP7myTemp_S4_EEE8allocateEmPKv
FNDA:0,_ZN9__gnu_cxx13new_allocatorISt13_Rb_tree_nodeISt4pairIKiP9myAccess_EEE8allocateEmPKv
FNDA:82,_ZN9__gnu_cxx13new_allocatorISt13_Rb_tree_nodeISt4pairIKiP7myTemp_EEE8allocateEmPKv
FNDA:448,_ZN9__gnu_cxx13new_allocatorIN5lgxZJ2LA13DirectedGraph8RealNodeEE8allocateEmPKv
FNDA:93,_ZN9__gnu_cxx13new_allocatorISt13_Rb_tree_nodeISt4pairIKiSt6vectorIiSaIiEEEEE8allocateEmPKv
FNDA:122,_ZN9__gnu_cxx13new_allocatorISt13_Rb_tree_nodeISt4pairIKijEEE8allocateEmPKv
FNDA:86,_ZN9__gnu_cxx13new_allocatorIPiE8allocateEmPKv
FNDA:5853,_ZN9__gnu_cxx13new_allocatorIP7myTemp_E8allocateEmPKv
FNDA:627,_ZN9__gnu_cxx13new_allocatorIN5lgxZJ2LA4EdgeEE8allocateEmPKv
FNDA:12786,_ZN9__gnu_cxx13new_allocatorIiE8allocateEmPKv
FNDA:0,_ZN9__gnu_cxx13new_allocatorISt10shared_ptrIN5lgxZJ2IS3AAIEEE8allocateEmPKv
FNDA:0,_ZN9__gnu_cxx13new_allocatorISt23_Sp_counted_ptr_inplaceIN5lgxZJ2IS3SubESaIS4_ELNS_12_Lock_policyE2EEE10deallocateEPS7_m
FNDA:0,_ZN9__gnu_cxx13new_allocatorISt23_Sp_counted_ptr_inplaceIN5lgxZJ2IS4MoveESaIS4_ELNS_12_Lock_policyE2EEE10deallocateEPS7_m
FNDA:0,_ZN9__gnu_cxx13new_allocatorISt13_Rb_tree_nodeISt4pairIKP7myTemp_S4_EEE10deallocateEPS7_m
FNDA:0,_ZN9__gnu_cxx13new_allocatorISt13_Rb_tree_nodeISt4pairIKP7myTemp_iEEE10deallocateEPS7_m
FNDA:0,_ZN9__gnu_cxx13new_allocatorISt13_Rb_tree_nodeISt4pairIKiSt6vectorIiSaIiEEEEE10deallocateEPS8_m
FNDA:0,_ZN9__gnu_cxx13new_allocatorISt13_Rb_tree_nodeISt4pairIKiP9myAccess_EEE10deallocateEPS7_m
FNDA:0,_ZN9__gnu_cxx13new_allocatorISt13_Rb_tree_nodeISt4pairIKiP7myTemp_EEE10deallocateEPS7_m
FNDA:0,_ZN9__gnu_cxx13new_allocatorISt13_Rb_tree_nodeISt4pairIKijEEE10deallocateEPS5_m
FNDA:0,_ZN9__gnu_cxx13new_allocatorISt6vectorIP7myTemp_SaIS3_EEE10deallocateEPS5_m
FNDA:0,_ZN9__gnu_cxx13new_allocatorIN5lgxZJ2LA4EdgeEE10deallocateEPS3_m
FNDA:0,_ZN9__gnu_cxx13new_allocatorIN5lgxZJ2LA13DirectedGraph8RealNodeEE10deallocateEPS4_m
FNDA:0,_ZN9__gnu_cxx13new_allocatorIPiE10deallocateEPS1_m
FNDA:0,_ZN9__gnu_cxx13new_allocatorIP7myTemp_E10deallocateEPS2_m
FNDA:0,_ZN9__gnu_cxx13new_allocatorIiE10deallocateEPim
FNDA:0,_ZN9__gnu_cxx13new_allocatorISt10shared_ptrIN5lgxZJ2IS3AAIEEE10deallocateEPS5_m
FNDA:0,_ZNK9__gnu_cxx13new_allocatorISt23_Sp_counted_ptr_inplaceIN5lgxZJ2IS3SubESaIS4_ELNS_12_Lock_policyE2EEE8max_sizeEv
FNDA:0,_ZNK9__gnu_cxx13new_allocatorISt23_Sp_counted_ptr_inplaceIN5lgxZJ2IS4MoveESaIS4_ELNS_12_Lock_policyE2EEE8max_sizeEv
FNDA:0,_ZNK9__gnu_cxx13new_allocatorISt13_Rb_tree_nodeISt4pairIKP7myTemp_S4_EEE8max_sizeEv
FNDA:0,_ZNK9__gnu_cxx13new_allocatorISt13_Rb_tree_nodeISt4pairIKiP9myAccess_EEE8max_sizeEv
FNDA:82,_ZNK9__gnu_cxx13new_allocatorISt13_Rb_tree_nodeISt4pairIKiP7myTemp_EEE8max_sizeEv
FNDA:448,_ZNK9__gnu_cxx13new_allocatorIN5lgxZJ2LA13DirectedGraph8RealNodeEE8max_sizeEv
FNDA:93,_ZNK9__gnu_cxx13new_allocatorISt13_Rb_tree_nodeISt4pairIKiSt6vectorIiSaIiEEEEE8max_sizeEv
FNDA:122,_ZNK9__gnu_cxx13new_allocatorISt13_Rb_tree_nodeISt4pairIKijEEE8max_sizeEv
FNDA:86,_ZNK9__gnu_cxx13new_allocatorIPiE8max_sizeEv
FNDA:12733,_ZNK9__gnu_cxx13new_allocatorIP7myTemp_E8max_sizeEv
FNDA:1109,_ZNK9__gnu_cxx13new_allocatorIN5lgxZJ2LA4EdgeEE8max_sizeEv
FNDA:17042,_ZNK9__gnu_cxx13new_allocatorIiE8max_sizeEv
FNDA:0,_ZNK9__gnu_cxx13new_allocatorISt10shared_ptrIN5lgxZJ2IS3AAIEEE8max_sizeEv
FNDA:0,_ZN9__gnu_cxx13new_allocatorIN5lgxZJ2IS3SubEE9constructIS3_IRP7myTemp_iEEEvPT_DpOT0_
FNDA:0,_ZN9__gnu_cxx13new_allocatorIN5lgxZJ2IS4MoveEE9constructIS3_IRP7myTemp_S7_EEEvPT_DpOT0_
FNDA:0,_ZN9__gnu_cxx13new_allocatorIN5lgxZJ2IS4MoveEE9constructIS3_IRP7myTemp_S8_NS3_11OperandTypeES9_EEEvPT_DpOT0_
FNDA:0,_ZN9__gnu_cxx13new_allocatorISt23_Sp_counted_ptr_inplaceIN5lgxZJ2IS3SubESaIS4_ELNS_12_Lock_policyE2EEE9constructIS7_IKS5_RP7myTemp_iEEEvPT_DpOT0_
FNDA:0,_ZN9__gnu_cxx13new_allocatorISt23_Sp_counted_ptr_inplaceIN5lgxZJ2IS4MoveESaIS4_ELNS_12_Lock_policyE2EEE9constructIS7_IKS5_RP7myTemp_SC_EEEvPT_DpOT0_
FNDA:0,_ZN9__gnu_cxx13new_allocatorISt23_Sp_counted_ptr_inplaceIN5lgxZJ2IS4MoveESaIS4_ELNS_12_Lock_policyE2EEE9constructIS7_IKS5_RP7myTemp_SD_NS4_11OperandTypeESE_EEEvPT_DpOT0_
FNDA:0,_ZN9__gnu_cxx13new_allocatorISt13_Rb_tree_nodeISt4pairIKP7myTemp_S4_EEE9constructIS7_IRKSt21piecewise_construct_tSt5tupleIIOS4_EESD_IIEEEEEvPT_DpOT0_
FNDA:0,_ZN9__gnu_cxx13new_allocatorISt13_Rb_tree_nodeISt4pairIKiP9myAccess_EEE9constructIS7_IRKSt21piecewise_construct_tSt5tupleIIOiEESD_IIEEEEEvPT_DpOT0_
FNDA:0,_ZN9__gnu_cxx13new_allocatorISt13_Rb_tree_nodeISt4pairIKiP9myAccess_EEE9constructIS7_IRKSt21piecewise_construct_tSt5tupleIIRS3_EESD_IIEEEEEvPT_DpOT0_
FNDA:82,_ZN9__gnu_cxx13new_allocatorISt13_Rb_tree_nodeISt4pairIKiP7myTemp_EEE9constructIS7_IRKSt21piecewise_construct_tSt5tupleIIRS3_EESD_IIEEEEEvPT_DpOT0_
FNDA:0,_ZN9__gnu_cxx13new_allocatorISt13_Rb_tree_nodeISt4pairIKijEEE9constructIS5_IRKSt21piecewise_construct_tSt5tupleIIOiEESB_IIEEEEEvPT_DpOT0_
FNDA:93,_ZN9__gnu_cxx13new_allocatorISt13_Rb_tree_nodeISt4pairIKiSt6vectorIiSaIiEEEEE9constructIS8_IRKSt21piecewise_construct_tSt5tupleIIRS3_EESE_IIEEEEEvPT_DpOT0_
FNDA:122,_ZN9__gnu_cxx13new_allocatorISt13_Rb_tree_nodeISt4pairIKijEEE9constructIS5_IRKSt21piecewise_construct_tSt5tupleIIRS3_EESB_IIEEEEEvPT_DpOT0_
FNDA:0,_ZN9__gnu_cxx13new_allocatorISt10shared_ptrIN5lgxZJ2IS3AAIEEE9constructIS5_IS5_EEEvPT_DpOT0_
FNDA:859,_ZN9__gnu_cxx13new_allocatorIiE9constructIiIiEEEvPT_DpOT0_
FNDA:0,_ZN9__gnu_cxx13new_allocatorISt10shared_ptrIN5lgxZJ2IS3AAIEEE9constructIS5_IRKS5_EEEvPT_DpOT0_
FNDA:77,_ZN9__gnu_cxx13new_allocatorIN5lgxZJ2LA4EdgeEE9constructIS3_IRKS3_EEEvPT_DpOT0_
FNDA:1829,_ZN9__gnu_cxx13new_allocatorIiE9constructIiIRKiEEEvPT_DpOT0_
FNDA:0,_ZN9__gnu_cxx13new_allocatorISt23_Sp_counted_ptr_inplaceIN5lgxZJ2IS4MoveESaIS4_ELNS_12_Lock_policyE2EEE7destroyIS7_EEvPT_
FNDA:0,_ZN9__gnu_cxx13new_allocatorIN5lgxZJ2IS4MoveEE7destroyIS3_EEvPT_
FNDA:0,_ZN9__gnu_cxx13new_allocatorISt23_Sp_counted_ptr_inplaceIN5lgxZJ2IS3SubESaIS4_ELNS_12_Lock_policyE2EEE7destroyIS7_EEvPT_
FNDA:0,_ZN9__gnu_cxx13new_allocatorIN5lgxZJ2IS3SubEE7destroyIS3_EEvPT_
FNDA:0,_ZN9__gnu_cxx13new_allocatorISt10shared_ptrIN5lgxZJ2IS3AAIEEE7destroyIS5_EEvPT_
FNDA:0,_ZN9__gnu_cxx13new_allocatorISt13_Rb_tree_nodeISt4pairIKP7myTemp_S4_EEE7destroyIS7_EEvPT_
FNDA:46,_ZN9__gnu_cxx13new_allocatorIP7myTemp_E7destroyIS2_EEvPT_
FNDA:35,_ZN9__gnu_cxx13new_allocatorIN5lgxZJ2LA4EdgeEE7destroyIS3_EEvPT_
FNDA:0,_ZN9__gnu_cxx13new_allocatorISt13_Rb_tree_nodeISt4pairIKP7myTemp_iEEE7destroyIS7_EEvPT_
FNDA:0,_ZN9__gnu_cxx13new_allocatorISt13_Rb_tree_nodeISt4pairIKiSt6vectorIiSaIiEEEEE7destroyIS8_EEvPT_
FNDA:0,_ZN9__gnu_cxx13new_allocatorISt13_Rb_tree_nodeISt4pairIKiP9myAccess_EEE7destroyIS7_EEvPT_
FNDA:0,_ZN9__gnu_cxx13new_allocatorISt13_Rb_tree_nodeISt4pairIKiP7myTemp_EEE7destroyIS7_EEvPT_
FNDA:0,_ZN9__gnu_cxx13new_allocatorISt13_Rb_tree_nodeISt4pairIKijEEE7destroyIS5_EEvPT_
FNDA:302,_ZN9__gnu_cxx13new_allocatorIiE7destroyIiEEvPT_
FNF:114
FNH:38
DA:79,5850
DA:81,29893
DA:86,0
DA:99,20097
DA:101,20097
DA:102,0
DA:104,20097
DA:109,0
DA:110,0
DA:113,31715
DA:114,31715
DA:119,3062
DA:120,3062
DA:124,383
LF:14
LH:10
end_of_record
SF:/usr/include/c++/4.8/initializer_list
FN:71,_ZNKSt16initializer_listIP7myTemp_E4sizeEv
FN:75,_ZNKSt16initializer_listIP7myTemp_E5beginEv
FN:79,_ZNKSt16initializer_listIP7myTemp_E3endEv
FNDA:50,_ZNKSt16initializer_listIP7myTemp_E4sizeEv
FNDA:100,_ZNKSt16initializer_listIP7myTemp_E5beginEv
FNDA:50,_ZNKSt16initializer_listIP7myTemp_E3endEv
FNF:3
FNH:3
DA:71,50
DA:75,100
DA:79,50
LF:3
LH:3
end_of_record
SF:/usr/include/c++/4.8/new
FN:109,_ZnwmPv
FN:115,_ZdlPvS_
FNDA:0,_ZnwmPv
FNDA:0,_ZdlPvS_
FNF:2
FNH:0
DA:109,0
DA:110,0
DA:115,0
LF:3
LH:0
end_of_record
SF:/usr/include/c++/4.8/tuple
FN:134,_ZNSt10_Head_baseILm0ERKiLb0EEC2ES1_
FN:141,_ZNSt10_Head_baseILm0EOP7myTemp_Lb0EEC2IS1_EEOT_
FN:141,_ZNSt10_Head_baseILm0EOiLb0EEC2IiEEOT_
FN:169,_ZNSt10_Head_baseILm0EOP7myTemp_Lb0EE7_M_headERS3_
FN:169,_ZNSt10_Head_baseILm0ERKiLb0EE7_M_headERS2_
FN:169,_ZNSt10_Head_baseILm0EOiLb0EE7_M_headERS1_
FN:197,_ZNSt11_Tuple_implILm1EIEEC2Ev
FN:241,_ZNSt11_Tuple_implILm0EIOiEE7_M_headERS1_
FN:241,_ZNSt11_Tuple_implILm0EIRKiEE7_M_headERS2_
FN:241,_ZNSt11_Tuple_implILm0EIOP7myTemp_EE7_M_headERS3_
FN:247,_ZNSt11_Tuple_implILm0EIOP7myTemp_EE7_M_tailERS3_
FN:247,_ZNSt11_Tuple_implILm0EIOiEE7_M_tailERS1_
FN:247,_ZNSt11_Tuple_implILm0EIRKiEE7_M_tailERS2_
FN:256,_ZNSt11_Tuple_implILm0EIRKiEEC2ES1_
FN:262,_ZNSt11_Tuple_implILm0EIOiEEC2IiIEvEEOT_DpOT0_
FN:262,_ZNSt11_Tuple_implILm0EIOP7myTemp_EEC2IS1_IEvEEOT_DpOT0_
FN:269,_ZNSt11_Tuple_implILm0EIOP7myTemp_EEC2EOS3_
FN:269,_ZNSt11_Tuple_implILm0EIRKiEEC2EOS2_
FN:269,_ZNSt11_Tuple_implILm0EIOiEEC2EOS1_
FN:399,_ZNSt5tupleIIRKiEEC2ES1_
FN:406,_ZNSt5tupleIIOiEEC2IIiEvEEDpOT_
FN:406,_ZNSt5tupleIIOP7myTemp_EEC2IIS1_EvEEDpOT_
FN:411,_ZNSt5tupleIIOP7myTemp_EEC2EOS3_
FN:411,_ZNSt5tupleIIOiEEC2EOS1_
FN:411,_ZNSt5tupleIIRKiEEC2EOS2_
FN:744,_ZSt12__get_helperILm0ERKiIEENSt9__add_refIT0_E4typeERSt11_Tuple_implIXT_EIS3_DpT1_EE
FN:744,_ZSt12__get_helperILm0EOP7myTemp_IEENSt9__add_refIT0_E4typeERSt11_Tuple_implIXT_EIS4_DpT1_EE
FN:744,_ZSt12__get_helperILm0EOiIEENSt9__add_refIT0_E4typeERSt11_Tuple_implIXT_EIS2_DpT1_EE
FN:759,_ZSt3getILm0EIOP7myTemp_EENSt9__add_refINSt13tuple_elementIXT_ESt5tupleIIDpT0_EEE4typeEE4typeERS8_
FN:759,_ZSt3getILm0EIOiEENSt9__add_refINSt13tuple_elementIXT_ESt5tupleIIDpT0_EEE4typeEE4typeERS6_
FN:759,_ZSt3getILm0EIRKiEENSt9__add_refINSt13tuple_elementIXT_ESt5tupleIIDpT0_EEE4typeEE4typeERS7_
FN:869,_ZSt16forward_as_tupleIIiEESt5tupleIIDpOT_EES3_
FN:869,_ZSt16forward_as_tupleIIP7myTemp_EESt5tupleIIDpOT_EES5_
FN:1074,_ZNSt4pairIKP7myTemp_S1_EC2IIOS1_EIEEESt21piecewise_construct_tSt5tupleIIDpT_EES7_IIDpT0_EE
FN:1074,_ZNSt4pairIKijEC2IIOiEIEEESt21piecewise_construct_tSt5tupleIIDpT_EES5_IIDpT0_EE
FN:1074,_ZNSt4pairIKiP9myAccess_EC2IIOiEIEEESt21piecewise_construct_tSt5tupleIIDpT_EES7_IIDpT0_EE
FN:1074,_ZNSt4pairIKijEC2IIRS0_EIEEESt21piecewise_construct_tSt5tupleIIDpT_EES5_IIDpT0_EE
FN:1074,_ZNSt4pairIKiSt6vectorIiSaIiEEEC2IIRS0_EIEEESt21piecewise_construct_tSt5tupleIIDpT_EES8_IIDpT0_EE
FN:1074,_ZNSt4pairIKiP9myAccess_EC2IIRS0_EIEEESt21piecewise_construct_tSt5tupleIIDpT_EES7_IIDpT0_EE
FN:1074,_ZNSt4pairIKiP7myTemp_EC2IIRS0_EIEEESt21piecewise_construct_tSt5tupleIIDpT_EES7_IIDpT0_EE
FN:1086,_ZNSt4pairIKP7myTemp_S1_EC2IIOS1_EILm0EEIEIEEERSt5tupleIIDpT_EERS6_IIDpT1_EESt12_Index_tupleIIXspT0_EEESF_IIXspT2_EEE
FN:1086,_ZNSt4pairIKiSt6vectorIiSaIiEEEC2IIRS0_EILm0EEIEIEEERSt5tupleIIDpT_EERS7_IIDpT1_EESt12_Index_tupleIIXspT0_EEESG_IIXspT2_EEE
FN:1086,_ZNSt4pairIKijEC2IIRS0_EILm0EEIEIEEERSt5tupleIIDpT_EERS4_IIDpT1_EESt12_Index_tupleIIXspT0_EEESD_IIXspT2_EEE
FN:1086,_ZNSt4pairIKiP7myTemp_EC2IIRS0_EILm0EEIEIEEERSt5tupleIIDpT_EERS6_IIDpT1_EESt12_Index_tupleIIXspT0_EEESF_IIXspT2_EEE
FN:1086,_ZNSt4pairIKijEC2IIOiEILm0EEIEIEEERSt5tupleIIDpT_EERS4_IIDpT1_EESt12_Index_tupleIIXspT0_EEESD_IIXspT2_EEE
FN:1086,_ZNSt4pairIKiP9myAccess_EC2IIRS0_EILm0EEIEIEEERSt5tupleIIDpT_EERS6_IIDpT1_EESt12_Index_tupleIIXspT0_EEESF_IIXspT2_EEE
FN:1086,_ZNSt4pairIKiP9myAccess_EC2IIOiEILm0EEIEIEEERSt5tupleIIDpT_EERS6_IIDpT1_EESt12_Index_tupleIIXspT0_EEESF_IIXspT2_EEE
FNDA:594,_ZNSt10_Head_baseILm0ERKiLb0EEC2ES1_
FNDA:0,_ZNSt10_Head_baseILm0EOP7myTemp_Lb0EEC2IS1_EEOT_
FNDA:0,_ZNSt10_Head_baseILm0EOiLb0EEC2IiEEOT_
FNDA:594,_ZNSt10_Head_baseILm0ERKiLb0EE7_M_headERS2_
FNDA:0,_ZNSt10_Head_baseILm0EOP7myTemp_Lb0EE7_M_headERS3_
FNDA:0,_ZNSt10_Head_baseILm0EOiLb0EE7_M_headERS1_
FNDA:0,_ZNSt11_Tuple_implILm1EIEEC2Ev
FNDA:594,_ZNSt11_Tuple_implILm0EIRKiEE7_M_headERS2_
FNDA:0,_ZNSt11_Tuple_implILm0EIOP7myTemp_EE7_M_headERS3_
FNDA:0,_ZNSt11_Tuple_implILm0EIOiEE7_M_headERS1_
FNDA:297,_ZNSt11_Tuple_implILm0EIRKiEE7_M_tailERS2_
FNDA:0,_ZNSt11_Tuple_implILm0EIOP7myTemp_EE7_M_tailERS3_
FNDA:0,_ZNSt11_Tuple_implILm0EIOiEE7_M_tailERS1_
FNDA:297,_ZNSt11_Tuple_implILm0EIRKiEEC2ES1_
FNDA:0,_ZNSt11_Tuple_implILm0EIOP7myTemp_EEC2IS1_IEvEEOT_DpOT0_
FNDA:0,_ZNSt11_Tuple_implILm0EIOiEEC2IiIEvEEOT_DpOT0_
FNDA:297,_ZNSt11_Tuple_implILm0EIRKiEEC2EOS2_
FNDA:0,_ZNSt11_Tuple_implILm0EIOP7myTemp_EEC2EOS3_
FNDA:0,_ZNSt11_Tuple_implILm0EIOiEEC2EOS1_
FNDA:297,_ZNSt5tupleIIRKiEEC2ES1_
FNDA:0,_ZNSt5tupleIIOP7myTemp_EEC2IIS1_EvEEDpOT_
FNDA:0,_ZNSt5tupleIIOiEEC2IIiEvEEDpOT_
FNDA:297,_ZNSt5tupleIIRKiEEC2EOS2_
FNDA:0,_ZNSt5tupleIIOP7myTemp_EEC2EOS3_
FNDA:0,_ZNSt5tupleIIOiEEC2EOS1_
FNDA:0,_ZSt12__get_helperILm0EOP7myTemp_IEENSt9__add_refIT0_E4typeERSt11_Tuple_implIXT_EIS4_DpT1_EE
FNDA:0,_ZSt12__get_helperILm0EOiIEENSt9__add_refIT0_E4typeERSt11_Tuple_implIXT_EIS2_DpT1_EE
FNDA:297,_ZSt12__get_helperILm0ERKiIEENSt9__add_refIT0_E4typeERSt11_Tuple_implIXT_EIS3_DpT1_EE
FNDA:0,_ZSt3getILm0EIOP7myTemp_EENSt9__add_refINSt13tuple_elementIXT_ESt5tupleIIDpT0_EEE4typeEE4typeERS8_
FNDA:0,_ZSt3getILm0EIOiEENSt9__add_refINSt13tuple_elementIXT_ESt5tupleIIDpT0_EEE4typeEE4typeERS6_
FNDA:297,_ZSt3getILm0EIRKiEENSt9__add_refINSt13tuple_elementIXT_ESt5tupleIIDpT0_EEE4typeEE4typeERS7_
FNDA:0,_ZSt16forward_as_tupleIIP7myTemp_EESt5tupleIIDpOT_EES5_
FNDA:0,_ZSt16forward_as_tupleIIiEESt5tupleIIDpOT_EES3_
FNDA:0,_ZNSt4pairIKP7myTemp_S1_EC2IIOS1_EIEEESt21piecewise_construct_tSt5tupleIIDpT_EES7_IIDpT0_EE
FNDA:0,_ZNSt4pairIKiP9myAccess_EC2IIOiEIEEESt21piecewise_construct_tSt5tupleIIDpT_EES7_IIDpT0_EE
FNDA:0,_ZNSt4pairIKiP9myAccess_EC2IIRS0_EIEEESt21piecewise_construct_tSt5tupleIIDpT_EES7_IIDpT0_EE
FNDA:82,_ZNSt4pairIKiP7myTemp_EC2IIRS0_EIEEESt21piecewise_construct_tSt5tupleIIDpT_EES7_IIDpT0_EE
FNDA:0,_ZNSt4pairIKijEC2IIOiEIEEESt21piecewise_construct_tSt5tupleIIDpT_EES5_IIDpT0_EE
FNDA:93,_ZNSt4pairIKiSt6vectorIiSaIiEEEC2IIRS0_EIEEESt21piecewise_construct_tSt5tupleIIDpT_EES8_IIDpT0_EE
FNDA:122,_ZNSt4pairIKijEC2IIRS0_EIEEESt21piecewise_construct_tSt5tupleIIDpT_EES5_IIDpT0_EE
FNDA:0,_ZNSt4pairIKP7myTemp_S1_EC2IIOS1_EILm0EEIEIEEERSt5tupleIIDpT_EERS6_IIDpT1_EESt12_Index_tupleIIXspT0_EEESF_IIXspT2_EEE
FNDA:0,_ZNSt4pairIKiP9myAccess_EC2IIOiEILm0EEIEIEEERSt5tupleIIDpT_EERS6_IIDpT1_EESt12_Index_tupleIIXspT0_EEESF_IIXspT2_EEE
FNDA:0,_ZNSt4pairIKiP9myAccess_EC2IIRS0_EILm0EEIEIEEERSt5tupleIIDpT_EERS6_IIDpT1_EESt12_Index_tupleIIXspT0_EEESF_IIXspT2_EEE
FNDA:82,_ZNSt4pairIKiP7myTemp_EC2IIRS0_EILm0EEIEIEEERSt5tupleIIDpT_EERS6_IIDpT1_EESt12_Index_tupleIIXspT0_EEESF_IIXspT2_EEE
FNDA:0,_ZNSt4pairIKijEC2IIOiEILm0EEIEIEEERSt5tupleIIDpT_EERS4_IIDpT1_EESt12_Index_tupleIIXspT0_EEESD_IIXspT2_EEE
FNDA:93,_ZNSt4pairIKiSt6vectorIiSaIiEEEC2IIRS0_EILm0EEIEIEEERSt5tupleIIDpT_EERS7_IIDpT1_EESt12_Index_tupleIIXspT0_EEESG_IIXspT2_EEE
FNDA:122,_ZNSt4pairIKijEC2IIRS0_EILm0EEIEIEEERSt5tupleIIDpT_EERS4_IIDpT1_EESt12_Index_tupleIIXspT0_EEESD_IIXspT2_EEE
FNF:47
FNH:16
DA:134,594
DA:135,594
DA:141,0
DA:142,0
DA:169,594
DA:197,0
DA:241,594
DA:247,297
DA:256,297
DA:257,297
DA:262,0
DA:264,0
DA:269,297
DA:272,297
DA:273,297
DA:399,297
DA:400,297
DA:406,0
DA:407,0
DA:411,297
DA:744,297
DA:745,297
DA:759,297
DA:760,297
DA:869,0
DA:870,0
DA:1074,297
DA:1079,297
DA:1080,297
DA:1086,297
DA:1089,297
DA:1090,297
DA:1091,297
LF:33
LH:24
end_of_record
SF:/usr/include/c++/4.8/typeinfo
FN:120,_ZNKSt9type_infoeqERKS_
FNDA:0,_ZNKSt9type_infoeqERKS_
FNF:1
FNH:0
DA:120,0
DA:122,0
DA:123,0
DA:124,0
LF:4
LH:0
end_of_record
SF:/usr/include/c++/4.8/x86_64-suse-linux/bits/gthr-default.h
FN:247,_ZL18__gthread_active_pv
FNDA:0,_ZL18__gthread_active_pv
FNF:1
FNH:0
DA:247,0
DA:251,0
LF:2
LH:0
end_of_record
SF:/home/lgxZJ/Desktop/Tiger-Compiler/Compiler/myCFGraph.h
FN:17,_ZN5lgxZJ2LA7CFGraphD2Ev
FN:17,_ZN5lgxZJ2LA7CFGraphaSEOS1_
FNDA:15,_ZN5lgxZJ2LA7CFGraphaSEOS1_
FNDA:0,_ZN5lgxZJ2LA7CFGraphD2Ev
FNF:2
FNH:1
DA:17,15
LF:1
LH:1
end_of_record
SF:/home/lgxZJ/Desktop/Tiger-Compiler/Compiler/myDirectedGraph.h
FN:33,_ZNK5lgxZJ2LA4Edge7GetFromEv
FN:34,_ZNK5lgxZJ2LA4Edge5GetToEv
FN:43,_ZN5lgxZJ2LA13DirectedGraphD2Ev
FN:43,_ZN5lgxZJ2LA13DirectedGraphC2ERKS1_
FN:43,_ZN5lgxZJ2LA13DirectedGraphaSEOS1_
FN:46,_ZN5lgxZJ2LA13DirectedGraph8RealNodeD2Ev
FN:46,_ZN5lgxZJ2LA13DirectedGraph8RealNodeC2ERKS2_
FNDA:15720,_ZNK5lgxZJ2LA4Edge7GetFromEv
FNDA:5310,_ZNK5lgxZJ2LA4Edge5GetToEv
FNDA:388,_ZN5lgxZJ2LA13DirectedGraphC2ERKS1_
FNDA:30,_ZN5lgxZJ2LA13DirectedGraphaSEOS1_
FNDA:0,_ZN5lgxZJ2LA13DirectedGraphD2Ev
FNDA:5621,_ZN5lgxZJ2LA13DirectedGraph8RealNodeC2ERKS2_
FNDA:0,_ZN5lgxZJ2LA13DirectedGraph8RealNodeD2Ev
FNF:7
FNH:5
DA:33,15720
DA:34,5310
DA:43,418
DA:46,5621
LF:4
LH:4
end_of_record
SF:/home/lgxZJ/Desktop/Tiger-Compiler/Compiler/myLiveness.h
FN:21,_ZN5lgxZJ2LA17InterferenceGraphaSEOS1_
FN:21,_ZN5lgxZJ2LA17InterferenceGraphD2Ev
FN:89,_ZN5lgxZJ2LA8LivenessD2Ev
FNDA:15,_ZN5lgxZJ2LA17InterferenceGraphaSEOS1_
FNDA:0,_ZN5lgxZJ2LA17InterferenceGraphD2Ev
FNDA:15,_ZN5lgxZJ2LA8LivenessD2Ev
FNF:3
FNH:2
DA:21,15
DA:89,15
LF:2
LH:2
end_of_record
SF:/home/lgxZJ/Desktop/Tiger-Compiler/Compiler/myRegisterAllocation.cpp
FN:22,_ZN5lgxZJ2RA18RegisterAllocationC2ESt6vectorISt10shared_ptrINS_2IS3AAIEESaIS6_EEP14Trans_myLevel_j
FN:30,_ZN5lgxZJ2RA18RegisterAllocation8RealWorkESt6vectorISt10shared_ptrINS_2IS3AAIEESaIS6_EE
FN:55,_ZN5lgxZJ2RA18RegisterAllocation15InitInformationESt6vectorISt10shared_ptrINS_2IS3AAIEESaIS6_EE
FN:85,_ZN5lgxZJ2RA18RegisterAllocation19HaveHighDegreeNodesEv
FN:92,_ZN5lgxZJ2RA18RegisterAllocation5BuildEv
FN:101,_ZN5lgxZJ2RA18RegisterAllocation21SaveDegreeInformationERSt6vectorIiSaIiEE
FN:111,_ZN5lgxZJ2RA18RegisterAllocation17SaveAdjacentNodesERSt6vectorIiSaIiEE
FN:135,_ZN5lgxZJ2RA18RegisterAllocation25ClassifyIntoDifferentSetsERSt6vectorIiSaIiEE
FN:157,_ZN5lgxZJ2RA18RegisterAllocation11InMovePairsEi
FN:174,_ZN5lgxZJ2RA18RegisterAllocation8SimplifyEv
FN:197,_ZN5lgxZJ2RA18RegisterAllocation28AdjustNodeCategoryInSimplifyEi
FN:216,_ZN5lgxZJ2RA18RegisterAllocation8CoalesceEv
FN:241,_ZN5lgxZJ2RA18RegisterAllocation13IsCoalescableENS_2LA4EdgeEPSt6vectorIiSaIiEEPjPb
FN:280,_ZN5lgxZJ2RA18RegisterAllocation10DoCoalesceENS_2LA4EdgeERSt6vectorIiSaIiEEjb
FN:298,_ZN5lgxZJ2RA18RegisterAllocation12AnalyzeAliasEPiS2_NS_2LA4EdgeE
FN:312,_ZN5lgxZJ2RA18RegisterAllocation12GetNodeAliasEi
FN:326,_ZN5lgxZJ2RA18RegisterAllocation8AddAliasEii
FN:332,_ZN5lgxZJ2RA18RegisterAllocation16GetNodeNeighborsEiPSt6vectorIiSaIiEE
FN:343,_ZN5lgxZJ2RA18RegisterAllocation12IsSimplifiedEi
FN:356,_ZN5lgxZJ2RA18RegisterAllocation21AdjustAdjacentDegreesENS_2LA4EdgeERSt6vectorIiSaIiEEjb
FN:366,_ZN5lgxZJ2RA18RegisterAllocation28AdjustNodeCategoryInCoalesceEiNS_2LA4EdgeE
FN:389,_ZN5lgxZJ2RA18RegisterAllocation17RemoveNodeFromSetERSt6vectorIiSaIiEEi
FN:406,_ZN5lgxZJ2RA18RegisterAllocation25RemoveNonAliasNodeFromSetERSt6vectorIiSaIiEEi
FN:413,_ZN5lgxZJ2RA18RegisterAllocation30AdjustNodeCategoryNotCoalescedEi
FN:436,_ZN5lgxZJ2RA18RegisterAllocation6FreezeEv
FN:450,_ZN5lgxZJ2RA18RegisterAllocation38MoveFreezedNodeIntoLowDegreeNonMoveSetEi
FN:456,_ZN5lgxZJ2RA18RegisterAllocation22UpdateMoveRelatedNodesEi
FN:474,_ZN5lgxZJ2RA18RegisterAllocation16UpdateOnePairSetERSt6vectorINS_2LA4EdgeESaIS4_EEiPS2_IiSaIiEE
FN:490,_ZN5lgxZJ2RA18RegisterAllocation9InNodeSetEiRSt6vectorIiSaIiEE
FN:498,_ZN5lgxZJ2RA18RegisterAllocation35MoveHighDegreeNodeFromMoveToNonMoveEi
FN:504,_ZN5lgxZJ2RA18RegisterAllocation34MoveLowDegreeNodeFromMoveToNonMoveEi
FN:512,_ZN5lgxZJ2RA18RegisterAllocation5SpillEv
FN:537,_ZN5lgxZJ2RA18RegisterAllocation15SelectSpillNodeESt6vectorIiSaIiEE
FN:561,_ZN5lgxZJ2RA18RegisterAllocation12AssignColorsEv
FN:577,_ZN5lgxZJ2RA18RegisterAllocation23AssignColorToPrecoloredEi
FN:583,_ZN5lgxZJ2RA18RegisterAllocation26AssignColorToNonPrecoloredEi
FN:598,_ZN5lgxZJ2RA18RegisterAllocation24RemoveAdjacentNodeColorsEPSt6vectorIP7myTemp_SaIS4_EES2_IiSaIiEE
FN:604,_ZN5lgxZJ2RA18RegisterAllocation29RemoveAliasAdjacentNodeColorsEPSt6vectorIP7myTemp_SaIS4_EEi
FN:619,_ZN5lgxZJ2RA18RegisterAllocation28RemoveOneNodeColorFromColorsEPSt6vectorIP7myTemp_SaIS4_EEi
FN:629,_ZN5lgxZJ2RA18RegisterAllocation18GetAvailableColorsEv
FN:641,_ZN5lgxZJ2RA18RegisterAllocation16IsPrecoloredNodeEi
FN:660,_ZN5lgxZJ2RA18RegisterAllocation21RemoveColorFromColorsERSt6vectorIP7myTemp_SaIS4_EES4_
FN:668,_ZN5lgxZJ2RA18RegisterAllocation28AssignColorsOnCoalescedNodesEi
FN:689,_ZN5lgxZJ2RA18RegisterAllocation7RewriteEv
FN:700,_ZN5lgxZJ2RA18RegisterAllocation28AllocateMemoryForSpilledRegsEv
FN:707,_ZN5lgxZJ2RA18RegisterAllocation13RewriteOneInsESt10shared_ptrINS_2IS3AAIEEPSt6vectorIS5_SaIS5_EE
FN:728,_ZN5lgxZJ2RA18RegisterAllocation13RewriteOneAddESt10shared_ptrINS_2IS3AAIEEPSt6vectorIS5_SaIS5_EE
FN:769,_ZN5lgxZJ2RA18RegisterAllocation15RewriteBothRegsEPSt6vectorISt10shared_ptrINS_2IS3AAIEESaIS6_EES6_P7myTemp_SB_
FN:792,_ZN5lgxZJ2RA18RegisterAllocation14RewriteLeftRegEPSt6vectorISt10shared_ptrINS_2IS3AAIEESaIS6_EES6_P7myTemp_
FN:809,_ZN5lgxZJ2RA18RegisterAllocation15RewriteRightRegEPSt6vectorISt10shared_ptrINS_2IS3AAIEESaIS6_EES6_P7myTemp_
FN:823,_ZN5lgxZJ2RA18RegisterAllocation13RewriteOneSubESt10shared_ptrINS_2IS3AAIEEPSt6vectorIS5_SaIS5_EE
FN:828,_ZN5lgxZJ2RA18RegisterAllocation13RewriteOneXorESt10shared_ptrINS_2IS3AAIEEPSt6vectorIS5_SaIS5_EE
FN:833,_ZN5lgxZJ2RA18RegisterAllocation13RewriteOneMulESt10shared_ptrINS_2IS3AAIEEPSt6vectorIS5_SaIS5_EE
FN:866,_ZN5lgxZJ2RA18RegisterAllocation13RewriteOneDivESt10shared_ptrINS_2IS3AAIEEPSt6vectorIS5_SaIS5_EE
FN:871,_ZN5lgxZJ2RA18RegisterAllocation13RewriteOneCmpESt10shared_ptrINS_2IS3AAIEEPSt6vectorIS5_SaIS5_EE
FN:895,_ZN5lgxZJ2RA18RegisterAllocation21RewriteOneRegToMemoryEPSt6vectorISt10shared_ptrINS_2IS3AAIEESaIS6_EEPP7myTemp_
FN:907,_ZN5lgxZJ2RA18RegisterAllocation14RewriteOneCallESt10shared_ptrINS_2IS3AAIEEPSt6vectorIS5_SaIS5_EE
FN:928,_ZN5lgxZJ2RA18RegisterAllocation13RewriteOneMovESt10shared_ptrINS_2IS3AAIEEPSt6vectorIS5_SaIS5_EE
FN:952,_ZN5lgxZJ2RA18RegisterAllocation29RewriteRegsToMemoryAndReplaceEPSt6vectorISt10shared_ptrINS_2IS3AAIEESaIS6_EES6_RS2_IP7myTemp_SaISB_EE
FN:964,_ZN5lgxZJ2RA18RegisterAllocation23CalculateNodeMemoryAddrEPSt6vectorISt10shared_ptrINS_2IS3AAIEESaIS6_EEP7myTemp_
FN:977,_ZN5lgxZJ2RA18RegisterAllocation10RegSpilledEP7myTemp_
FN:985,_ZN5lgxZJ2RA18RegisterAllocation14GetRegisterMapEv
FN:998,_ZN5lgxZJ2RA18RegisterAllocation6GetInsEv
FNDA:15,_ZN5lgxZJ2RA18RegisterAllocationC2ESt6vectorISt10shared_ptrINS_2IS3AAIEESaIS6_EEP14Trans_myLevel_j
FNDA:15,_ZN5lgxZJ2RA18RegisterAllocation8RealWorkESt6vectorISt10shared_ptrINS_2IS3AAIEESaIS6_EE
FNDA:15,_ZN5lgxZJ2RA18RegisterAllocation15InitInformationESt6vectorISt10shared_ptrINS_2IS3AAIEESaIS6_EE
FNDA:17,_ZN5lgxZJ2RA18RegisterAllocation19HaveHighDegreeNodesEv
FNDA:15,_ZN5lgxZJ2RA18RegisterAllocation5BuildEv
FNDA:15,_ZN5lgxZJ2RA18RegisterAllocation21SaveDegreeInformationERSt6vectorIiSaIiEE
FNDA:15,_ZN5lgxZJ2RA18RegisterAllocation17SaveAdjacentNodesERSt6vectorIiSaIiEE
FNDA:15,_ZN5lgxZJ2RA18RegisterAllocation25ClassifyIntoDifferentSetsERSt6vectorIiSaIiEE
FNDA:148,_ZN5lgxZJ2RA18RegisterAllocation11InMovePairsEi
FNDA:67,_ZN5lgxZJ2RA18RegisterAllocation8SimplifyEv
FNDA:157,_ZN5lgxZJ2RA18RegisterAllocation28AdjustNodeCategoryInSimplifyEi
FNDA:20,_ZN5lgxZJ2RA18RegisterAllocation8CoalesceEv
FNDA:35,_ZN5lgxZJ2RA18RegisterAllocation13IsCoalescableENS_2LA4EdgeEPSt6vectorIiSaIiEEPjPb
FNDA:15,_ZN5lgxZJ2RA18RegisterAllocation10DoCoalesceENS_2LA4EdgeERSt6vectorIiSaIiEEjb
FNDA:15,_ZN5lgxZJ2RA18RegisterAllocation12AnalyzeAliasEPiS2_NS_2LA4EdgeE
FNDA:147,_ZN5lgxZJ2RA18RegisterAllocation12GetNodeAliasEi
FNDA:15,_ZN5lgxZJ2RA18RegisterAllocation8AddAliasEii
FNDA:32,_ZN5lgxZJ2RA18RegisterAllocation16GetNodeNeighborsEiPSt6vectorIiSaIiEE
FNDA:26,_ZN5lgxZJ2RA18RegisterAllocation12IsSimplifiedEi
FNDA:15,_ZN5lgxZJ2RA18RegisterAllocation21AdjustAdjacentDegreesENS_2LA4EdgeERSt6vectorIiSaIiEEjb
FNDA:15,_ZN5lgxZJ2RA18RegisterAllocation28AdjustNodeCategoryInCoalesceEiNS_2LA4EdgeE
FNDA:59,_ZN5lgxZJ2RA18RegisterAllocation17RemoveNodeFromSetERSt6vectorIiSaIiEEi
FNDA:70,_ZN5lgxZJ2RA18RegisterAllocation25RemoveNonAliasNodeFromSetERSt6vectorIiSaIiEEi
FNDA:0,_ZN5lgxZJ2RA18RegisterAllocation30AdjustNodeCategoryNotCoalescedEi
FNDA:16,_ZN5lgxZJ2RA18RegisterAllocation6FreezeEv
FNDA:16,_ZN5lgxZJ2RA18RegisterAllocation38MoveFreezedNodeIntoLowDegreeNonMoveSetEi
FNDA:16,_ZN5lgxZJ2RA18RegisterAllocation22UpdateMoveRelatedNodesEi
FNDA:32,_ZN5lgxZJ2RA18RegisterAllocation16UpdateOnePairSetERSt6vectorINS_2LA4EdgeESaIS4_EEiPS2_IiSaIiEE
FNDA:128,_ZN5lgxZJ2RA18RegisterAllocation9InNodeSetEiRSt6vectorIiSaIiEE
FNDA:1,_ZN5lgxZJ2RA18RegisterAllocation35MoveHighDegreeNodeFromMoveToNonMoveEi
FNDA:8,_ZN5lgxZJ2RA18RegisterAllocation34MoveLowDegreeNodeFromMoveToNonMoveEi
FNDA:1,_ZN5lgxZJ2RA18RegisterAllocation5SpillEv
FNDA:1,_ZN5lgxZJ2RA18RegisterAllocation15SelectSpillNodeESt6vectorIiSaIiEE
FNDA:15,_ZN5lgxZJ2RA18RegisterAllocation12AssignColorsEv
FNDA:17,_ZN5lgxZJ2RA18RegisterAllocation23AssignColorToPrecoloredEi
FNDA:50,_ZN5lgxZJ2RA18RegisterAllocation26AssignColorToNonPrecoloredEi
FNDA:63,_ZN5lgxZJ2RA18RegisterAllocation24RemoveAdjacentNodeColorsEPSt6vectorIP7myTemp_SaIS4_EES2_IiSaIiEE
FNDA:50,_ZN5lgxZJ2RA18RegisterAllocation29RemoveAliasAdjacentNodeColorsEPSt6vectorIP7myTemp_SaIS4_EEi
FNDA:109,_ZN5lgxZJ2RA18RegisterAllocation28RemoveOneNodeColorFromColorsEPSt6vectorIP7myTemp_SaIS4_EEi
FNDA:50,_ZN5lgxZJ2RA18RegisterAllocation18GetAvailableColorsEv
FNDA:209,_ZN5lgxZJ2RA18RegisterAllocation16IsPrecoloredNodeEi
FNDA:61,_ZN5lgxZJ2RA18RegisterAllocation21RemoveColorFromColorsERSt6vectorIP7myTemp_SaIS4_EES4_
FNDA:67,_ZN5lgxZJ2RA18RegisterAllocation28AssignColorsOnCoalescedNodesEi
FNDA:0,_ZN5lgxZJ2RA18RegisterAllocation7RewriteEv
FNDA:0,_ZN5lgxZJ2RA18RegisterAllocation28AllocateMemoryForSpilledRegsEv
FNDA:0,_ZN5lgxZJ2RA18RegisterAllocation13RewriteOneInsESt10shared_ptrINS_2IS3AAIEEPSt6vectorIS5_SaIS5_EE
FNDA:0,_ZN5lgxZJ2RA18RegisterAllocation13RewriteOneAddESt10shared_ptrINS_2IS3AAIEEPSt6vectorIS5_SaIS5_EE
FNDA:0,_ZN5lgxZJ2RA18RegisterAllocation15RewriteBothRegsEPSt6vectorISt10shared_ptrINS_2IS3AAIEESaIS6_EES6_P7myTemp_SB_
FNDA:0,_ZN5lgxZJ2RA18RegisterAllocation14RewriteLeftRegEPSt6vectorISt10shared_ptrINS_2IS3AAIEESaIS6_EES6_P7myTemp_
FNDA:0,_ZN5lgxZJ2RA18RegisterAllocation15RewriteRightRegEPSt6vectorISt10shared_ptrINS_2IS3AAIEESaIS6_EES6_P7myTemp_
FNDA:0,_ZN5lgxZJ2RA18RegisterAllocation13RewriteOneSubESt10shared_ptrINS_2IS3AAIEEPSt6vectorIS5_SaIS5_EE
FNDA:0,_ZN5lgxZJ2RA18RegisterAllocation13RewriteOneXorESt10shared_ptrINS_2IS3AAIEEPSt6vectorIS5_SaIS5_EE
FNDA:0,_ZN5lgxZJ2RA18RegisterAllocation13RewriteOneMulESt10shared_ptrINS_2IS3AAIEEPSt6vectorIS5_SaIS5_EE
FNDA:0,_ZN5lgxZJ2RA18RegisterAllocation13RewriteOneDivESt10shared_ptrINS_2IS3AAIEEPSt6vectorIS5_SaIS5_EE
FNDA:0,_ZN5lgxZJ2RA18RegisterAllocation13RewriteOneCmpESt10shared_ptrINS_2IS3AAIEEPSt6vectorIS5_SaIS5_EE
FNDA:0,_ZN5lgxZJ2RA18RegisterAllocation21RewriteOneRegToMemoryEPSt6vectorISt10shared_ptrINS_2IS3AAIEESaIS6_EEPP7myTemp_
FNDA:0,_ZN5lgxZJ2RA18RegisterAllocation14RewriteOneCallESt10shared_ptrINS_2IS3AAIEEPSt6vectorIS5_SaIS5_EE
FNDA:0,_ZN5lgxZJ2RA18RegisterAllocation13RewriteOneMovESt10shared_ptrINS_2IS3AAIEEPSt6vectorIS5_SaIS5_EE
FNDA:0,_ZN5lgxZJ2RA18RegisterAllocation29RewriteRegsToMemoryAndReplaceEPSt6vectorISt10shared_ptrINS_2IS3AAIEESaIS6_EES6_RS2_IP7myTemp_SaISB_EE
FNDA:0,_ZN5lgxZJ2RA18RegisterAllocation23CalculateNodeMemoryAddrEPSt6vectorISt10shared_ptrINS_2IS3AAIEESaIS6_EEP7myTemp_
FNDA:0,_ZN5lgxZJ2RA18RegisterAllocation10RegSpilledEP7myTemp_
FNDA:15,_ZN5lgxZJ2RA18RegisterAllocation14GetRegisterMapEv
FNDA:0,_ZN5lgxZJ2RA18RegisterAllocation6GetInsEv
FNF:63
FNH:43
DA:22,15
DA:24,15
DA:26,15
DA:27,15
DA:28,15
DA:30,15
DA:32,15
DA:33,15
DA:35,305
DA:36,68
DA:37,151
DA:38,16
DA:40,104
DA:41,67
DA:42,37
DA:43,20
DA:44,17
DA:45,16
DA:46,1
DA:47,1
DA:50,15
DA:51,15
DA:52,0
DA:53,15
DA:55,15
DA:57,15
DA:58,15
DA:59,15
DA:60,15
DA:62,15
DA:63,15
DA:65,15
DA:66,15
DA:67,15
DA:68,15
DA:69,15
DA:70,15
DA:72,15
DA:73,15
DA:74,15
DA:75,15
DA:77,15
DA:78,30
DA:80,15
DA:81,15
DA:82,30
DA:83,15
DA:85,17
DA:87,17
DA:92,15
DA:94,15
DA:96,15
DA:97,15
DA:98,15
DA:99,15
DA:101,15
DA:103,15
DA:104,97
DA:106,82
DA:107,82
DA:109,15
DA:111,15
DA:113,97
DA:116,82
DA:117,164
DA:119,82
DA:120,82
DA:122,164
DA:125,82
DA:127,164
DA:128,252
DA:129,170
DA:131,82
DA:132,82
DA:133,15
DA:135,15
DA:137,15
DA:138,97
DA:140,82
DA:142,9
DA:143,7
DA:145,2
DA:149,73
DA:150,44
DA:152,29
DA:155,15
DA:157,148
DA:159,304
DA:161,211
DA:162,55
DA:164,125
DA:166,55
DA:167,23
DA:169,70
DA:174,67
DA:178,67
DA:180,67
DA:182,67
DA:183,67
DA:184,67
DA:186,224
DA:188,157
DA:189,157
DA:191,67
DA:194,0
DA:197,157
DA:200,157
DA:202,8
DA:203,6
DA:205,2
DA:207,8
DA:208,6
DA:210,2
DA:212,157
DA:216,20
DA:219,60
DA:221,35
DA:222,35
DA:223,35
DA:225,35
DA:226,35
DA:228,35
DA:232,15
DA:233,15
DA:236,20
DA:237,20
DA:238,5
DA:241,35
DA:244,35
DA:245,19
DA:249,16
DA:250,16
DA:252,32
DA:253,16
DA:255,16
DA:256,16
DA:257,29
DA:259,13
DA:261,2
DA:263,2
DA:264,0
DA:266,15
DA:268,13
DA:269,7
DA:270,13
DA:271,2
DA:276,16
DA:277,32
DA:280,15
DA:283,15
DA:284,15
DA:286,15
DA:287,15
DA:289,15
DA:290,15
DA:291,15
DA:293,15
DA:295,15
DA:296,15
DA:298,15
DA:300,15
DA:301,15
DA:303,15
DA:304,15
DA:306,15
DA:307,0
DA:308,15
DA:309,4
DA:310,15
DA:312,147
DA:314,245
DA:316,122
DA:317,16
DA:319,214
DA:320,116
DA:321,8
DA:322,98
DA:323,123
DA:326,15
DA:329,15
DA:330,15
DA:332,32
DA:334,32
DA:336,64
DA:337,64
DA:340,64
DA:341,32
DA:343,26
DA:345,26
DA:346,160
DA:348,125
DA:349,17
DA:350,108
DA:353,9
DA:356,15
DA:359,15
DA:362,16
DA:363,1
DA:364,15
DA:366,15
DA:368,15
DA:370,15
DA:372,0
DA:375,0
DA:376,0
DA:378,0
DA:383,15
DA:384,11
DA:385,11
DA:387,15
DA:389,59
DA:391,59
DA:393,91
DA:395,32
DA:396,18
DA:397,9
DA:398,96
DA:399,96
DA:402,2
DA:403,32
DA:404,59
DA:406,70
DA:408,70
DA:409,70
DA:410,44
DA:411,70
DA:413,0
DA:416,0
DA:418,0
DA:421,0
DA:422,0
DA:423,0
DA:428,0
DA:429,0
DA:430,0
DA:432,0
DA:436,16
DA:438,16
DA:439,0
DA:443,16
DA:444,16
DA:445,16
DA:446,16
DA:450,16
DA:452,16
DA:453,16
DA:454,16
DA:456,16
DA:458,16
DA:460,16
DA:462,16
DA:464,36
DA:465,20
DA:467,9
DA:468,1
DA:469,9
DA:470,8
DA:471,16
DA:472,16
DA:474,32
DA:476,32
DA:477,94
DA:479,62
DA:480,10
DA:481,52
DA:482,10
DA:484,42
DA:487,32
DA:488,32
DA:490,128
DA:492,345
DA:493,280
DA:495,65
DA:498,1
DA:500,1
DA:501,1
DA:502,1
DA:504,8
DA:506,8
DA:507,8
DA:508,8
DA:512,1
DA:514,1
DA:517,1
DA:519,1
DA:521,1
DA:523,1
DA:525,0
DA:526,0
DA:530,1
DA:533,1
DA:534,1
DA:535,1
DA:537,1
DA:541,1
DA:543,3
DA:544,4
DA:545,2
DA:547,2
DA:549,3
DA:550,4
DA:551,2
DA:552,1
DA:554,0
DA:556,1
DA:561,15
DA:563,97
DA:565,67
DA:566,67
DA:568,67
DA:569,17
DA:571,50
DA:573,67
DA:575,15
DA:577,17
DA:579,17
DA:580,17
DA:581,17
DA:583,50
DA:585,50
DA:586,50
DA:587,50
DA:589,50
DA:590,0
DA:593,50
DA:594,50
DA:595,50
DA:596,50
DA:598,63
DA:600,172
DA:601,109
DA:602,63
DA:604,50
DA:606,50
DA:608,50
DA:610,9
DA:611,2
DA:613,22
DA:614,13
DA:615,11
DA:617,50
DA:619,109
DA:621,109
DA:624,61
DA:625,29
DA:626,90
DA:627,109
DA:629,50
DA:633,200
DA:634,100
DA:635,350
DA:637,50
DA:638,50
DA:641,209
DA:643,209
DA:645,209
DA:647,614
DA:648,379
DA:649,355
DA:650,336
DA:651,328
DA:652,537
DA:653,164
DA:655,58
DA:657,151
DA:660,61
DA:662,61
DA:664,61
DA:665,46
DA:666,61
DA:668,67
DA:670,67
DA:672,67
DA:674,11
DA:675,3
DA:676,8
DA:677,1
DA:679,26
DA:680,15
DA:681,2
DA:682,13
DA:683,11
DA:685,67
DA:689,0
DA:691,0
DA:693,0
DA:694,0
DA:695,0
DA:697,0
DA:698,0
DA:700,0
DA:702,0
DA:703,0
DA:704,0
DA:705,0
DA:707,0
DA:709,0
DA:710,0
DA:711,0
DA:712,0
DA:713,0
DA:714,0
DA:715,0
DA:716,0
DA:717,0
DA:718,0
DA:719,0
DA:720,0
DA:721,0
DA:722,0
DA:723,0
DA:724,0
DA:726,0
DA:728,0
DA:747,0
DA:748,0
DA:749,0
DA:751,0
DA:752,0
DA:754,0
DA:755,0
DA:756,0
DA:757,0
DA:759,0
DA:760,0
DA:761,0
DA:762,0
DA:763,0
DA:764,0
DA:766,0
DA:767,0
DA:769,0
DA:772,0
DA:773,0
DA:776,0
DA:778,0
DA:779,0
DA:782,0
DA:784,0
DA:785,0
DA:786,0
DA:789,0
DA:790,0
DA:792,0
DA:795,0
DA:796,0
DA:800,0
DA:802,0
DA:803,0
DA:806,0
DA:807,0
DA:809,0
DA:812,0
DA:813,0
DA:817,0
DA:819,0
DA:820,0
DA:821,0
DA:823,0
DA:825,0
DA:826,0
DA:828,0
DA:830,0
DA:831,0
DA:833,0
DA:846,0
DA:847,0
DA:848,0
DA:850,0
DA:852,0
DA:853,0
DA:857,0
DA:859,0
DA:860,0
DA:863,0
DA:864,0
DA:866,0
DA:868,0
DA:869,0
DA:871,0
DA:879,0
DA:880,0
DA:881,0
DA:882,0
DA:883,0
DA:885,0
DA:887,0
DA:889,0
DA:890,0
DA:892,0
DA:893,0
DA:895,0
DA:897,0
DA:898,0
DA:902,0
DA:904,0
DA:905,0
DA:907,0
DA:909,0
DA:924,0
DA:925,0
DA:926,0
DA:928,0
DA:943,0
DA:944,0
DA:945,0
DA:947,0
DA:948,0
DA:949,0
DA:950,0
DA:952,0
DA:955,0
DA:957,0
DA:958,0
DA:959,0
DA:960,0
DA:962,0
DA:964,0
DA:967,0
DA:968,0
DA:971,0
DA:972,0
DA:974,0
DA:977,0
DA:979,0
DA:980,0
DA:985,15
DA:987,15
DA:988,97
DA:990,82
DA:993,15
DA:998,0
DA:1000,0
LF:533
LH:365
end_of_record
