TN:
SF:/usr/include/c++/4.8/bits/basic_string.h
FN:272,_ZNSs12_Alloc_hiderD2Ev
FNDA:0,_ZNSs12_Alloc_hiderD2Ev
FNF:1
FNH:0
DA:272,0
LF:1
LH:0
end_of_record
SF:/usr/include/c++/4.8/ext/atomicity.h
FN:48,_ZN9__gnu_cxxL18__exchange_and_addEPVii
FN:65,_ZN9__gnu_cxxL25__exchange_and_add_singleEPii
FN:78,_ZN9__gnu_cxxL27__exchange_and_add_dispatchEPii
FNDA:0,_ZN9__gnu_cxxL18__exchange_and_addEPVii
FNDA:0,_ZN9__gnu_cxxL25__exchange_and_add_singleEPii
FNDA:0,_ZN9__gnu_cxxL27__exchange_and_add_dispatchEPii
FNF:3
FNH:0
DA:48,0
DA:49,0
DA:65,0
DA:67,0
DA:68,0
DA:69,0
DA:78,0
DA:81,0
DA:82,0
DA:84,0
LF:10
LH:0
end_of_record
SF:/usr/include/c++/4.8/ext/new_allocator.h
FN:79,_ZN9__gnu_cxx13new_allocatorIcEC2Ev
FN:81,_ZN9__gnu_cxx13new_allocatorIcEC2ERKS1_
FN:86,_ZN9__gnu_cxx13new_allocatorIcED2Ev
FNDA:0,_ZN9__gnu_cxx13new_allocatorIcEC2Ev
FNDA:0,_ZN9__gnu_cxx13new_allocatorIcEC2ERKS1_
FNDA:0,_ZN9__gnu_cxx13new_allocatorIcED2Ev
FNF:3
FNH:0
DA:79,0
DA:81,0
DA:86,0
LF:3
LH:0
end_of_record
SF:/usr/include/c++/4.8/x86_64-suse-linux/bits/gthr-default.h
FN:247,_ZL18__gthread_active_pv
FNDA:0,_ZL18__gthread_active_pv
FNF:1
FNH:0
DA:247,0
DA:251,0
LF:2
LH:0
end_of_record
SF:/home/lgxZJ/Desktop/Tiger-Compiler/Compiler/AAI/myAaiBase.h
FN:39,_ZN5lgxZJ2IS3AAIC2Ev
FN:59,_ZNK5lgxZJ2IS3AAI11GetDstLabelEv
FN:60,_ZNK5lgxZJ2IS3AAI11GetDefLabelEv
FN:62,_ZN5lgxZJ2IS3AAI10ReplaceRegEP7myTemp_S3_
FN:69,_ZN5lgxZJ2IS17TwoOperandOperateC2Ev
FN:99,_ZN5lgxZJ2IS17OneOperandOperateC2Ev
FNDA:0,_ZN5lgxZJ2IS3AAIC2Ev
FNDA:0,_ZNK5lgxZJ2IS3AAI11GetDstLabelEv
FNDA:0,_ZNK5lgxZJ2IS3AAI11GetDefLabelEv
FNDA:0,_ZN5lgxZJ2IS3AAI10ReplaceRegEP7myTemp_S3_
FNDA:6,_ZN5lgxZJ2IS17TwoOperandOperateC2Ev
FNDA:4,_ZN5lgxZJ2IS17OneOperandOperateC2Ev
FNF:6
FNH:2
DA:39,0
DA:59,0
DA:60,0
DA:62,0
DA:69,6
DA:99,4
LF:6
LH:2
end_of_record
SF:/home/lgxZJ/Desktop/Tiger-Compiler/Compiler/AAI/myComputable.cpp
FN:14,_ZN5lgxZJ2IS3AddC2EP7myTemp_S3_
FN:14,_ZN5lgxZJ2IS3AddC2EP7myTemp_i
FN:16,_ZNK5lgxZJ2IS3Add8ToStringEv
FN:21,_ZNK5lgxZJ2IS3Add6ToCodeERSt3mapIP7myTemp_S4_St4lessIS4_ESaISt4pairIKS4_S4_EEE
FN:30,_ZN5lgxZJ2IS3SubC2EP7myTemp_S3_
FN:30,_ZN5lgxZJ2IS3SubC2EP7myTemp_i
FN:32,_ZNK5lgxZJ2IS3Sub8ToStringEv
FN:37,_ZNK5lgxZJ2IS3Sub6ToCodeERSt3mapIP7myTemp_S4_St4lessIS4_ESaISt4pairIKS4_S4_EEE
FN:46,_ZN5lgxZJ2IS4IMulC2EP7myTemp_
FN:52,_ZNK5lgxZJ2IS4IMul8ToStringEv
FN:57,_ZNK5lgxZJ2IS4IMul6ToCodeERSt3mapIP7myTemp_S4_St4lessIS4_ESaISt4pairIKS4_S4_EEE
FN:66,_ZN5lgxZJ2IS4IDivC2EP7myTemp_
FN:72,_ZNK5lgxZJ2IS4IDiv8ToStringEv
FN:77,_ZNK5lgxZJ2IS4IDiv6ToCodeERSt3mapIP7myTemp_S4_St4lessIS4_ESaISt4pairIKS4_S4_EEE
FN:86,_ZN5lgxZJ2IS3XorC2EP7myTemp_i
FN:86,_ZN5lgxZJ2IS3XorC2EP7myTemp_S3_
FN:88,_ZNK5lgxZJ2IS3Xor8ToStringEv
FN:93,_ZNK5lgxZJ2IS3Xor6ToCodeERSt3mapIP7myTemp_S4_St4lessIS4_ESaISt4pairIKS4_S4_EEE
FNDA:1,_ZN5lgxZJ2IS3AddC2EP7myTemp_i
FNDA:1,_ZN5lgxZJ2IS3AddC2EP7myTemp_S3_
FNDA:0,_ZNK5lgxZJ2IS3Add8ToStringEv
FNDA:0,_ZNK5lgxZJ2IS3Add6ToCodeERSt3mapIP7myTemp_S4_St4lessIS4_ESaISt4pairIKS4_S4_EEE
FNDA:1,_ZN5lgxZJ2IS3SubC2EP7myTemp_i
FNDA:1,_ZN5lgxZJ2IS3SubC2EP7myTemp_S3_
FNDA:0,_ZNK5lgxZJ2IS3Sub8ToStringEv
FNDA:0,_ZNK5lgxZJ2IS3Sub6ToCodeERSt3mapIP7myTemp_S4_St4lessIS4_ESaISt4pairIKS4_S4_EEE
FNDA:2,_ZN5lgxZJ2IS4IMulC2EP7myTemp_
FNDA:0,_ZNK5lgxZJ2IS4IMul8ToStringEv
FNDA:0,_ZNK5lgxZJ2IS4IMul6ToCodeERSt3mapIP7myTemp_S4_St4lessIS4_ESaISt4pairIKS4_S4_EEE
FNDA:2,_ZN5lgxZJ2IS4IDivC2EP7myTemp_
FNDA:0,_ZNK5lgxZJ2IS4IDiv8ToStringEv
FNDA:0,_ZNK5lgxZJ2IS4IDiv6ToCodeERSt3mapIP7myTemp_S4_St4lessIS4_ESaISt4pairIKS4_S4_EEE
FNDA:1,_ZN5lgxZJ2IS3XorC2EP7myTemp_i
FNDA:1,_ZN5lgxZJ2IS3XorC2EP7myTemp_S3_
FNDA:0,_ZNK5lgxZJ2IS3Xor8ToStringEv
FNDA:0,_ZNK5lgxZJ2IS3Xor6ToCodeERSt3mapIP7myTemp_S4_St4lessIS4_ESaISt4pairIKS4_S4_EEE
FNF:18
FNH:8
DA:14,2
DA:16,0
DA:18,0
DA:21,0
DA:23,0
DA:30,2
DA:32,0
DA:34,0
DA:37,0
DA:39,0
DA:46,2
DA:48,2
DA:49,2
DA:50,2
DA:52,0
DA:54,0
DA:57,0
DA:59,0
DA:66,2
DA:68,2
DA:69,2
DA:70,2
DA:72,0
DA:74,0
DA:77,0
DA:79,0
DA:86,2
DA:88,0
DA:90,0
DA:93,0
DA:95,0
LF:31
LH:11
end_of_record
