TN:
SF:/usr/include/c++/4.8/bits/alloc_traits.h
FN:253,_ZNSt16allocator_traitsISaIP7myTemp_EE12_S_constructIS1_IRKS1_EEENSt9enable_ifIXsrNS3_18__construct_helperIT_IDpT0_EEE5valueEvE4typeERS2_PS9_DpOSA_
FN:280,_ZNSt16allocator_traitsISaIP7myTemp_EE10_S_destroyIS1_EENSt9enable_ifIXsrNS3_16__destroy_helperIT_EE5valueEvE4typeERS2_PS7_
FN:305,_ZNSt16allocator_traitsISaIP7myTemp_EE11_S_max_sizeIKS2_EENSt9enable_ifIXsrNS3_16__maxsize_helperIT_EE5valueEmE4typeERS8_
FN:391,_ZNSt16allocator_traitsISaIP7myTemp_EE9constructIS1_IRKS1_EEEDTcl12_S_constructfp_fp0_spcl7forwardIT0_Efp1_EEERS2_PT_DpOS7_
FN:404,_ZNSt16allocator_traitsISaIP7myTemp_EE7destroyIS1_EEvRS2_PT_
FN:415,_ZNSt16allocator_traitsISaIP7myTemp_EE8max_sizeERKS2_
FNDA:0,_ZNSt16allocator_traitsISaIP7myTemp_EE12_S_constructIS1_IRKS1_EEENSt9enable_ifIXsrNS3_18__construct_helperIT_IDpT0_EEE5valueEvE4typeERS2_PS9_DpOSA_
FNDA:0,_ZNSt16allocator_traitsISaIP7myTemp_EE10_S_destroyIS1_EENSt9enable_ifIXsrNS3_16__destroy_helperIT_EE5valueEvE4typeERS2_PS7_
FNDA:0,_ZNSt16allocator_traitsISaIP7myTemp_EE11_S_max_sizeIKS2_EENSt9enable_ifIXsrNS3_16__maxsize_helperIT_EE5valueEmE4typeERS8_
FNDA:0,_ZNSt16allocator_traitsISaIP7myTemp_EE9constructIS1_IRKS1_EEEDTcl12_S_constructfp_fp0_spcl7forwardIT0_Efp1_EEERS2_PT_DpOS7_
FNDA:0,_ZNSt16allocator_traitsISaIP7myTemp_EE7destroyIS1_EEvRS2_PT_
FNDA:0,_ZNSt16allocator_traitsISaIP7myTemp_EE8max_sizeERKS2_
FNF:6
FNH:0
DA:253,0
DA:254,0
DA:280,0
DA:281,0
DA:305,0
DA:306,0
DA:391,0
DA:393,0
DA:404,0
DA:405,0
DA:415,0
DA:416,0
LF:12
LH:0
end_of_record
SF:/usr/include/c++/4.8/bits/allocator.h
FN:113,_ZNSaIP7myTemp_EC2Ev
FN:115,_ZNSaIP7myTemp_EC2ERKS1_
FN:121,_ZNSaIP7myTemp_ED2Ev
FN:133,_ZSteqIcEbRKSaIT_ES3_
FNDA:0,_ZNSaIP7myTemp_EC2Ev
FNDA:0,_ZNSaIP7myTemp_EC2ERKS1_
FNDA:0,_ZNSaIP7myTemp_ED2Ev
FNDA:0,_ZSteqIcEbRKSaIT_ES3_
FNF:4
FNH:0
DA:113,0
DA:115,0
DA:116,0
DA:121,0
DA:133,0
DA:134,0
LF:6
LH:0
end_of_record
SF:/usr/include/c++/4.8/bits/basic_string.h
FN:272,_ZNSs12_Alloc_hiderD2Ev
FN:272,_ZNSs12_Alloc_hiderC2ERKS_
FN:1721,_ZNSs16_S_construct_auxIPcEES0_T_S1_RKSaIcESt12__false_type
FN:1743,_ZNSs12_S_constructIPcEES0_T_S1_RKSaIcE
FN:2402,_ZStplIcSt11char_traitsIcESaIcEESbIT_T0_T1_ERKS6_PKS3_
FN:2430,_ZStplIcSt11char_traitsIcESaIcEESbIT_T0_T1_EOS6_RKS6_
FN:2442,_ZStplIcSt11char_traitsIcESaIcEESbIT_T0_T1_EOS6_S7_
FN:2454,_ZStplIcSt11char_traitsIcESaIcEESbIT_T0_T1_EPKS3_OS6_
FN:2466,_ZStplIcSt11char_traitsIcESaIcEESbIT_T0_T1_EOS6_PKS3_
FN:2864,_ZSt9to_stringi
FNDA:0,_ZNSs12_Alloc_hiderC2ERKS_
FNDA:0,_ZNSs12_Alloc_hiderD2Ev
FNDA:0,_ZNSs16_S_construct_auxIPcEES0_T_S1_RKSaIcESt12__false_type
FNDA:0,_ZNSs12_S_constructIPcEES0_T_S1_RKSaIcE
FNDA:0,_ZStplIcSt11char_traitsIcESaIcEESbIT_T0_T1_ERKS6_PKS3_
FNDA:0,_ZStplIcSt11char_traitsIcESaIcEESbIT_T0_T1_EOS6_RKS6_
FNDA:0,_ZStplIcSt11char_traitsIcESaIcEESbIT_T0_T1_EOS6_S7_
FNDA:0,_ZStplIcSt11char_traitsIcESaIcEESbIT_T0_T1_EPKS3_OS6_
FNDA:0,_ZStplIcSt11char_traitsIcESaIcEESbIT_T0_T1_EOS6_PKS3_
FNDA:0,_ZSt9to_stringi
FNF:10
FNH:0
DA:272,0
DA:1721,0
DA:1725,0
DA:1743,0
DA:1746,0
DA:2402,0
DA:2405,0
DA:2406,0
DA:2407,0
DA:2430,0
DA:2432,0
DA:2442,0
DA:2445,0
DA:2446,0
DA:2447,0
DA:2448,0
DA:2449,0
DA:2454,0
DA:2456,0
DA:2466,0
DA:2468,0
DA:2864,0
DA:2866,0
LF:23
LH:0
end_of_record
SF:/usr/include/c++/4.8/bits/basic_string.tcc
FN:123,_ZNSs12_S_constructIPcEES0_T_S1_RKSaIcESt20forward_iterator_tag
FN:227,_ZNSsC2IPcEET_S1_RKSaIcE
FNDA:0,_ZNSs12_S_constructIPcEES0_T_S1_RKSaIcESt20forward_iterator_tag
FNDA:0,_ZNSsC2IPcEET_S1_RKSaIcE
FNF:2
FNH:0
DA:123,0
DA:128,0
DA:129,0
DA:132,0
DA:133,0
DA:136,0
DA:138,0
DA:140,0
DA:141,0
DA:143,0
DA:144,0
DA:146,0
DA:147,0
DA:227,0
DA:229,0
DA:230,0
LF:16
LH:0
end_of_record
SF:/usr/include/c++/4.8/bits/char_traits.h
FN:242,_ZNSt11char_traitsIcE6assignERcRKc
FN:258,_ZNSt11char_traitsIcE6lengthEPKc
FN:270,_ZNSt11char_traitsIcE4copyEPcPKcm
FNDA:0,_ZNSt11char_traitsIcE6assignERcRKc
FNDA:0,_ZNSt11char_traitsIcE6lengthEPKc
FNDA:0,_ZNSt11char_traitsIcE4copyEPcPKcm
FNF:3
FNH:0
DA:242,0
DA:243,0
DA:258,0
DA:259,0
DA:270,0
DA:271,0
LF:6
LH:0
end_of_record
SF:/usr/include/c++/4.8/bits/move.h
FN:76,_ZSt7forwardIRKP7myTemp_EOT_RNSt16remove_referenceIS4_E4typeE
FN:101,_ZSt4moveIRSsEONSt16remove_referenceIT_E4typeEOS2_
FNDA:0,_ZSt7forwardIRKP7myTemp_EOT_RNSt16remove_referenceIS4_E4typeE
FNDA:0,_ZSt4moveIRSsEONSt16remove_referenceIT_E4typeEOS2_
FNF:2
FNH:0
DA:76,0
DA:77,0
DA:101,0
DA:102,0
LF:4
LH:0
end_of_record
SF:/usr/include/c++/4.8/bits/stl_algobase.h
FN:216,_ZSt3maxImERKT_S2_S2_
FN:277,_ZSt12__niter_baseIPP7myTemp_ENSt11_Niter_baseIT_E13iterator_typeES4_
FN:288,_ZSt12__miter_baseISt13move_iteratorIPP7myTemp_EENSt11_Miter_baseIT_E13iterator_typeES6_
FN:368,_ZNSt11__copy_moveILb1ELb1ESt26random_access_iterator_tagE8__copy_mIP7myTemp_EEPT_PKS5_S8_S6_
FN:379,_ZSt13__copy_move_aILb1EPP7myTemp_S2_ET1_T0_S4_S3_
FN:424,_ZSt14__copy_move_a2ILb1EPP7myTemp_S2_ET1_T0_S4_S3_
FN:450,_ZSt4copyISt13move_iteratorIPP7myTemp_ES3_ET0_T_S6_S5_
FN:746,_ZSt10__fill_n_aIPP7myTemp_mS1_EN9__gnu_cxx11__enable_ifIXsrSt11__is_scalarIT1_E7__valueET_E6__typeES8_T0_RKS6_
FN:781,_ZSt6fill_nIPP7myTemp_mS1_ET_S3_T0_RKT1_
FNDA:0,_ZSt3maxImERKT_S2_S2_
FNDA:0,_ZSt12__niter_baseIPP7myTemp_ENSt11_Niter_baseIT_E13iterator_typeES4_
FNDA:0,_ZSt12__miter_baseISt13move_iteratorIPP7myTemp_EENSt11_Miter_baseIT_E13iterator_typeES6_
FNDA:0,_ZNSt11__copy_moveILb1ELb1ESt26random_access_iterator_tagE8__copy_mIP7myTemp_EEPT_PKS5_S8_S6_
FNDA:0,_ZSt13__copy_move_aILb1EPP7myTemp_S2_ET1_T0_S4_S3_
FNDA:0,_ZSt14__copy_move_a2ILb1EPP7myTemp_S2_ET1_T0_S4_S3_
FNDA:0,_ZSt4copyISt13move_iteratorIPP7myTemp_ES3_ET0_T_S6_S5_
FNDA:0,_ZSt10__fill_n_aIPP7myTemp_mS1_EN9__gnu_cxx11__enable_ifIXsrSt11__is_scalarIT1_E7__valueET_E6__typeES8_T0_RKS6_
FNDA:0,_ZSt6fill_nIPP7myTemp_mS1_ET_S3_T0_RKT1_
FNF:9
FNH:0
DA:216,0
DA:221,0
DA:222,0
DA:223,0
DA:277,0
DA:278,0
DA:288,0
DA:289,0
DA:368,0
DA:370,0
DA:371,0
DA:372,0
DA:373,0
DA:379,0
DA:387,0
DA:390,0
DA:424,0
DA:428,0
DA:450,0
DA:460,0
DA:746,0
DA:748,0
DA:749,0
DA:751,0
DA:752,0
DA:781,0
DA:786,0
LF:27
LH:0
end_of_record
SF:/usr/include/c++/4.8/bits/stl_construct.h
FN:112,_ZNSt12_Destroy_auxILb1EE9__destroyIPP7myTemp_EEvT_S5_
FN:122,_ZSt8_DestroyIPP7myTemp_EvT_S3_
FN:148,_ZSt8_DestroyIPP7myTemp_S1_EvT_S3_RSaIT0_E
FNDA:0,_ZNSt12_Destroy_auxILb1EE9__destroyIPP7myTemp_EEvT_S5_
FNDA:0,_ZSt8_DestroyIPP7myTemp_EvT_S3_
FNDA:0,_ZSt8_DestroyIPP7myTemp_S1_EvT_S3_RSaIT0_E
FNF:3
FNH:0
DA:112,0
DA:122,0
DA:126,0
DA:128,0
DA:148,0
DA:151,0
DA:152,0
LF:7
LH:0
end_of_record
SF:/usr/include/c++/4.8/bits/stl_iterator.h
FN:950,_ZNSt13move_iteratorIPP7myTemp_EC2ES2_
FN:958,_ZNKSt13move_iteratorIPP7myTemp_E4baseEv
FN:1132,_ZSt32__make_move_if_noexcept_iteratorIPP7myTemp_St13move_iteratorIS2_EET0_T_
FNDA:0,_ZNSt13move_iteratorIPP7myTemp_EC2ES2_
FNDA:0,_ZNKSt13move_iteratorIPP7myTemp_E4baseEv
FNDA:0,_ZSt32__make_move_if_noexcept_iteratorIPP7myTemp_St13move_iteratorIS2_EET0_T_
FNF:3
FNH:0
DA:950,0
DA:951,0
DA:958,0
DA:959,0
DA:1132,0
DA:1133,0
LF:6
LH:0
end_of_record
SF:/usr/include/c++/4.8/bits/stl_iterator_base_funcs.h
FN:90,_ZSt10__distanceIPcENSt15iterator_traitsIT_E15difference_typeES2_S2_St26random_access_iterator_tag
FN:114,_ZSt8distanceIPcENSt15iterator_traitsIT_E15difference_typeES2_S2_
FNDA:0,_ZSt10__distanceIPcENSt15iterator_traitsIT_E15difference_typeES2_S2_St26random_access_iterator_tag
FNDA:0,_ZSt8distanceIPcENSt15iterator_traitsIT_E15difference_typeES2_S2_
FNF:2
FNH:0
DA:90,0
DA:96,0
DA:114,0
DA:118,0
LF:4
LH:0
end_of_record
SF:/usr/include/c++/4.8/bits/stl_iterator_base_types.h
FN:201,_ZSt19__iterator_categoryIPcENSt15iterator_traitsIT_E17iterator_categoryERKS2_
FN:212,_ZNSt10_Iter_baseIPP7myTemp_Lb0EE7_S_baseES2_
FN:220,_ZNSt10_Iter_baseISt13move_iteratorIPP7myTemp_ELb1EE7_S_baseES4_
FNDA:0,_ZSt19__iterator_categoryIPcENSt15iterator_traitsIT_E17iterator_categoryERKS2_
FNDA:0,_ZNSt10_Iter_baseIPP7myTemp_Lb0EE7_S_baseES2_
FNDA:0,_ZNSt10_Iter_baseISt13move_iteratorIPP7myTemp_ELb1EE7_S_baseES4_
FNF:3
FNH:0
DA:201,0
DA:202,0
DA:212,0
DA:213,0
DA:220,0
DA:221,0
LF:6
LH:0
end_of_record
SF:/usr/include/c++/4.8/bits/stl_uninitialized.h
FN:91,_ZNSt20__uninitialized_copyILb1EE13__uninit_copyISt13move_iteratorIPP7myTemp_ES5_EET0_T_S8_S7_
FN:107,_ZSt18uninitialized_copyISt13move_iteratorIPP7myTemp_ES3_ET0_T_S6_S5_
FN:202,_ZNSt22__uninitialized_fill_nILb1EE15__uninit_fill_nIPP7myTemp_mS3_EEvT_T0_RKT1_
FN:218,_ZSt20uninitialized_fill_nIPP7myTemp_mS1_EvT_T0_RKT1_
FN:256,_ZSt22__uninitialized_copy_aISt13move_iteratorIPP7myTemp_ES3_S2_ET0_T_S6_S5_RSaIT1_E
FN:274,_ZSt34__uninitialized_move_if_noexcept_aIPP7myTemp_S2_SaIS1_EET0_T_S5_S4_RT1_
FN:332,_ZSt24__uninitialized_fill_n_aIPP7myTemp_mS1_S1_EvT_T0_RKT1_RSaIT2_E
FNDA:0,_ZNSt20__uninitialized_copyILb1EE13__uninit_copyISt13move_iteratorIPP7myTemp_ES5_EET0_T_S8_S7_
FNDA:0,_ZSt18uninitialized_copyISt13move_iteratorIPP7myTemp_ES3_ET0_T_S6_S5_
FNDA:0,_ZNSt22__uninitialized_fill_nILb1EE15__uninit_fill_nIPP7myTemp_mS3_EEvT_T0_RKT1_
FNDA:0,_ZSt20uninitialized_fill_nIPP7myTemp_mS1_EvT_T0_RKT1_
FNDA:0,_ZSt22__uninitialized_copy_aISt13move_iteratorIPP7myTemp_ES3_S2_ET0_T_S6_S5_RSaIT1_E
FNDA:0,_ZSt34__uninitialized_move_if_noexcept_aIPP7myTemp_S2_SaIS1_EET0_T_S5_S4_RT1_
FNDA:0,_ZSt24__uninitialized_fill_n_aIPP7myTemp_mS1_S1_EvT_T0_RKT1_RSaIT2_E
FNF:7
FNH:0
DA:91,0
DA:93,0
DA:107,0
DA:117,0
DA:202,0
DA:204,0
DA:218,0
DA:223,0
DA:225,0
DA:256,0
DA:258,0
DA:274,0
DA:281,0
DA:332,0
DA:334,0
LF:15
LH:0
end_of_record
SF:/usr/include/c++/4.8/bits/stl_vector.h
FN:79,_ZNSt12_Vector_baseIP7myTemp_SaIS1_EE12_Vector_implD2Ev
FN:86,_ZNSt12_Vector_baseIP7myTemp_SaIS1_EE12_Vector_implC2Ev
FN:90,_ZNSt12_Vector_baseIP7myTemp_SaIS1_EE12_Vector_implC2ERKS2_
FN:113,_ZNSt12_Vector_baseIP7myTemp_SaIS1_EE19_M_get_Tp_allocatorEv
FN:117,_ZNKSt12_Vector_baseIP7myTemp_SaIS1_EE19_M_get_Tp_allocatorEv
FN:124,_ZNSt12_Vector_baseIP7myTemp_SaIS1_EEC2Ev
FN:134,_ZNSt12_Vector_baseIP7myTemp_SaIS1_EEC2EmRKS2_
FN:159,_ZNSt12_Vector_baseIP7myTemp_SaIS1_EED2Ev
FN:167,_ZNSt12_Vector_baseIP7myTemp_SaIS1_EE11_M_allocateEm
FN:171,_ZNSt12_Vector_baseIP7myTemp_SaIS1_EE13_M_deallocateEPS1_m
FN:179,_ZNSt12_Vector_baseIP7myTemp_SaIS1_EE17_M_create_storageEm
FN:248,_ZNSt6vectorIP7myTemp_SaIS1_EEC2Ev
FN:281,_ZNSt6vectorIP7myTemp_SaIS1_EEC2EmRKS1_RKS2_
FN:414,_ZNSt6vectorIP7myTemp_SaIS1_EED2Ev
FN:645,_ZNKSt6vectorIP7myTemp_SaIS1_EE4sizeEv
FN:650,_ZNKSt6vectorIP7myTemp_SaIS1_EE8max_sizeEv
FN:901,_ZNSt6vectorIP7myTemp_SaIS1_EE9push_backERKS1_
FN:1212,_ZNSt6vectorIP7myTemp_SaIS1_EE18_M_fill_initializeEmRKS1_
FN:1336,_ZNKSt6vectorIP7myTemp_SaIS1_EE12_M_check_lenEmPKc
FNDA:0,_ZNSt12_Vector_baseIP7myTemp_SaIS1_EE12_Vector_implD2Ev
FNDA:0,_ZNSt12_Vector_baseIP7myTemp_SaIS1_EE12_Vector_implC2Ev
FNDA:0,_ZNSt12_Vector_baseIP7myTemp_SaIS1_EE12_Vector_implC2ERKS2_
FNDA:0,_ZNSt12_Vector_baseIP7myTemp_SaIS1_EE19_M_get_Tp_allocatorEv
FNDA:0,_ZNKSt12_Vector_baseIP7myTemp_SaIS1_EE19_M_get_Tp_allocatorEv
FNDA:0,_ZNSt12_Vector_baseIP7myTemp_SaIS1_EEC2Ev
FNDA:0,_ZNSt12_Vector_baseIP7myTemp_SaIS1_EEC2EmRKS2_
FNDA:0,_ZNSt12_Vector_baseIP7myTemp_SaIS1_EED2Ev
FNDA:0,_ZNSt12_Vector_baseIP7myTemp_SaIS1_EE11_M_allocateEm
FNDA:0,_ZNSt12_Vector_baseIP7myTemp_SaIS1_EE13_M_deallocateEPS1_m
FNDA:0,_ZNSt12_Vector_baseIP7myTemp_SaIS1_EE17_M_create_storageEm
FNDA:0,_ZNSt6vectorIP7myTemp_SaIS1_EEC2Ev
FNDA:0,_ZNSt6vectorIP7myTemp_SaIS1_EEC2EmRKS1_RKS2_
FNDA:0,_ZNSt6vectorIP7myTemp_SaIS1_EED2Ev
FNDA:0,_ZNKSt6vectorIP7myTemp_SaIS1_EE4sizeEv
FNDA:0,_ZNKSt6vectorIP7myTemp_SaIS1_EE8max_sizeEv
FNDA:0,_ZNSt6vectorIP7myTemp_SaIS1_EE9push_backERKS1_
FNDA:0,_ZNSt6vectorIP7myTemp_SaIS1_EE18_M_fill_initializeEmRKS1_
FNDA:0,_ZNKSt6vectorIP7myTemp_SaIS1_EE12_M_check_lenEmPKc
FNF:19
FNH:0
DA:79,0
DA:86,0
DA:87,0
DA:88,0
DA:90,0
DA:91,0
DA:92,0
DA:113,0
DA:114,0
DA:117,0
DA:118,0
DA:124,0
DA:125,0
DA:134,0
DA:135,0
DA:136,0
DA:159,0
DA:160,0
DA:161,0
DA:167,0
DA:168,0
DA:171,0
DA:173,0
DA:174,0
DA:175,0
DA:179,0
DA:181,0
DA:182,0
DA:183,0
DA:184,0
DA:248,0
DA:249,0
DA:281,0
DA:283,0
DA:284,0
DA:414,0
DA:415,0
DA:416,0
DA:645,0
DA:646,0
DA:650,0
DA:651,0
DA:901,0
DA:903,0
DA:905,0
DA:906,0
DA:907,0
DA:911,0
DA:915,0
DA:1212,0
DA:1214,0
DA:1215,0
DA:1216,0
DA:1217,0
DA:1336,0
DA:1338,0
DA:1339,0
DA:1341,0
DA:1342,0
LF:59
LH:0
end_of_record
SF:/usr/include/c++/4.8/bits/vector.tcc
FN:399,_ZNSt6vectorIP7myTemp_SaIS1_EE19_M_emplace_back_auxIIRKS1_EEEvDpOT_
FNDA:0,_ZNSt6vectorIP7myTemp_SaIS1_EE19_M_emplace_back_auxIIRKS1_EEEvDpOT_
FNF:1
FNH:0
DA:399,0
DA:403,0
DA:404,0
DA:405,0
DA:408,0
DA:409,0
DA:410,0
DA:412,0
DA:415,0
DA:417,0
DA:419,0
DA:421,0
DA:422,0
DA:424,0
DA:425,0
DA:426,0
DA:428,0
DA:429,0
DA:430,0
DA:432,0
DA:433,0
DA:434,0
DA:435,0
DA:436,0
LF:24
LH:0
end_of_record
SF:/usr/include/c++/4.8/ext/atomicity.h
FN:48,_ZN9__gnu_cxxL18__exchange_and_addEPVii
FN:65,_ZN9__gnu_cxxL25__exchange_and_add_singleEPii
FN:78,_ZN9__gnu_cxxL27__exchange_and_add_dispatchEPii
FNDA:0,_ZN9__gnu_cxxL18__exchange_and_addEPVii
FNDA:0,_ZN9__gnu_cxxL25__exchange_and_add_singleEPii
FNDA:0,_ZN9__gnu_cxxL27__exchange_and_add_dispatchEPii
FNF:3
FNH:0
DA:48,0
DA:49,0
DA:65,0
DA:67,0
DA:68,0
DA:69,0
DA:78,0
DA:81,0
DA:82,0
DA:84,0
LF:10
LH:0
end_of_record
SF:/usr/include/c++/4.8/ext/new_allocator.h
FN:79,_ZN9__gnu_cxx13new_allocatorIP7myTemp_EC2Ev
FN:79,_ZN9__gnu_cxx13new_allocatorIcEC2Ev
FN:81,_ZN9__gnu_cxx13new_allocatorIP7myTemp_EC2ERKS3_
FN:81,_ZN9__gnu_cxx13new_allocatorIcEC2ERKS1_
FN:86,_ZN9__gnu_cxx13new_allocatorIP7myTemp_ED2Ev
FN:86,_ZN9__gnu_cxx13new_allocatorIcED2Ev
FN:99,_ZN9__gnu_cxx13new_allocatorIP7myTemp_E8allocateEmPKv
FN:109,_ZN9__gnu_cxx13new_allocatorIP7myTemp_E10deallocateEPS2_m
FN:113,_ZNK9__gnu_cxx13new_allocatorIP7myTemp_E8max_sizeEv
FN:119,_ZN9__gnu_cxx13new_allocatorIP7myTemp_E9constructIS2_IRKS2_EEEvPT_DpOT0_
FN:124,_ZN9__gnu_cxx13new_allocatorIP7myTemp_E7destroyIS2_EEvPT_
FNDA:0,_ZN9__gnu_cxx13new_allocatorIP7myTemp_EC2Ev
FNDA:0,_ZN9__gnu_cxx13new_allocatorIcEC2Ev
FNDA:0,_ZN9__gnu_cxx13new_allocatorIP7myTemp_EC2ERKS3_
FNDA:0,_ZN9__gnu_cxx13new_allocatorIcEC2ERKS1_
FNDA:0,_ZN9__gnu_cxx13new_allocatorIP7myTemp_ED2Ev
FNDA:0,_ZN9__gnu_cxx13new_allocatorIcED2Ev
FNDA:0,_ZN9__gnu_cxx13new_allocatorIP7myTemp_E8allocateEmPKv
FNDA:0,_ZN9__gnu_cxx13new_allocatorIP7myTemp_E10deallocateEPS2_m
FNDA:0,_ZNK9__gnu_cxx13new_allocatorIP7myTemp_E8max_sizeEv
FNDA:0,_ZN9__gnu_cxx13new_allocatorIP7myTemp_E9constructIS2_IRKS2_EEEvPT_DpOT0_
FNDA:0,_ZN9__gnu_cxx13new_allocatorIP7myTemp_E7destroyIS2_EEvPT_
FNF:11
FNH:0
DA:79,0
DA:81,0
DA:86,0
DA:99,0
DA:101,0
DA:102,0
DA:104,0
DA:109,0
DA:110,0
DA:113,0
DA:114,0
DA:119,0
DA:120,0
DA:124,0
LF:14
LH:0
end_of_record
SF:/usr/include/c++/4.8/ext/string_conversions.h
FN:83,_ZN9__gnu_cxx12__to_xstringISscEET_PFiPT0_mPKS2_P13__va_list_tagEmS5_z
FNDA:0,_ZN9__gnu_cxx12__to_xstringISscEET_PFiPT0_mPKS2_P13__va_list_tagEmS5_z
FNF:1
FNH:0
DA:83,0
DA:90,0
DA:93,0
DA:95,0
DA:97,0
DA:99,0
LF:6
LH:0
end_of_record
SF:/usr/include/c++/4.8/ext/type_traits.h
FN:150,_ZN9__gnu_cxx17__is_null_pointerIcEEbPT_
FNDA:0,_ZN9__gnu_cxx17__is_null_pointerIcEEbPT_
FNF:1
FNH:0
DA:150,0
DA:151,0
LF:2
LH:0
end_of_record
SF:/usr/include/c++/4.8/new
FN:109,_ZnwmPv
FNDA:0,_ZnwmPv
FNF:1
FNH:0
DA:109,0
DA:110,0
LF:2
LH:0
end_of_record
SF:/usr/include/c++/4.8/x86_64-suse-linux/bits/gthr-default.h
FN:247,_ZL18__gthread_active_pv
FNDA:0,_ZL18__gthread_active_pv
FNF:1
FNH:0
DA:247,0
DA:251,0
LF:2
LH:0
end_of_record
SF:/home/lgxZJ/Desktop/Tiger-Compiler/Compiler/AAI/myAaiBase.h
FN:39,_ZN5lgxZJ2IS3AAIC2Ev
FN:59,_ZNK5lgxZJ2IS3AAI11GetDstLabelEv
FN:60,_ZNK5lgxZJ2IS3AAI11GetDefLabelEv
FN:62,_ZN5lgxZJ2IS3AAI10ReplaceRegEP7myTemp_S3_
FN:69,_ZN5lgxZJ2IS17TwoOperandOperateC2Ev
FNDA:0,_ZN5lgxZJ2IS3AAIC2Ev
FNDA:0,_ZNK5lgxZJ2IS3AAI11GetDstLabelEv
FNDA:0,_ZNK5lgxZJ2IS3AAI11GetDefLabelEv
FNDA:0,_ZN5lgxZJ2IS3AAI10ReplaceRegEP7myTemp_S3_
FNDA:0,_ZN5lgxZJ2IS17TwoOperandOperateC2Ev
FNF:5
FNH:0
DA:39,0
DA:59,0
DA:60,0
DA:62,0
DA:69,0
LF:5
LH:0
end_of_record
SF:/home/lgxZJ/Desktop/Tiger-Compiler/Compiler/AAI/myControlable.cpp
FN:39,_ZN5lgxZJ2IS5LabelC2EP9mySymbol_
FN:41,_ZNK5lgxZJ2IS5Label8ToStringEv
FN:46,_ZNK5lgxZJ2IS5Label6ToCodeERSt3mapIP7myTemp_S4_St4lessIS4_ESaISt4pairIKS4_S4_EEE
FN:55,_ZN5lgxZJ2IS3CmpC2EP7myTemp_S3_
FN:55,_ZN5lgxZJ2IS3CmpC2EP7myTemp_i
FN:57,_ZNK5lgxZJ2IS3Cmp8ToStringEv
FN:62,_ZNK5lgxZJ2IS3Cmp6ToCodeERSt3mapIP7myTemp_S4_St4lessIS4_ESaISt4pairIKS4_S4_EEE
FN:67,_ZNK5lgxZJ2IS3Cmp10GetDstRegsEv
FN:72,_ZNK5lgxZJ2IS3Cmp10GetSrcRegsEv
FN:86,_ZN5lgxZJ2IS3JmpC2EP9mySymbol_
FN:86,_ZNK5lgxZJ2IS3Jmp6ToCodeERSt3mapIP7myTemp_S4_St4lessIS4_ESaISt4pairIKS4_S4_EEE
FN:86,_ZNK5lgxZJ2IS3Jmp8ToStringEv
FN:92,_ZNK5lgxZJ2IS2Je6ToCodeERSt3mapIP7myTemp_S4_St4lessIS4_ESaISt4pairIKS4_S4_EEE
FN:92,_ZNK5lgxZJ2IS2Je8ToStringEv
FN:92,_ZN5lgxZJ2IS2JeC2EP9mySymbol_
FN:98,_ZNK5lgxZJ2IS3Jne8ToStringEv
FN:98,_ZNK5lgxZJ2IS3Jne6ToCodeERSt3mapIP7myTemp_S4_St4lessIS4_ESaISt4pairIKS4_S4_EEE
FN:98,_ZN5lgxZJ2IS3JneC2EP9mySymbol_
FN:104,_ZN5lgxZJ2IS2JgC2EP9mySymbol_
FN:104,_ZNK5lgxZJ2IS2Jg8ToStringEv
FN:104,_ZNK5lgxZJ2IS2Jg6ToCodeERSt3mapIP7myTemp_S4_St4lessIS4_ESaISt4pairIKS4_S4_EEE
FN:110,_ZN5lgxZJ2IS3JgeC2EP9mySymbol_
FN:110,_ZNK5lgxZJ2IS3Jge8ToStringEv
FN:110,_ZNK5lgxZJ2IS3Jge6ToCodeERSt3mapIP7myTemp_S4_St4lessIS4_ESaISt4pairIKS4_S4_EEE
FN:116,_ZNK5lgxZJ2IS2Jl6ToCodeERSt3mapIP7myTemp_S4_St4lessIS4_ESaISt4pairIKS4_S4_EEE
FN:116,_ZN5lgxZJ2IS2JlC2EP9mySymbol_
FN:116,_ZNK5lgxZJ2IS2Jl8ToStringEv
FN:122,_ZNK5lgxZJ2IS3Jle6ToCodeERSt3mapIP7myTemp_S4_St4lessIS4_ESaISt4pairIKS4_S4_EEE
FN:122,_ZN5lgxZJ2IS3JleC2EP9mySymbol_
FN:122,_ZNK5lgxZJ2IS3Jle8ToStringEv
FN:128,_ZN5lgxZJ2IS4CallC2EPcP11myTempList_
FN:132,_ZNK5lgxZJ2IS4Call8ToStringEv
FN:145,_ZNK5lgxZJ2IS4Call6ToCodeERSt3mapIP7myTemp_S4_St4lessIS4_ESaISt4pairIKS4_S4_EEE
FN:169,_ZNK5lgxZJ2IS4Call10GetDstRegsEv
FN:183,_ZNK5lgxZJ2IS4Call10GetSrcRegsEv
FN:195,_ZN5lgxZJ2IS4Call10ReplaceRegEP7myTemp_S3_
FNDA:1,_ZN5lgxZJ2IS5LabelC2EP9mySymbol_
FNDA:0,_ZNK5lgxZJ2IS5Label8ToStringEv
FNDA:0,_ZNK5lgxZJ2IS5Label6ToCodeERSt3mapIP7myTemp_S4_St4lessIS4_ESaISt4pairIKS4_S4_EEE
FNDA:0,_ZN5lgxZJ2IS3CmpC2EP7myTemp_i
FNDA:0,_ZN5lgxZJ2IS3CmpC2EP7myTemp_S3_
FNDA:0,_ZNK5lgxZJ2IS3Cmp8ToStringEv
FNDA:0,_ZNK5lgxZJ2IS3Cmp6ToCodeERSt3mapIP7myTemp_S4_St4lessIS4_ESaISt4pairIKS4_S4_EEE
FNDA:0,_ZNK5lgxZJ2IS3Cmp10GetDstRegsEv
FNDA:0,_ZNK5lgxZJ2IS3Cmp10GetSrcRegsEv
FNDA:0,_ZNK5lgxZJ2IS3Jmp6ToCodeERSt3mapIP7myTemp_S4_St4lessIS4_ESaISt4pairIKS4_S4_EEE
FNDA:0,_ZNK5lgxZJ2IS3Jmp8ToStringEv
FNDA:1,_ZN5lgxZJ2IS3JmpC2EP9mySymbol_
FNDA:0,_ZNK5lgxZJ2IS2Je6ToCodeERSt3mapIP7myTemp_S4_St4lessIS4_ESaISt4pairIKS4_S4_EEE
FNDA:0,_ZNK5lgxZJ2IS2Je8ToStringEv
FNDA:1,_ZN5lgxZJ2IS2JeC2EP9mySymbol_
FNDA:0,_ZNK5lgxZJ2IS3Jne6ToCodeERSt3mapIP7myTemp_S4_St4lessIS4_ESaISt4pairIKS4_S4_EEE
FNDA:0,_ZNK5lgxZJ2IS3Jne8ToStringEv
FNDA:1,_ZN5lgxZJ2IS3JneC2EP9mySymbol_
FNDA:0,_ZNK5lgxZJ2IS2Jg6ToCodeERSt3mapIP7myTemp_S4_St4lessIS4_ESaISt4pairIKS4_S4_EEE
FNDA:0,_ZNK5lgxZJ2IS2Jg8ToStringEv
FNDA:1,_ZN5lgxZJ2IS2JgC2EP9mySymbol_
FNDA:0,_ZNK5lgxZJ2IS3Jge6ToCodeERSt3mapIP7myTemp_S4_St4lessIS4_ESaISt4pairIKS4_S4_EEE
FNDA:0,_ZNK5lgxZJ2IS3Jge8ToStringEv
FNDA:1,_ZN5lgxZJ2IS3JgeC2EP9mySymbol_
FNDA:0,_ZNK5lgxZJ2IS2Jl6ToCodeERSt3mapIP7myTemp_S4_St4lessIS4_ESaISt4pairIKS4_S4_EEE
FNDA:0,_ZNK5lgxZJ2IS2Jl8ToStringEv
FNDA:1,_ZN5lgxZJ2IS2JlC2EP9mySymbol_
FNDA:0,_ZNK5lgxZJ2IS3Jle6ToCodeERSt3mapIP7myTemp_S4_St4lessIS4_ESaISt4pairIKS4_S4_EEE
FNDA:0,_ZNK5lgxZJ2IS3Jle8ToStringEv
FNDA:1,_ZN5lgxZJ2IS3JleC2EP9mySymbol_
FNDA:1,_ZN5lgxZJ2IS4CallC2EPcP11myTempList_
FNDA:0,_ZNK5lgxZJ2IS4Call8ToStringEv
FNDA:0,_ZNK5lgxZJ2IS4Call6ToCodeERSt3mapIP7myTemp_S4_St4lessIS4_ESaISt4pairIKS4_S4_EEE
FNDA:0,_ZNK5lgxZJ2IS4Call10GetDstRegsEv
FNDA:0,_ZNK5lgxZJ2IS4Call10GetSrcRegsEv
FNDA:2,_ZN5lgxZJ2IS4Call10ReplaceRegEP7myTemp_S3_
FNF:36
FNH:10
DA:39,1
DA:41,0
DA:43,0
DA:46,0
DA:48,0
DA:55,0
DA:57,0
DA:59,0
DA:62,0
DA:64,0
DA:67,0
DA:69,0
DA:72,0
DA:74,0
DA:76,0
DA:77,0
DA:79,0
DA:86,1
DA:92,1
DA:98,1
DA:104,1
DA:110,1
DA:116,1
DA:122,1
DA:128,1
DA:129,1
DA:130,1
DA:132,0
DA:134,0
DA:136,0
DA:137,0
DA:138,0
DA:139,0
DA:141,0
DA:142,0
DA:145,0
DA:147,0
DA:151,0
DA:152,0
DA:155,0
DA:156,0
DA:158,0
DA:159,0
DA:160,0
DA:161,0
DA:164,0
DA:165,0
DA:166,0
DA:169,0
DA:171,0
DA:175,0
DA:176,0
DA:177,0
DA:178,0
DA:180,0
DA:183,0
DA:185,0
DA:187,0
DA:188,0
DA:189,0
DA:190,0
DA:192,0
DA:195,2
DA:197,6
DA:199,2
DA:200,1
DA:201,2
DA:203,2
LF:68
LH:17
end_of_record
SF:/home/lgxZJ/Desktop/Tiger-Compiler/Compiler/AAI/myControlable.h
FN:11,_ZN5lgxZJ2IS10CommonJumpC2Ev
FN:14,_ZNK5lgxZJ2IS10CommonJump14ToCommonStringESs
FN:19,_ZNK5lgxZJ2IS10CommonJump10GetDstRegsEv
FN:20,_ZNK5lgxZJ2IS10CommonJump10GetSrcRegsEv
FN:21,_ZNK5lgxZJ2IS10CommonJump11GetDstLabelEv
FN:39,_ZNK5lgxZJ2IS5Label10GetDstRegsEv
FN:40,_ZNK5lgxZJ2IS5Label10GetSrcRegsEv
FN:42,_ZNK5lgxZJ2IS5Label11GetDefLabelEv
FNDA:7,_ZN5lgxZJ2IS10CommonJumpC2Ev
FNDA:0,_ZNK5lgxZJ2IS10CommonJump14ToCommonStringESs
FNDA:0,_ZNK5lgxZJ2IS10CommonJump10GetDstRegsEv
FNDA:0,_ZNK5lgxZJ2IS10CommonJump10GetSrcRegsEv
FNDA:0,_ZNK5lgxZJ2IS10CommonJump11GetDstLabelEv
FNDA:0,_ZNK5lgxZJ2IS5Label10GetDstRegsEv
FNDA:0,_ZNK5lgxZJ2IS5Label10GetSrcRegsEv
FNDA:0,_ZNK5lgxZJ2IS5Label11GetDefLabelEv
FNF:8
FNH:1
DA:11,7
DA:14,0
DA:16,0
DA:19,0
DA:20,0
DA:21,0
DA:39,0
DA:40,0
DA:42,0
LF:9
LH:1
end_of_record
