TN:
SF:/usr/include/c++/4.8/bits/alloc_traits.h
FN:253,_ZNSt16allocator_traitsISaIP7myTemp_EE12_S_constructIS1_IRKS1_EEENSt9enable_ifIXsrNS3_18__construct_helperIT_IDpT0_EEE5valueEvE4typeERS2_PS9_DpOSA_
FN:253,_ZNSt16allocator_traitsISaISt13_Rb_tree_nodeISt4pairIKP7myTemp_iEEEE12_S_constructIS6_IRKSt21piecewise_construct_tSt5tupleIIRS4_EESD_IIEEEEENSt9enable_ifIXsrNS8_18__construct_helperIT_IDpT0_EEE5valueEvE4typeERS7_PSJ_DpOSK_
FN:280,_ZNSt16allocator_traitsISaIP7myTemp_EE10_S_destroyIS1_EENSt9enable_ifIXsrNS3_16__destroy_helperIT_EE5valueEvE4typeERS2_PS7_
FN:305,_ZNSt16allocator_traitsISaIP7myTemp_EE11_S_max_sizeIKS2_EENSt9enable_ifIXsrNS3_16__maxsize_helperIT_EE5valueEmE4typeERS8_
FN:337,_ZNSt16allocator_traitsISaIiEE9_S_selectIKS0_EENSt9enable_ifIXntsrNS1_15__select_helperIT_EE5valueES6_E4typeERS6_
FN:337,_ZNSt16allocator_traitsISaIN5lgxZJ2LA13DirectedGraph8RealNodeEEE9_S_selectIKS4_EENSt9enable_ifIXntsrNS5_15__select_helperIT_EE5valueESA_E4typeERSA_
FN:337,_ZNSt16allocator_traitsISaIN5lgxZJ2LA4EdgeEEE9_S_selectIKS3_EENSt9enable_ifIXntsrNS4_15__select_helperIT_EE5valueES9_E4typeERS9_
FN:337,_ZNSt16allocator_traitsISaISt10shared_ptrIN5lgxZJ2IS3AAIEEEE9_S_selectIKS5_EENSt9enable_ifIXntsrNS6_15__select_helperIT_EE5valueESB_E4typeERSB_
FN:337,_ZNSt16allocator_traitsISaIP7myTemp_EE9_S_selectIKS2_EENSt9enable_ifIXntsrNS3_15__select_helperIT_EE5valueES8_E4typeERS8_
FN:391,_ZNSt16allocator_traitsISaISt13_Rb_tree_nodeISt4pairIKP7myTemp_iEEEE9constructIS6_IRKSt21piecewise_construct_tSt5tupleIIRS4_EESD_IIEEEEEDTcl12_S_constructfp_fp0_spcl7forwardIT0_Efp1_EEERS7_PT_DpOSH_
FN:391,_ZNSt16allocator_traitsISaIP7myTemp_EE9constructIS1_IRKS1_EEEDTcl12_S_constructfp_fp0_spcl7forwardIT0_Efp1_EEERS2_PT_DpOS7_
FN:404,_ZNSt16allocator_traitsISaIP7myTemp_EE7destroyIS1_EEvRS2_PT_
FN:415,_ZNSt16allocator_traitsISaIP7myTemp_EE8max_sizeERKS2_
FN:427,_ZNSt16allocator_traitsISaIP7myTemp_EE37select_on_container_copy_constructionERKS2_
FN:427,_ZNSt16allocator_traitsISaIN5lgxZJ2LA13DirectedGraph8RealNodeEEE37select_on_container_copy_constructionERKS4_
FN:427,_ZNSt16allocator_traitsISaIiEE37select_on_container_copy_constructionERKS0_
FN:427,_ZNSt16allocator_traitsISaISt10shared_ptrIN5lgxZJ2IS3AAIEEEE37select_on_container_copy_constructionERKS5_
FN:427,_ZNSt16allocator_traitsISaIN5lgxZJ2LA4EdgeEEE37select_on_container_copy_constructionERKS3_
FNDA:35,_ZNSt16allocator_traitsISaISt13_Rb_tree_nodeISt4pairIKP7myTemp_iEEEE12_S_constructIS6_IRKSt21piecewise_construct_tSt5tupleIIRS4_EESD_IIEEEEENSt9enable_ifIXsrNS8_18__construct_helperIT_IDpT0_EEE5valueEvE4typeERS7_PSJ_DpOSK_
FNDA:0,_ZNSt16allocator_traitsISaIP7myTemp_EE12_S_constructIS1_IRKS1_EEENSt9enable_ifIXsrNS3_18__construct_helperIT_IDpT0_EEE5valueEvE4typeERS2_PS9_DpOSA_
FNDA:0,_ZNSt16allocator_traitsISaIP7myTemp_EE10_S_destroyIS1_EENSt9enable_ifIXsrNS3_16__destroy_helperIT_EE5valueEvE4typeERS2_PS7_
FNDA:0,_ZNSt16allocator_traitsISaIP7myTemp_EE11_S_max_sizeIKS2_EENSt9enable_ifIXsrNS3_16__maxsize_helperIT_EE5valueEmE4typeERS8_
FNDA:0,_ZNSt16allocator_traitsISaIiEE9_S_selectIKS0_EENSt9enable_ifIXntsrNS1_15__select_helperIT_EE5valueES6_E4typeERS6_
FNDA:0,_ZNSt16allocator_traitsISaIP7myTemp_EE9_S_selectIKS2_EENSt9enable_ifIXntsrNS3_15__select_helperIT_EE5valueES8_E4typeERS8_
FNDA:0,_ZNSt16allocator_traitsISaIN5lgxZJ2LA4EdgeEEE9_S_selectIKS3_EENSt9enable_ifIXntsrNS4_15__select_helperIT_EE5valueES9_E4typeERS9_
FNDA:0,_ZNSt16allocator_traitsISaIN5lgxZJ2LA13DirectedGraph8RealNodeEEE9_S_selectIKS4_EENSt9enable_ifIXntsrNS5_15__select_helperIT_EE5valueESA_E4typeERSA_
FNDA:0,_ZNSt16allocator_traitsISaISt10shared_ptrIN5lgxZJ2IS3AAIEEEE9_S_selectIKS5_EENSt9enable_ifIXntsrNS6_15__select_helperIT_EE5valueESB_E4typeERSB_
FNDA:35,_ZNSt16allocator_traitsISaISt13_Rb_tree_nodeISt4pairIKP7myTemp_iEEEE9constructIS6_IRKSt21piecewise_construct_tSt5tupleIIRS4_EESD_IIEEEEEDTcl12_S_constructfp_fp0_spcl7forwardIT0_Efp1_EEERS7_PT_DpOSH_
FNDA:0,_ZNSt16allocator_traitsISaIP7myTemp_EE9constructIS1_IRKS1_EEEDTcl12_S_constructfp_fp0_spcl7forwardIT0_Efp1_EEERS2_PT_DpOS7_
FNDA:0,_ZNSt16allocator_traitsISaIP7myTemp_EE7destroyIS1_EEvRS2_PT_
FNDA:0,_ZNSt16allocator_traitsISaIP7myTemp_EE8max_sizeERKS2_
FNDA:0,_ZNSt16allocator_traitsISaIiEE37select_on_container_copy_constructionERKS0_
FNDA:0,_ZNSt16allocator_traitsISaIP7myTemp_EE37select_on_container_copy_constructionERKS2_
FNDA:0,_ZNSt16allocator_traitsISaIN5lgxZJ2LA4EdgeEEE37select_on_container_copy_constructionERKS3_
FNDA:0,_ZNSt16allocator_traitsISaIN5lgxZJ2LA13DirectedGraph8RealNodeEEE37select_on_container_copy_constructionERKS4_
FNDA:0,_ZNSt16allocator_traitsISaISt10shared_ptrIN5lgxZJ2IS3AAIEEEE37select_on_container_copy_constructionERKS5_
FNF:18
FNH:2
DA:253,35
DA:254,35
DA:280,0
DA:281,0
DA:305,0
DA:306,0
DA:337,0
DA:338,0
DA:391,35
DA:393,35
DA:404,0
DA:405,0
DA:415,0
DA:416,0
DA:427,0
DA:428,0
LF:16
LH:4
end_of_record
SF:/usr/include/c++/4.8/bits/allocator.h
FN:113,_ZNSaIP7myTemp_EC2Ev
FN:113,_ZNSaISt13_Rb_tree_nodeISt4pairIKP7myTemp_iEEEC2Ev
FN:113,_ZNSaISt6vectorIP7myTemp_SaIS1_EEEC2Ev
FN:115,_ZNSaISt6vectorIP7myTemp_SaIS1_EEEC2ERKS4_
FN:115,_ZNSaISt10shared_ptrIN5lgxZJ2IS3AAIEEEC2ERKS4_
FN:115,_ZNSaIN5lgxZJ2LA13DirectedGraph8RealNodeEEC2ERKS3_
FN:115,_ZNSaIP7myTemp_EC2ERKS1_
FN:115,_ZNSaIN5lgxZJ2LA4EdgeEEC2ERKS2_
FN:115,_ZNSaIiEC2ERKS_
FN:121,_ZNSaISt6vectorIP7myTemp_SaIS1_EEED2Ev
FN:121,_ZNSaIN5lgxZJ2LA13DirectedGraph8RealNodeEED2Ev
FN:121,_ZNSaIiED2Ev
FN:121,_ZNSaIN5lgxZJ2LA4EdgeEED2Ev
FN:121,_ZNSaISt13_Rb_tree_nodeISt4pairIKP7myTemp_iEEED2Ev
FN:121,_ZNSaIP7myTemp_ED2Ev
FN:121,_ZNSaISt10shared_ptrIN5lgxZJ2IS3AAIEEED2Ev
FNDA:0,_ZNSaIP7myTemp_EC2Ev
FNDA:11,_ZNSaISt13_Rb_tree_nodeISt4pairIKP7myTemp_iEEEC2Ev
FNDA:0,_ZNSaISt6vectorIP7myTemp_SaIS1_EEEC2Ev
FNDA:0,_ZNSaIiEC2ERKS_
FNDA:0,_ZNSaISt6vectorIP7myTemp_SaIS1_EEEC2ERKS4_
FNDA:0,_ZNSaIP7myTemp_EC2ERKS1_
FNDA:0,_ZNSaIN5lgxZJ2LA4EdgeEEC2ERKS2_
FNDA:0,_ZNSaIN5lgxZJ2LA13DirectedGraph8RealNodeEEC2ERKS3_
FNDA:0,_ZNSaISt10shared_ptrIN5lgxZJ2IS3AAIEEEC2ERKS4_
FNDA:0,_ZNSaIiED2Ev
FNDA:0,_ZNSaIP7myTemp_ED2Ev
FNDA:0,_ZNSaIN5lgxZJ2LA4EdgeEED2Ev
FNDA:0,_ZNSaIN5lgxZJ2LA13DirectedGraph8RealNodeEED2Ev
FNDA:0,_ZNSaISt13_Rb_tree_nodeISt4pairIKP7myTemp_iEEED2Ev
FNDA:0,_ZNSaISt10shared_ptrIN5lgxZJ2IS3AAIEEED2Ev
FNDA:0,_ZNSaISt6vectorIP7myTemp_SaIS1_EEED2Ev
FNF:16
FNH:1
DA:113,11
DA:115,0
DA:116,0
DA:121,0
LF:4
LH:1
end_of_record
SF:/usr/include/c++/4.8/bits/basic_string.h
FN:272,_ZNSs12_Alloc_hiderD2Ev
FNDA:0,_ZNSs12_Alloc_hiderD2Ev
FNF:1
FNH:0
DA:272,0
LF:1
LH:0
end_of_record
SF:/usr/include/c++/4.8/bits/char_traits.h
FN:258,_ZNSt11char_traitsIcE6lengthEPKc
FNDA:0,_ZNSt11char_traitsIcE6lengthEPKc
FNF:1
FNH:0
DA:258,0
DA:259,0
LF:2
LH:0
end_of_record
SF:/usr/include/c++/4.8/bits/move.h
FN:47,_ZSt11__addressofISt6vectorIP7myTemp_SaIS2_EEEPT_RS5_
FN:47,_ZSt11__addressofISt10shared_ptrIN5lgxZJ2IS3AAIEEEPT_RS5_
FN:47,_ZSt11__addressofIN5lgxZJ2LA13DirectedGraph8RealNodeEEPT_RS4_
FN:47,_ZSt11__addressofIN5lgxZJ2LA4EdgeEEPT_RS3_
FN:76,_ZSt7forwardIRKN5lgxZJ2LA4EdgeEEOT_RNSt16remove_referenceIS5_E4typeE
FN:76,_ZSt7forwardISt5tupleIIEEEOT_RNSt16remove_referenceIS2_E4typeE
FN:76,_ZSt7forwardIRKP7myTemp_EOT_RNSt16remove_referenceIS4_E4typeE
FN:76,_ZSt7forwardIRPSt18_Rb_tree_node_baseEOT_RNSt16remove_referenceIS3_E4typeE
FN:76,_ZSt7forwardISt5tupleIIRKP7myTemp_EEEOT_RNSt16remove_referenceIS6_E4typeE
FN:76,_ZSt7forwardIRPSt13_Rb_tree_nodeISt4pairIKP7myTemp_iEEEOT_RNSt16remove_referenceIS9_E4typeE
FN:76,_ZSt7forwardIRKN5lgxZJ2LA13DirectedGraph8RealNodeEEOT_RNSt16remove_referenceIS6_E4typeE
FN:76,_ZSt7forwardIRKSt21piecewise_construct_tEOT_RNSt16remove_referenceIS3_E4typeE
FN:76,_ZSt7forwardIRKSt10shared_ptrIN5lgxZJ2IS3AAIEEEOT_RNSt16remove_referenceIS7_E4typeE
FN:101,_ZSt4moveIRSt11_Tuple_implILm1EIEEEONSt16remove_referenceIT_E4typeEOS4_
FNDA:0,_ZSt11__addressofIN5lgxZJ2LA4EdgeEEPT_RS3_
FNDA:0,_ZSt11__addressofISt6vectorIP7myTemp_SaIS2_EEEPT_RS5_
FNDA:0,_ZSt11__addressofIN5lgxZJ2LA13DirectedGraph8RealNodeEEPT_RS4_
FNDA:0,_ZSt11__addressofISt10shared_ptrIN5lgxZJ2IS3AAIEEEPT_RS5_
FNDA:0,_ZSt7forwardIRKN5lgxZJ2LA4EdgeEEOT_RNSt16remove_referenceIS5_E4typeE
FNDA:0,_ZSt7forwardIRKN5lgxZJ2LA13DirectedGraph8RealNodeEEOT_RNSt16remove_referenceIS6_E4typeE
FNDA:0,_ZSt7forwardIRKSt10shared_ptrIN5lgxZJ2IS3AAIEEEOT_RNSt16remove_referenceIS7_E4typeE
FNDA:20,_ZSt7forwardIRPSt13_Rb_tree_nodeISt4pairIKP7myTemp_iEEEOT_RNSt16remove_referenceIS9_E4typeE
FNDA:0,_ZSt7forwardIRPSt18_Rb_tree_node_baseEOT_RNSt16remove_referenceIS3_E4typeE
FNDA:0,_ZSt7forwardISt5tupleIIEEEOT_RNSt16remove_referenceIS2_E4typeE
FNDA:210,_ZSt7forwardISt5tupleIIRKP7myTemp_EEEOT_RNSt16remove_referenceIS6_E4typeE
FNDA:0,_ZSt7forwardIRKSt21piecewise_construct_tEOT_RNSt16remove_referenceIS3_E4typeE
FNDA:0,_ZSt7forwardIRKP7myTemp_EOT_RNSt16remove_referenceIS4_E4typeE
FNDA:0,_ZSt4moveIRSt11_Tuple_implILm1EIEEEONSt16remove_referenceIT_E4typeEOS4_
FNF:14
FNH:2
DA:47,0
DA:50,0
DA:76,230
DA:77,230
DA:101,0
DA:102,0
LF:6
LH:2
end_of_record
SF:/usr/include/c++/4.8/bits/shared_ptr.h
FN:93,_ZNSt10shared_ptrIN5lgxZJ2IS3AAIEED2Ev
FN:103,_ZNSt10shared_ptrIN5lgxZJ2IS3AAIEEC2ERKS3_
FNDA:0,_ZNSt10shared_ptrIN5lgxZJ2IS3AAIEED2Ev
FNDA:0,_ZNSt10shared_ptrIN5lgxZJ2IS3AAIEEC2ERKS3_
FNF:2
FNH:0
DA:93,0
DA:103,0
LF:2
LH:0
end_of_record
SF:/usr/include/c++/4.8/bits/shared_ptr_base.h
FN:130,_ZNSt16_Sp_counted_baseILN9__gnu_cxx12_Lock_policyE2EE15_M_add_ref_copyEv
FN:137,_ZNSt16_Sp_counted_baseILN9__gnu_cxx12_Lock_policyE2EE10_M_releaseEv
FN:543,_ZNSt14__shared_countILN9__gnu_cxx12_Lock_policyE2EED2Ev
FN:549,_ZNSt14__shared_countILN9__gnu_cxx12_Lock_policyE2EEC2ERKS2_
FN:779,_ZNSt12__shared_ptrIN5lgxZJ2IS3AAIELN9__gnu_cxx12_Lock_policyE2EEC2ERKS5_
FN:781,_ZNSt12__shared_ptrIN5lgxZJ2IS3AAIELN9__gnu_cxx12_Lock_policyE2EED2Ev
FN:912,_ZNKSt12__shared_ptrIN5lgxZJ2IS3AAIELN9__gnu_cxx12_Lock_policyE2EEptEv
FNDA:0,_ZNSt16_Sp_counted_baseILN9__gnu_cxx12_Lock_policyE2EE15_M_add_ref_copyEv
FNDA:0,_ZNSt16_Sp_counted_baseILN9__gnu_cxx12_Lock_policyE2EE10_M_releaseEv
FNDA:0,_ZNSt14__shared_countILN9__gnu_cxx12_Lock_policyE2EED2Ev
FNDA:0,_ZNSt14__shared_countILN9__gnu_cxx12_Lock_policyE2EEC2ERKS2_
FNDA:0,_ZNSt12__shared_ptrIN5lgxZJ2IS3AAIELN9__gnu_cxx12_Lock_policyE2EEC2ERKS5_
FNDA:0,_ZNSt12__shared_ptrIN5lgxZJ2IS3AAIELN9__gnu_cxx12_Lock_policyE2EED2Ev
FNDA:0,_ZNKSt12__shared_ptrIN5lgxZJ2IS3AAIELN9__gnu_cxx12_Lock_policyE2EEptEv
FNF:7
FNH:0
DA:130,0
DA:131,0
DA:137,0
DA:141,0
DA:144,0
DA:157,0
DA:158,0
DA:161,0
DA:164,0
DA:543,0
DA:545,0
DA:546,0
DA:547,0
DA:549,0
DA:550,0
DA:552,0
DA:553,0
DA:554,0
DA:779,0
DA:781,0
DA:912,0
DA:915,0
LF:22
LH:0
end_of_record
SF:/usr/include/c++/4.8/bits/stl_algobase.h
FN:216,_ZSt3maxImERKT_S2_S2_
FN:277,_ZSt12__niter_baseIN9__gnu_cxx17__normal_iteratorIPKiSt6vectorIiSaIiEEEEENSt11_Niter_baseIT_E13iterator_typeES9_
FN:277,_ZSt12__niter_baseIPP7myTemp_ENSt11_Niter_baseIT_E13iterator_typeES4_
FN:277,_ZSt12__niter_baseIN9__gnu_cxx17__normal_iteratorIPKP7myTemp_St6vectorIS3_SaIS3_EEEEENSt11_Niter_baseIT_E13iterator_typeESB_
FN:277,_ZSt12__niter_baseIPiENSt11_Niter_baseIT_E13iterator_typeES2_
FN:288,_ZSt12__miter_baseIN9__gnu_cxx17__normal_iteratorIPKP7myTemp_St6vectorIS3_SaIS3_EEEEENSt11_Miter_baseIT_E13iterator_typeESB_
FN:288,_ZSt12__miter_baseIN9__gnu_cxx17__normal_iteratorIPKiSt6vectorIiSaIiEEEEENSt11_Miter_baseIT_E13iterator_typeES9_
FN:288,_ZSt12__miter_baseISt13move_iteratorIPP7myTemp_EENSt11_Miter_baseIT_E13iterator_typeES6_
FN:368,_ZNSt11__copy_moveILb0ELb1ESt26random_access_iterator_tagE8__copy_mIiEEPT_PKS3_S6_S4_
FN:368,_ZNSt11__copy_moveILb1ELb1ESt26random_access_iterator_tagE8__copy_mIP7myTemp_EEPT_PKS5_S8_S6_
FN:368,_ZNSt11__copy_moveILb0ELb1ESt26random_access_iterator_tagE8__copy_mIP7myTemp_EEPT_PKS5_S8_S6_
FN:379,_ZSt13__copy_move_aILb0EPKP7myTemp_PS1_ET1_T0_S6_S5_
FN:379,_ZSt13__copy_move_aILb0EPKiPiET1_T0_S4_S3_
FN:379,_ZSt13__copy_move_aILb1EPP7myTemp_S2_ET1_T0_S4_S3_
FN:424,_ZSt14__copy_move_a2ILb1EPP7myTemp_S2_ET1_T0_S4_S3_
FN:424,_ZSt14__copy_move_a2ILb0EN9__gnu_cxx17__normal_iteratorIPKP7myTemp_St6vectorIS3_SaIS3_EEEEPS3_ET1_T0_SC_SB_
FN:424,_ZSt14__copy_move_a2ILb0EN9__gnu_cxx17__normal_iteratorIPKiSt6vectorIiSaIiEEEEPiET1_T0_SA_S9_
FN:450,_ZSt4copyIN9__gnu_cxx17__normal_iteratorIPKiSt6vectorIiSaIiEEEEPiET0_T_SA_S9_
FN:450,_ZSt4copyISt13move_iteratorIPP7myTemp_ES3_ET0_T_S6_S5_
FN:450,_ZSt4copyIN9__gnu_cxx17__normal_iteratorIPKP7myTemp_St6vectorIS3_SaIS3_EEEEPS3_ET0_T_SC_SB_
FNDA:0,_ZSt3maxImERKT_S2_S2_
FNDA:0,_ZSt12__niter_baseIPiENSt11_Niter_baseIT_E13iterator_typeES2_
FNDA:0,_ZSt12__niter_baseIN9__gnu_cxx17__normal_iteratorIPKiSt6vectorIiSaIiEEEEENSt11_Niter_baseIT_E13iterator_typeES9_
FNDA:0,_ZSt12__niter_baseIPP7myTemp_ENSt11_Niter_baseIT_E13iterator_typeES4_
FNDA:0,_ZSt12__niter_baseIN9__gnu_cxx17__normal_iteratorIPKP7myTemp_St6vectorIS3_SaIS3_EEEEENSt11_Niter_baseIT_E13iterator_typeESB_
FNDA:0,_ZSt12__miter_baseIN9__gnu_cxx17__normal_iteratorIPKiSt6vectorIiSaIiEEEEENSt11_Miter_baseIT_E13iterator_typeES9_
FNDA:0,_ZSt12__miter_baseISt13move_iteratorIPP7myTemp_EENSt11_Miter_baseIT_E13iterator_typeES6_
FNDA:0,_ZSt12__miter_baseIN9__gnu_cxx17__normal_iteratorIPKP7myTemp_St6vectorIS3_SaIS3_EEEEENSt11_Miter_baseIT_E13iterator_typeESB_
FNDA:0,_ZNSt11__copy_moveILb0ELb1ESt26random_access_iterator_tagE8__copy_mIiEEPT_PKS3_S6_S4_
FNDA:0,_ZNSt11__copy_moveILb1ELb1ESt26random_access_iterator_tagE8__copy_mIP7myTemp_EEPT_PKS5_S8_S6_
FNDA:0,_ZNSt11__copy_moveILb0ELb1ESt26random_access_iterator_tagE8__copy_mIP7myTemp_EEPT_PKS5_S8_S6_
FNDA:0,_ZSt13__copy_move_aILb0EPKiPiET1_T0_S4_S3_
FNDA:0,_ZSt13__copy_move_aILb1EPP7myTemp_S2_ET1_T0_S4_S3_
FNDA:0,_ZSt13__copy_move_aILb0EPKP7myTemp_PS1_ET1_T0_S6_S5_
FNDA:0,_ZSt14__copy_move_a2ILb0EN9__gnu_cxx17__normal_iteratorIPKiSt6vectorIiSaIiEEEEPiET1_T0_SA_S9_
FNDA:0,_ZSt14__copy_move_a2ILb1EPP7myTemp_S2_ET1_T0_S4_S3_
FNDA:0,_ZSt14__copy_move_a2ILb0EN9__gnu_cxx17__normal_iteratorIPKP7myTemp_St6vectorIS3_SaIS3_EEEEPS3_ET1_T0_SC_SB_
FNDA:0,_ZSt4copyIN9__gnu_cxx17__normal_iteratorIPKiSt6vectorIiSaIiEEEEPiET0_T_SA_S9_
FNDA:0,_ZSt4copyISt13move_iteratorIPP7myTemp_ES3_ET0_T_S6_S5_
FNDA:0,_ZSt4copyIN9__gnu_cxx17__normal_iteratorIPKP7myTemp_St6vectorIS3_SaIS3_EEEEPS3_ET0_T_SC_SB_
FNF:20
FNH:0
DA:216,0
DA:221,0
DA:222,0
DA:223,0
DA:277,0
DA:278,0
DA:288,0
DA:289,0
DA:368,0
DA:370,0
DA:371,0
DA:372,0
DA:373,0
DA:379,0
DA:387,0
DA:390,0
DA:424,0
DA:428,0
DA:450,0
DA:460,0
LF:20
LH:0
end_of_record
SF:/usr/include/c++/4.8/bits/stl_construct.h
FN:74,_ZSt10_ConstructISt6vectorIP7myTemp_SaIS2_EEIEEvPT_DpOT0_
FN:74,_ZSt10_ConstructISt10shared_ptrIN5lgxZJ2IS3AAIEEIRKS4_EEvPT_DpOT0_
FN:74,_ZSt10_ConstructIN5lgxZJ2LA4EdgeEIRKS2_EEvPT_DpOT0_
FN:74,_ZSt10_ConstructIN5lgxZJ2LA13DirectedGraph8RealNodeEIRKS3_EEvPT_DpOT0_
FN:92,_ZSt8_DestroyISt6vectorIP7myTemp_SaIS2_EEEvPT_
FN:92,_ZSt8_DestroyIN5lgxZJ2LA13DirectedGraph8RealNodeEEvPT_
FN:92,_ZSt8_DestroyISt10shared_ptrIN5lgxZJ2IS3AAIEEEvPT_
FN:100,_ZNSt12_Destroy_auxILb0EE9__destroyIPSt6vectorIP7myTemp_SaIS4_EEEEvT_S8_
FN:100,_ZNSt12_Destroy_auxILb0EE9__destroyIPSt10shared_ptrIN5lgxZJ2IS3AAIEEEEvT_S8_
FN:100,_ZNSt12_Destroy_auxILb0EE9__destroyIPN5lgxZJ2LA13DirectedGraph8RealNodeEEEvT_S7_
FN:112,_ZNSt12_Destroy_auxILb1EE9__destroyIPiEEvT_S3_
FN:112,_ZNSt12_Destroy_auxILb1EE9__destroyIPN5lgxZJ2LA4EdgeEEEvT_S6_
FN:112,_ZNSt12_Destroy_auxILb1EE9__destroyIPP7myTemp_EEvT_S5_
FN:122,_ZSt8_DestroyIPSt10shared_ptrIN5lgxZJ2IS3AAIEEEvT_S6_
FN:122,_ZSt8_DestroyIPiEvT_S1_
FN:122,_ZSt8_DestroyIPN5lgxZJ2LA13DirectedGraph8RealNodeEEvT_S5_
FN:122,_ZSt8_DestroyIPSt6vectorIP7myTemp_SaIS2_EEEvT_S6_
FN:122,_ZSt8_DestroyIPP7myTemp_EvT_S3_
FN:122,_ZSt8_DestroyIPN5lgxZJ2LA4EdgeEEvT_S4_
FN:148,_ZSt8_DestroyIPN5lgxZJ2LA4EdgeES2_EvT_S4_RSaIT0_E
FN:148,_ZSt8_DestroyIPP7myTemp_S1_EvT_S3_RSaIT0_E
FN:148,_ZSt8_DestroyIPSt10shared_ptrIN5lgxZJ2IS3AAIEES4_EvT_S6_RSaIT0_E
FN:148,_ZSt8_DestroyIPSt6vectorIP7myTemp_SaIS2_EES4_EvT_S6_RSaIT0_E
FN:148,_ZSt8_DestroyIPN5lgxZJ2LA13DirectedGraph8RealNodeES3_EvT_S5_RSaIT0_E
FN:148,_ZSt8_DestroyIPiiEvT_S1_RSaIT0_E
FNDA:0,_ZSt10_ConstructISt6vectorIP7myTemp_SaIS2_EEIEEvPT_DpOT0_
FNDA:0,_ZSt10_ConstructIN5lgxZJ2LA4EdgeEIRKS2_EEvPT_DpOT0_
FNDA:0,_ZSt10_ConstructIN5lgxZJ2LA13DirectedGraph8RealNodeEIRKS3_EEvPT_DpOT0_
FNDA:0,_ZSt10_ConstructISt10shared_ptrIN5lgxZJ2IS3AAIEEIRKS4_EEvPT_DpOT0_
FNDA:0,_ZSt8_DestroyISt6vectorIP7myTemp_SaIS2_EEEvPT_
FNDA:0,_ZSt8_DestroyIN5lgxZJ2LA13DirectedGraph8RealNodeEEvPT_
FNDA:0,_ZSt8_DestroyISt10shared_ptrIN5lgxZJ2IS3AAIEEEvPT_
FNDA:0,_ZNSt12_Destroy_auxILb0EE9__destroyIPSt6vectorIP7myTemp_SaIS4_EEEEvT_S8_
FNDA:0,_ZNSt12_Destroy_auxILb0EE9__destroyIPN5lgxZJ2LA13DirectedGraph8RealNodeEEEvT_S7_
FNDA:0,_ZNSt12_Destroy_auxILb0EE9__destroyIPSt10shared_ptrIN5lgxZJ2IS3AAIEEEEvT_S8_
FNDA:0,_ZNSt12_Destroy_auxILb1EE9__destroyIPiEEvT_S3_
FNDA:0,_ZNSt12_Destroy_auxILb1EE9__destroyIPP7myTemp_EEvT_S5_
FNDA:0,_ZNSt12_Destroy_auxILb1EE9__destroyIPN5lgxZJ2LA4EdgeEEEvT_S6_
FNDA:0,_ZSt8_DestroyIPiEvT_S1_
FNDA:0,_ZSt8_DestroyIPP7myTemp_EvT_S3_
FNDA:0,_ZSt8_DestroyIPSt6vectorIP7myTemp_SaIS2_EEEvT_S6_
FNDA:0,_ZSt8_DestroyIPN5lgxZJ2LA4EdgeEEvT_S4_
FNDA:0,_ZSt8_DestroyIPN5lgxZJ2LA13DirectedGraph8RealNodeEEvT_S5_
FNDA:0,_ZSt8_DestroyIPSt10shared_ptrIN5lgxZJ2IS3AAIEEEvT_S6_
FNDA:0,_ZSt8_DestroyIPiiEvT_S1_RSaIT0_E
FNDA:0,_ZSt8_DestroyIPP7myTemp_S1_EvT_S3_RSaIT0_E
FNDA:0,_ZSt8_DestroyIPSt6vectorIP7myTemp_SaIS2_EES4_EvT_S6_RSaIT0_E
FNDA:0,_ZSt8_DestroyIPN5lgxZJ2LA4EdgeES2_EvT_S4_RSaIT0_E
FNDA:0,_ZSt8_DestroyIPN5lgxZJ2LA13DirectedGraph8RealNodeES3_EvT_S5_RSaIT0_E
FNDA:0,_ZSt8_DestroyIPSt10shared_ptrIN5lgxZJ2IS3AAIEES4_EvT_S6_RSaIT0_E
FNF:25
FNH:0
DA:74,0
DA:75,0
DA:92,0
DA:93,0
DA:100,0
DA:102,0
DA:103,0
DA:104,0
DA:112,0
DA:122,0
DA:126,0
DA:128,0
DA:148,0
DA:151,0
DA:152,0
LF:15
LH:0
end_of_record
SF:/usr/include/c++/4.8/bits/stl_function.h
FN:234,_ZNKSt4lessIP7myTemp_EclERKS1_S4_
FN:494,_ZNKSt10_Select1stISt4pairIKP7myTemp_iEEclERKS4_
FNDA:0,_ZNKSt4lessIP7myTemp_EclERKS1_S4_
FNDA:0,_ZNKSt10_Select1stISt4pairIKP7myTemp_iEEclERKS4_
FNF:2
FNH:0
DA:234,0
DA:235,0
DA:494,0
DA:495,0
LF:4
LH:0
end_of_record
SF:/usr/include/c++/4.8/bits/stl_iterator.h
FN:726,_ZN9__gnu_cxx17__normal_iteratorIPKP7myTemp_St6vectorIS2_SaIS2_EEEC2ERKS4_
FN:726,_ZN9__gnu_cxx17__normal_iteratorIPKN5lgxZJ2LA13DirectedGraph8RealNodeESt6vectorIS4_SaIS4_EEEC2ERKS6_
FN:726,_ZN9__gnu_cxx17__normal_iteratorIPKiSt6vectorIiSaIiEEEC2ERKS2_
FN:726,_ZN9__gnu_cxx17__normal_iteratorIPKN5lgxZJ2LA4EdgeESt6vectorIS3_SaIS3_EEEC2ERKS5_
FN:726,_ZN9__gnu_cxx17__normal_iteratorIPKSt10shared_ptrIN5lgxZJ2IS3AAIEESt6vectorIS5_SaIS5_EEEC2ERKS7_
FN:726,_ZN9__gnu_cxx17__normal_iteratorIPP7myTemp_St6vectorIS2_SaIS2_EEEC2ERKS3_
FN:738,_ZNK9__gnu_cxx17__normal_iteratorIPKSt10shared_ptrIN5lgxZJ2IS3AAIEESt6vectorIS5_SaIS5_EEEdeEv
FN:738,_ZNK9__gnu_cxx17__normal_iteratorIPKN5lgxZJ2LA4EdgeESt6vectorIS3_SaIS3_EEEdeEv
FN:738,_ZNK9__gnu_cxx17__normal_iteratorIPKN5lgxZJ2LA13DirectedGraph8RealNodeESt6vectorIS4_SaIS4_EEEdeEv
FN:738,_ZNK9__gnu_cxx17__normal_iteratorIPP7myTemp_St6vectorIS2_SaIS2_EEEdeEv
FN:746,_ZN9__gnu_cxx17__normal_iteratorIPKN5lgxZJ2LA13DirectedGraph8RealNodeESt6vectorIS4_SaIS4_EEEppEv
FN:746,_ZN9__gnu_cxx17__normal_iteratorIPP7myTemp_St6vectorIS2_SaIS2_EEEppEv
FN:746,_ZN9__gnu_cxx17__normal_iteratorIPKSt10shared_ptrIN5lgxZJ2IS3AAIEESt6vectorIS5_SaIS5_EEEppEv
FN:746,_ZN9__gnu_cxx17__normal_iteratorIPKN5lgxZJ2LA4EdgeESt6vectorIS3_SaIS3_EEEppEv
FN:790,_ZNK9__gnu_cxx17__normal_iteratorIPKN5lgxZJ2LA4EdgeESt6vectorIS3_SaIS3_EEE4baseEv
FN:790,_ZNK9__gnu_cxx17__normal_iteratorIPKN5lgxZJ2LA13DirectedGraph8RealNodeESt6vectorIS4_SaIS4_EEE4baseEv
FN:790,_ZNK9__gnu_cxx17__normal_iteratorIPKSt10shared_ptrIN5lgxZJ2IS3AAIEESt6vectorIS5_SaIS5_EEE4baseEv
FN:790,_ZNK9__gnu_cxx17__normal_iteratorIPP7myTemp_St6vectorIS2_SaIS2_EEE4baseEv
FN:790,_ZNK9__gnu_cxx17__normal_iteratorIPKiSt6vectorIiSaIiEEE4baseEv
FN:790,_ZNK9__gnu_cxx17__normal_iteratorIPKP7myTemp_St6vectorIS2_SaIS2_EEE4baseEv
FN:823,_ZN9__gnu_cxxneIPP7myTemp_St6vectorIS2_SaIS2_EEEEbRKNS_17__normal_iteratorIT_T0_EESC_
FN:823,_ZN9__gnu_cxxneIPKSt10shared_ptrIN5lgxZJ2IS3AAIEESt6vectorIS5_SaIS5_EEEEbRKNS_17__normal_iteratorIT_T0_EESG_
FN:823,_ZN9__gnu_cxxneIPKN5lgxZJ2LA4EdgeESt6vectorIS3_SaIS3_EEEEbRKNS_17__normal_iteratorIT_T0_EESE_
FN:823,_ZN9__gnu_cxxneIPKN5lgxZJ2LA13DirectedGraph8RealNodeESt6vectorIS4_SaIS4_EEEEbRKNS_17__normal_iteratorIT_T0_EESF_
FN:950,_ZNSt13move_iteratorIPP7myTemp_EC2ES2_
FN:958,_ZNKSt13move_iteratorIPP7myTemp_E4baseEv
FN:1132,_ZSt32__make_move_if_noexcept_iteratorIPP7myTemp_St13move_iteratorIS2_EET0_T_
FNDA:0,_ZN9__gnu_cxx17__normal_iteratorIPKiSt6vectorIiSaIiEEEC2ERKS2_
FNDA:0,_ZN9__gnu_cxx17__normal_iteratorIPKP7myTemp_St6vectorIS2_SaIS2_EEEC2ERKS4_
FNDA:0,_ZN9__gnu_cxx17__normal_iteratorIPKN5lgxZJ2LA4EdgeESt6vectorIS3_SaIS3_EEEC2ERKS5_
FNDA:0,_ZN9__gnu_cxx17__normal_iteratorIPKN5lgxZJ2LA13DirectedGraph8RealNodeESt6vectorIS4_SaIS4_EEEC2ERKS6_
FNDA:0,_ZN9__gnu_cxx17__normal_iteratorIPKSt10shared_ptrIN5lgxZJ2IS3AAIEESt6vectorIS5_SaIS5_EEEC2ERKS7_
FNDA:0,_ZN9__gnu_cxx17__normal_iteratorIPP7myTemp_St6vectorIS2_SaIS2_EEEC2ERKS3_
FNDA:0,_ZNK9__gnu_cxx17__normal_iteratorIPKN5lgxZJ2LA4EdgeESt6vectorIS3_SaIS3_EEEdeEv
FNDA:0,_ZNK9__gnu_cxx17__normal_iteratorIPKN5lgxZJ2LA13DirectedGraph8RealNodeESt6vectorIS4_SaIS4_EEEdeEv
FNDA:0,_ZNK9__gnu_cxx17__normal_iteratorIPKSt10shared_ptrIN5lgxZJ2IS3AAIEESt6vectorIS5_SaIS5_EEEdeEv
FNDA:0,_ZNK9__gnu_cxx17__normal_iteratorIPP7myTemp_St6vectorIS2_SaIS2_EEEdeEv
FNDA:0,_ZN9__gnu_cxx17__normal_iteratorIPKN5lgxZJ2LA4EdgeESt6vectorIS3_SaIS3_EEEppEv
FNDA:0,_ZN9__gnu_cxx17__normal_iteratorIPKN5lgxZJ2LA13DirectedGraph8RealNodeESt6vectorIS4_SaIS4_EEEppEv
FNDA:0,_ZN9__gnu_cxx17__normal_iteratorIPKSt10shared_ptrIN5lgxZJ2IS3AAIEESt6vectorIS5_SaIS5_EEEppEv
FNDA:0,_ZN9__gnu_cxx17__normal_iteratorIPP7myTemp_St6vectorIS2_SaIS2_EEEppEv
FNDA:0,_ZNK9__gnu_cxx17__normal_iteratorIPKiSt6vectorIiSaIiEEE4baseEv
FNDA:0,_ZNK9__gnu_cxx17__normal_iteratorIPKP7myTemp_St6vectorIS2_SaIS2_EEE4baseEv
FNDA:0,_ZNK9__gnu_cxx17__normal_iteratorIPKN5lgxZJ2LA4EdgeESt6vectorIS3_SaIS3_EEE4baseEv
FNDA:0,_ZNK9__gnu_cxx17__normal_iteratorIPKN5lgxZJ2LA13DirectedGraph8RealNodeESt6vectorIS4_SaIS4_EEE4baseEv
FNDA:0,_ZNK9__gnu_cxx17__normal_iteratorIPKSt10shared_ptrIN5lgxZJ2IS3AAIEESt6vectorIS5_SaIS5_EEE4baseEv
FNDA:0,_ZNK9__gnu_cxx17__normal_iteratorIPP7myTemp_St6vectorIS2_SaIS2_EEE4baseEv
FNDA:0,_ZN9__gnu_cxxneIPKN5lgxZJ2LA4EdgeESt6vectorIS3_SaIS3_EEEEbRKNS_17__normal_iteratorIT_T0_EESE_
FNDA:0,_ZN9__gnu_cxxneIPKN5lgxZJ2LA13DirectedGraph8RealNodeESt6vectorIS4_SaIS4_EEEEbRKNS_17__normal_iteratorIT_T0_EESF_
FNDA:0,_ZN9__gnu_cxxneIPKSt10shared_ptrIN5lgxZJ2IS3AAIEESt6vectorIS5_SaIS5_EEEEbRKNS_17__normal_iteratorIT_T0_EESG_
FNDA:0,_ZN9__gnu_cxxneIPP7myTemp_St6vectorIS2_SaIS2_EEEEbRKNS_17__normal_iteratorIT_T0_EESC_
FNDA:0,_ZNSt13move_iteratorIPP7myTemp_EC2ES2_
FNDA:0,_ZNKSt13move_iteratorIPP7myTemp_E4baseEv
FNDA:0,_ZSt32__make_move_if_noexcept_iteratorIPP7myTemp_St13move_iteratorIS2_EET0_T_
FNF:27
FNH:0
DA:726,0
DA:738,0
DA:739,0
DA:746,0
DA:748,0
DA:749,0
DA:790,0
DA:791,0
DA:823,0
DA:825,0
DA:950,0
DA:951,0
DA:958,0
DA:959,0
DA:1132,0
DA:1133,0
LF:16
LH:0
end_of_record
SF:/usr/include/c++/4.8/bits/stl_iterator_base_types.h
FN:212,_ZNSt10_Iter_baseIN9__gnu_cxx17__normal_iteratorIPKiSt6vectorIiSaIiEEEELb0EE7_S_baseES7_
FN:212,_ZNSt10_Iter_baseIPiLb0EE7_S_baseES0_
FN:212,_ZNSt10_Iter_baseIN9__gnu_cxx17__normal_iteratorIPKP7myTemp_St6vectorIS3_SaIS3_EEEELb0EE7_S_baseES9_
FN:212,_ZNSt10_Iter_baseIPP7myTemp_Lb0EE7_S_baseES2_
FN:220,_ZNSt10_Iter_baseIN9__gnu_cxx17__normal_iteratorIPKP7myTemp_St6vectorIS3_SaIS3_EEEELb1EE7_S_baseES9_
FN:220,_ZNSt10_Iter_baseISt13move_iteratorIPP7myTemp_ELb1EE7_S_baseES4_
FN:220,_ZNSt10_Iter_baseIN9__gnu_cxx17__normal_iteratorIPKiSt6vectorIiSaIiEEEELb1EE7_S_baseES7_
FNDA:0,_ZNSt10_Iter_baseIPiLb0EE7_S_baseES0_
FNDA:0,_ZNSt10_Iter_baseIN9__gnu_cxx17__normal_iteratorIPKiSt6vectorIiSaIiEEEELb0EE7_S_baseES7_
FNDA:0,_ZNSt10_Iter_baseIPP7myTemp_Lb0EE7_S_baseES2_
FNDA:0,_ZNSt10_Iter_baseIN9__gnu_cxx17__normal_iteratorIPKP7myTemp_St6vectorIS3_SaIS3_EEEELb0EE7_S_baseES9_
FNDA:0,_ZNSt10_Iter_baseIN9__gnu_cxx17__normal_iteratorIPKiSt6vectorIiSaIiEEEELb1EE7_S_baseES7_
FNDA:0,_ZNSt10_Iter_baseISt13move_iteratorIPP7myTemp_ELb1EE7_S_baseES4_
FNDA:0,_ZNSt10_Iter_baseIN9__gnu_cxx17__normal_iteratorIPKP7myTemp_St6vectorIS3_SaIS3_EEEELb1EE7_S_baseES9_
FNF:7
FNH:0
DA:212,0
DA:213,0
DA:220,0
DA:221,0
LF:4
LH:0
end_of_record
SF:/usr/include/c++/4.8/bits/stl_map.h
FN:96,_ZNSt3mapIP7myTemp_iSt4lessIS1_ESaISt4pairIKS1_iEEED2Ev
FN:160,_ZNSt3mapIP7myTemp_iSt4lessIS1_ESaISt4pairIKS1_iEEEC2Ev
FN:338,_ZNSt3mapIP7myTemp_iSt4lessIS1_ESaISt4pairIKS1_iEEE3endEv
FN:456,_ZNSt3mapIP7myTemp_iSt4lessIS1_ESaISt4pairIKS1_iEEEixERS5_
FN:797,_ZNKSt3mapIP7myTemp_iSt4lessIS1_ESaISt4pairIKS1_iEEE8key_compEv
FN:821,_ZNSt3mapIP7myTemp_iSt4lessIS1_ESaISt4pairIKS1_iEEE4findERS5_
FN:863,_ZNSt3mapIP7myTemp_iSt4lessIS1_ESaISt4pairIKS1_iEEE11lower_boundERS5_
FNDA:0,_ZNSt3mapIP7myTemp_iSt4lessIS1_ESaISt4pairIKS1_iEEED2Ev
FNDA:11,_ZNSt3mapIP7myTemp_iSt4lessIS1_ESaISt4pairIKS1_iEEEC2Ev
FNDA:111,_ZNSt3mapIP7myTemp_iSt4lessIS1_ESaISt4pairIKS1_iEEE3endEv
FNDA:35,_ZNSt3mapIP7myTemp_iSt4lessIS1_ESaISt4pairIKS1_iEEEixERS5_
FNDA:0,_ZNKSt3mapIP7myTemp_iSt4lessIS1_ESaISt4pairIKS1_iEEE8key_compEv
FNDA:76,_ZNSt3mapIP7myTemp_iSt4lessIS1_ESaISt4pairIKS1_iEEE4findERS5_
FNDA:35,_ZNSt3mapIP7myTemp_iSt4lessIS1_ESaISt4pairIKS1_iEEE11lower_boundERS5_
FNF:7
FNH:5
DA:96,0
DA:160,11
DA:161,11
DA:338,111
DA:339,111
DA:456,35
DA:461,35
DA:463,35
DA:465,35
DA:471,35
DA:797,0
DA:798,0
DA:821,76
DA:822,76
DA:863,35
DA:864,35
LF:16
LH:13
end_of_record
SF:/usr/include/c++/4.8/bits/stl_pair.h
FN:133,_ZNSt4pairIPSt18_Rb_tree_node_baseS1_EC2IRS1_vEEOT_RKS1_
FN:138,_ZNSt4pairIPSt18_Rb_tree_node_baseS1_EC2IRS1_vEERKS1_OT_
FN:144,_ZNSt4pairIPSt18_Rb_tree_node_baseS1_EC2IRPSt13_Rb_tree_nodeIS_IKP7myTemp_iEESB_vEEOT_OT0_
FN:144,_ZNSt4pairIPSt18_Rb_tree_node_baseS1_EC2IRS1_S4_vEEOT_OT0_
FNDA:0,_ZNSt4pairIPSt18_Rb_tree_node_baseS1_EC2IRS1_vEEOT_RKS1_
FNDA:0,_ZNSt4pairIPSt18_Rb_tree_node_baseS1_EC2IRS1_vEERKS1_OT_
FNDA:10,_ZNSt4pairIPSt18_Rb_tree_node_baseS1_EC2IRPSt13_Rb_tree_nodeIS_IKP7myTemp_iEESB_vEEOT_OT0_
FNDA:0,_ZNSt4pairIPSt18_Rb_tree_node_baseS1_EC2IRS1_S4_vEEOT_OT0_
FNF:4
FNH:1
DA:133,0
DA:134,0
DA:138,0
DA:139,0
DA:144,10
DA:145,10
LF:6
LH:2
end_of_record
SF:/usr/include/c++/4.8/bits/stl_tree.h
FN:138,_ZNSt13_Rb_tree_nodeISt4pairIKP7myTemp_iEEC2IIRKSt21piecewise_construct_tSt5tupleIIRS3_EESA_IIEEEEEDpOT_
FN:174,_ZNSt17_Rb_tree_iteratorISt4pairIKP7myTemp_iEEC2EPSt13_Rb_tree_nodeIS4_E
FN:178,_ZNKSt17_Rb_tree_iteratorISt4pairIKP7myTemp_iEEdeEv
FN:187,_ZNSt17_Rb_tree_iteratorISt4pairIKP7myTemp_iEEppEv
FN:202,_ZNSt17_Rb_tree_iteratorISt4pairIKP7myTemp_iEEmmEv
FN:217,_ZNKSt17_Rb_tree_iteratorISt4pairIKP7myTemp_iEEeqERKS5_
FN:250,_ZNSt23_Rb_tree_const_iteratorISt4pairIKP7myTemp_iEEC2ERKSt17_Rb_tree_iteratorIS4_E
FN:254,_ZNKSt23_Rb_tree_const_iteratorISt4pairIKP7myTemp_iEE13_M_const_castEv
FN:356,_ZNSt8_Rb_treeIP7myTemp_St4pairIKS1_iESt10_Select1stIS4_ESt4lessIS1_ESaIS4_EE21_M_get_Node_allocatorEv
FN:369,_ZNSt8_Rb_treeIP7myTemp_St4pairIKS1_iESt10_Select1stIS4_ESt4lessIS1_ESaIS4_EE11_M_get_nodeEv
FN:373,_ZNSt8_Rb_treeIP7myTemp_St4pairIKS1_iESt10_Select1stIS4_ESt4lessIS1_ESaIS4_EE11_M_put_nodeEPSt13_Rb_tree_nodeIS4_E
FN:401,_ZNSt8_Rb_treeIP7myTemp_St4pairIKS1_iESt10_Select1stIS4_ESt4lessIS1_ESaIS4_EE14_M_create_nodeIIRKSt21piecewise_construct_tSt5tupleIIRS3_EESF_IIEEEEEPSt13_Rb_tree_nodeIS4_EDpOT_
FN:419,_ZNSt8_Rb_treeIP7myTemp_St4pairIKS1_iESt10_Select1stIS4_ESt4lessIS1_ESaIS4_EE15_M_destroy_nodeEPSt13_Rb_tree_nodeIS4_E
FN:439,_ZNSt8_Rb_treeIP7myTemp_St4pairIKS1_iESt10_Select1stIS4_ESt4lessIS1_ESaIS4_EE13_Rb_tree_implIS8_Lb1EED2Ev
FN:445,_ZNSt8_Rb_treeIP7myTemp_St4pairIKS1_iESt10_Select1stIS4_ESt4lessIS1_ESaIS4_EE13_Rb_tree_implIS8_Lb1EEC2Ev
FN:464,_ZNSt8_Rb_treeIP7myTemp_St4pairIKS1_iESt10_Select1stIS4_ESt4lessIS1_ESaIS4_EE13_Rb_tree_implIS8_Lb1EE13_M_initializeEv
FN:485,_ZNSt8_Rb_treeIP7myTemp_St4pairIKS1_iESt10_Select1stIS4_ESt4lessIS1_ESaIS4_EE11_M_leftmostEv
FN:493,_ZNSt8_Rb_treeIP7myTemp_St4pairIKS1_iESt10_Select1stIS4_ESt4lessIS1_ESaIS4_EE12_M_rightmostEv
FN:501,_ZNSt8_Rb_treeIP7myTemp_St4pairIKS1_iESt10_Select1stIS4_ESt4lessIS1_ESaIS4_EE8_M_beginEv
FN:512,_ZNSt8_Rb_treeIP7myTemp_St4pairIKS1_iESt10_Select1stIS4_ESt4lessIS1_ESaIS4_EE6_M_endEv
FN:520,_ZNSt8_Rb_treeIP7myTemp_St4pairIKS1_iESt10_Select1stIS4_ESt4lessIS1_ESaIS4_EE8_S_valueEPKSt13_Rb_tree_nodeIS4_E
FN:524,_ZNSt8_Rb_treeIP7myTemp_St4pairIKS1_iESt10_Select1stIS4_ESt4lessIS1_ESaIS4_EE6_S_keyEPKSt13_Rb_tree_nodeIS4_E
FN:528,_ZNSt8_Rb_treeIP7myTemp_St4pairIKS1_iESt10_Select1stIS4_ESt4lessIS1_ESaIS4_EE7_S_leftEPSt18_Rb_tree_node_base
FN:536,_ZNSt8_Rb_treeIP7myTemp_St4pairIKS1_iESt10_Select1stIS4_ESt4lessIS1_ESaIS4_EE8_S_rightEPSt18_Rb_tree_node_base
FN:544,_ZNSt8_Rb_treeIP7myTemp_St4pairIKS1_iESt10_Select1stIS4_ESt4lessIS1_ESaIS4_EE8_S_valueEPKSt18_Rb_tree_node_base
FN:548,_ZNSt8_Rb_treeIP7myTemp_St4pairIKS1_iESt10_Select1stIS4_ESt4lessIS1_ESaIS4_EE6_S_keyEPKSt18_Rb_tree_node_base
FN:648,_ZNSt8_Rb_treeIP7myTemp_St4pairIKS1_iESt10_Select1stIS4_ESt4lessIS1_ESaIS4_EEC2Ev
FN:670,_ZNSt8_Rb_treeIP7myTemp_St4pairIKS1_iESt10_Select1stIS4_ESt4lessIS1_ESaIS4_EED2Ev
FN:678,_ZNKSt8_Rb_treeIP7myTemp_St4pairIKS1_iESt10_Select1stIS4_ESt4lessIS1_ESaIS4_EE8key_compEv
FN:682,_ZNSt8_Rb_treeIP7myTemp_St4pairIKS1_iESt10_Select1stIS4_ESt4lessIS1_ESaIS4_EE5beginEv
FN:696,_ZNSt8_Rb_treeIP7myTemp_St4pairIKS1_iESt10_Select1stIS4_ESt4lessIS1_ESaIS4_EE3endEv
FN:727,_ZNKSt8_Rb_treeIP7myTemp_St4pairIKS1_iESt10_Select1stIS4_ESt4lessIS1_ESaIS4_EE4sizeEv
FN:878,_ZNSt8_Rb_treeIP7myTemp_St4pairIKS1_iESt10_Select1stIS4_ESt4lessIS1_ESaIS4_EE11lower_boundERS3_
FN:1119,_ZNSt8_Rb_treeIP7myTemp_St4pairIKS1_iESt10_Select1stIS4_ESt4lessIS1_ESaIS4_EE8_M_eraseEPSt13_Rb_tree_nodeIS4_E
FN:1136,_ZNSt8_Rb_treeIP7myTemp_St4pairIKS1_iESt10_Select1stIS4_ESt4lessIS1_ESaIS4_EE14_M_lower_boundEPSt13_Rb_tree_nodeIS4_ESD_RS3_
FN:1314,_ZNSt8_Rb_treeIP7myTemp_St4pairIKS1_iESt10_Select1stIS4_ESt4lessIS1_ESaIS4_EE24_M_get_insert_unique_posERS3_
FN:1411,_ZNSt8_Rb_treeIP7myTemp_St4pairIKS1_iESt10_Select1stIS4_ESt4lessIS1_ESaIS4_EE29_M_get_insert_hint_unique_posESt23_Rb_tree_const_iteratorIS4_ERS3_
FN:1568,_ZNSt8_Rb_treeIP7myTemp_St4pairIKS1_iESt10_Select1stIS4_ESt4lessIS1_ESaIS4_EE14_M_insert_nodeEPSt18_Rb_tree_node_baseSC_PSt13_Rb_tree_nodeIS4_E
FN:1666,_ZNSt8_Rb_treeIP7myTemp_St4pairIKS1_iESt10_Select1stIS4_ESt4lessIS1_ESaIS4_EE22_M_emplace_hint_uniqueIIRKSt21piecewise_construct_tSt5tupleIIRS3_EESF_IIEEEEESt17_Rb_tree_iteratorIS4_ESt23_Rb_tree_const_iteratorIS4_EDpOT_
FN:1789,_ZNSt8_Rb_treeIP7myTemp_St4pairIKS1_iESt10_Select1stIS4_ESt4lessIS1_ESaIS4_EE4findERS3_
FNDA:35,_ZNSt13_Rb_tree_nodeISt4pairIKP7myTemp_iEEC2IIRKSt21piecewise_construct_tSt5tupleIIRS3_EESA_IIEEEEEDpOT_
FNDA:423,_ZNSt17_Rb_tree_iteratorISt4pairIKP7myTemp_iEEC2EPSt13_Rb_tree_nodeIS4_E
FNDA:46,_ZNKSt17_Rb_tree_iteratorISt4pairIKP7myTemp_iEEdeEv
FNDA:0,_ZNSt17_Rb_tree_iteratorISt4pairIKP7myTemp_iEEppEv
FNDA:7,_ZNSt17_Rb_tree_iteratorISt4pairIKP7myTemp_iEEmmEv
FNDA:197,_ZNKSt17_Rb_tree_iteratorISt4pairIKP7myTemp_iEEeqERKS5_
FNDA:35,_ZNSt23_Rb_tree_const_iteratorISt4pairIKP7myTemp_iEEC2ERKSt17_Rb_tree_iteratorIS4_E
FNDA:35,_ZNKSt23_Rb_tree_const_iteratorISt4pairIKP7myTemp_iEE13_M_const_castEv
FNDA:0,_ZNSt8_Rb_treeIP7myTemp_St4pairIKS1_iESt10_Select1stIS4_ESt4lessIS1_ESaIS4_EE21_M_get_Node_allocatorEv
FNDA:0,_ZNSt8_Rb_treeIP7myTemp_St4pairIKS1_iESt10_Select1stIS4_ESt4lessIS1_ESaIS4_EE11_M_get_nodeEv
FNDA:0,_ZNSt8_Rb_treeIP7myTemp_St4pairIKS1_iESt10_Select1stIS4_ESt4lessIS1_ESaIS4_EE11_M_put_nodeEPSt13_Rb_tree_nodeIS4_E
FNDA:35,_ZNSt8_Rb_treeIP7myTemp_St4pairIKS1_iESt10_Select1stIS4_ESt4lessIS1_ESaIS4_EE14_M_create_nodeIIRKSt21piecewise_construct_tSt5tupleIIRS3_EESF_IIEEEEEPSt13_Rb_tree_nodeIS4_EDpOT_
FNDA:0,_ZNSt8_Rb_treeIP7myTemp_St4pairIKS1_iESt10_Select1stIS4_ESt4lessIS1_ESaIS4_EE15_M_destroy_nodeEPSt13_Rb_tree_nodeIS4_E
FNDA:0,_ZNSt8_Rb_treeIP7myTemp_St4pairIKS1_iESt10_Select1stIS4_ESt4lessIS1_ESaIS4_EE13_Rb_tree_implIS8_Lb1EED2Ev
FNDA:11,_ZNSt8_Rb_treeIP7myTemp_St4pairIKS1_iESt10_Select1stIS4_ESt4lessIS1_ESaIS4_EE13_Rb_tree_implIS8_Lb1EEC2Ev
FNDA:0,_ZNSt8_Rb_treeIP7myTemp_St4pairIKS1_iESt10_Select1stIS4_ESt4lessIS1_ESaIS4_EE13_Rb_tree_implIS8_Lb1EE13_M_initializeEv
FNDA:0,_ZNSt8_Rb_treeIP7myTemp_St4pairIKS1_iESt10_Select1stIS4_ESt4lessIS1_ESaIS4_EE11_M_leftmostEv
FNDA:0,_ZNSt8_Rb_treeIP7myTemp_St4pairIKS1_iESt10_Select1stIS4_ESt4lessIS1_ESaIS4_EE12_M_rightmostEv
FNDA:0,_ZNSt8_Rb_treeIP7myTemp_St4pairIKS1_iESt10_Select1stIS4_ESt4lessIS1_ESaIS4_EE8_M_beginEv
FNDA:0,_ZNSt8_Rb_treeIP7myTemp_St4pairIKS1_iESt10_Select1stIS4_ESt4lessIS1_ESaIS4_EE6_M_endEv
FNDA:0,_ZNSt8_Rb_treeIP7myTemp_St4pairIKS1_iESt10_Select1stIS4_ESt4lessIS1_ESaIS4_EE8_S_valueEPKSt13_Rb_tree_nodeIS4_E
FNDA:0,_ZNSt8_Rb_treeIP7myTemp_St4pairIKS1_iESt10_Select1stIS4_ESt4lessIS1_ESaIS4_EE6_S_keyEPKSt13_Rb_tree_nodeIS4_E
FNDA:0,_ZNSt8_Rb_treeIP7myTemp_St4pairIKS1_iESt10_Select1stIS4_ESt4lessIS1_ESaIS4_EE7_S_leftEPSt18_Rb_tree_node_base
FNDA:0,_ZNSt8_Rb_treeIP7myTemp_St4pairIKS1_iESt10_Select1stIS4_ESt4lessIS1_ESaIS4_EE8_S_rightEPSt18_Rb_tree_node_base
FNDA:100,_ZNSt8_Rb_treeIP7myTemp_St4pairIKS1_iESt10_Select1stIS4_ESt4lessIS1_ESaIS4_EE8_S_valueEPKSt18_Rb_tree_node_base
FNDA:100,_ZNSt8_Rb_treeIP7myTemp_St4pairIKS1_iESt10_Select1stIS4_ESt4lessIS1_ESaIS4_EE6_S_keyEPKSt18_Rb_tree_node_base
FNDA:11,_ZNSt8_Rb_treeIP7myTemp_St4pairIKS1_iESt10_Select1stIS4_ESt4lessIS1_ESaIS4_EEC2Ev
FNDA:0,_ZNSt8_Rb_treeIP7myTemp_St4pairIKS1_iESt10_Select1stIS4_ESt4lessIS1_ESaIS4_EED2Ev
FNDA:0,_ZNKSt8_Rb_treeIP7myTemp_St4pairIKS1_iESt10_Select1stIS4_ESt4lessIS1_ESaIS4_EE8key_compEv
FNDA:10,_ZNSt8_Rb_treeIP7myTemp_St4pairIKS1_iESt10_Select1stIS4_ESt4lessIS1_ESaIS4_EE5beginEv
FNDA:222,_ZNSt8_Rb_treeIP7myTemp_St4pairIKS1_iESt10_Select1stIS4_ESt4lessIS1_ESaIS4_EE3endEv
FNDA:0,_ZNKSt8_Rb_treeIP7myTemp_St4pairIKS1_iESt10_Select1stIS4_ESt4lessIS1_ESaIS4_EE4sizeEv
FNDA:35,_ZNSt8_Rb_treeIP7myTemp_St4pairIKS1_iESt10_Select1stIS4_ESt4lessIS1_ESaIS4_EE11lower_boundERS3_
FNDA:0,_ZNSt8_Rb_treeIP7myTemp_St4pairIKS1_iESt10_Select1stIS4_ESt4lessIS1_ESaIS4_EE8_M_eraseEPSt13_Rb_tree_nodeIS4_E
FNDA:111,_ZNSt8_Rb_treeIP7myTemp_St4pairIKS1_iESt10_Select1stIS4_ESt4lessIS1_ESaIS4_EE14_M_lower_boundEPSt13_Rb_tree_nodeIS4_ESD_RS3_
FNDA:10,_ZNSt8_Rb_treeIP7myTemp_St4pairIKS1_iESt10_Select1stIS4_ESt4lessIS1_ESaIS4_EE24_M_get_insert_unique_posERS3_
FNDA:35,_ZNSt8_Rb_treeIP7myTemp_St4pairIKS1_iESt10_Select1stIS4_ESt4lessIS1_ESaIS4_EE29_M_get_insert_hint_unique_posESt23_Rb_tree_const_iteratorIS4_ERS3_
FNDA:35,_ZNSt8_Rb_treeIP7myTemp_St4pairIKS1_iESt10_Select1stIS4_ESt4lessIS1_ESaIS4_EE14_M_insert_nodeEPSt18_Rb_tree_node_baseSC_PSt13_Rb_tree_nodeIS4_E
FNDA:35,_ZNSt8_Rb_treeIP7myTemp_St4pairIKS1_iESt10_Select1stIS4_ESt4lessIS1_ESaIS4_EE22_M_emplace_hint_uniqueIIRKSt21piecewise_construct_tSt5tupleIIRS3_EESF_IIEEEEESt17_Rb_tree_iteratorIS4_ESt23_Rb_tree_const_iteratorIS4_EDpOT_
FNDA:76,_ZNSt8_Rb_treeIP7myTemp_St4pairIKS1_iESt10_Select1stIS4_ESt4lessIS1_ESaIS4_EE4findERS3_
FNF:40
FNH:21
DA:138,35
DA:140,35
DA:174,423
DA:175,423
DA:178,46
DA:179,46
DA:187,0
DA:189,0
DA:190,0
DA:202,7
DA:204,7
DA:205,7
DA:217,197
DA:218,197
DA:250,35
DA:251,35
DA:254,35
DA:256,35
DA:356,0
DA:357,0
DA:369,0
DA:370,0
DA:373,0
DA:374,0
DA:401,35
DA:403,35
DA:406,35
DA:407,35
DA:408,35
DA:410,0
DA:412,0
DA:413,0
DA:415,35
DA:419,0
DA:421,0
DA:422,0
DA:423,0
DA:439,0
DA:445,11
DA:447,11
DA:448,11
DA:464,0
DA:466,0
DA:467,0
DA:468,0
DA:469,0
DA:470,0
DA:485,0
DA:486,0
DA:493,0
DA:494,0
DA:501,0
DA:502,0
DA:512,0
DA:513,0
DA:520,0
DA:521,0
DA:524,0
DA:525,0
DA:528,0
DA:529,0
DA:536,0
DA:537,0
DA:544,100
DA:545,100
DA:548,100
DA:549,100
DA:648,11
DA:670,0
DA:671,0
DA:678,0
DA:679,0
DA:682,10
DA:685,10
DA:696,222
DA:697,222
DA:727,0
DA:728,0
DA:878,35
DA:879,35
DA:1119,0
DA:1123,0
DA:1125,0
DA:1126,0
DA:1127,0
DA:1128,0
DA:1130,0
DA:1136,111
DA:1140,384
DA:1141,162
DA:1142,87
DA:1144,75
DA:1145,111
DA:1314,10
DA:1318,10
DA:1319,10
DA:1320,10
DA:1321,20
DA:1323,0
DA:1324,0
DA:1325,0
DA:1327,10
DA:1328,10
DA:1330,10
DA:1331,10
DA:1333,0
DA:1335,0
DA:1336,0
DA:1337,0
DA:1411,35
DA:1415,35
DA:1419,35
DA:1421,38
DA:1422,14
DA:1423,14
DA:1425,10
DA:1427,11
DA:1430,11
DA:1431,11
DA:1432,4
DA:1433,7
DA:1435,7
DA:1436,2
DA:1438,5
DA:1441,0
DA:1443,0
DA:1446,0
DA:1447,0
DA:1448,0
DA:1449,0
DA:1451,0
DA:1452,0
DA:1454,0
DA:1457,0
DA:1461,0
DA:1568,35
DA:1571,26
DA:1572,16
DA:1573,77
DA:1575,35
DA:1576,35
DA:1577,35
DA:1578,35
DA:1666,35
DA:1669,35
DA:1673,35
DA:1675,35
DA:1676,35
DA:1678,0
DA:1679,0
DA:1681,0
DA:1683,0
DA:1684,0
DA:1789,76
DA:1792,76
DA:1793,304
DA:1794,52
DA:1795,356
LF:158
LH:83
end_of_record
SF:/usr/include/c++/4.8/bits/stl_uninitialized.h
FN:68,_ZNSt20__uninitialized_copyILb0EE13__uninit_copyIN9__gnu_cxx17__normal_iteratorIPKN5lgxZJ2LA13DirectedGraph8RealNodeESt6vectorIS7_SaIS7_EEEEPS7_EET0_T_SG_SF_
FN:68,_ZNSt20__uninitialized_copyILb0EE13__uninit_copyIN9__gnu_cxx17__normal_iteratorIPKN5lgxZJ2LA4EdgeESt6vectorIS6_SaIS6_EEEEPS6_EET0_T_SF_SE_
FN:68,_ZNSt20__uninitialized_copyILb0EE13__uninit_copyIN9__gnu_cxx17__normal_iteratorIPKSt10shared_ptrIN5lgxZJ2IS3AAIEESt6vectorIS8_SaIS8_EEEEPS8_EET0_T_SH_SG_
FN:91,_ZNSt20__uninitialized_copyILb1EE13__uninit_copyIN9__gnu_cxx17__normal_iteratorIPKiSt6vectorIiSaIiEEEEPiEET0_T_SC_SB_
FN:91,_ZNSt20__uninitialized_copyILb1EE13__uninit_copyIN9__gnu_cxx17__normal_iteratorIPKP7myTemp_St6vectorIS5_SaIS5_EEEEPS5_EET0_T_SE_SD_
FN:91,_ZNSt20__uninitialized_copyILb1EE13__uninit_copyISt13move_iteratorIPP7myTemp_ES5_EET0_T_S8_S7_
FN:107,_ZSt18uninitialized_copyIN9__gnu_cxx17__normal_iteratorIPKP7myTemp_St6vectorIS3_SaIS3_EEEEPS3_ET0_T_SC_SB_
FN:107,_ZSt18uninitialized_copyIN9__gnu_cxx17__normal_iteratorIPKN5lgxZJ2LA4EdgeESt6vectorIS4_SaIS4_EEEEPS4_ET0_T_SD_SC_
FN:107,_ZSt18uninitialized_copyIN9__gnu_cxx17__normal_iteratorIPKN5lgxZJ2LA13DirectedGraph8RealNodeESt6vectorIS5_SaIS5_EEEEPS5_ET0_T_SE_SD_
FN:107,_ZSt18uninitialized_copyIN9__gnu_cxx17__normal_iteratorIPKiSt6vectorIiSaIiEEEEPiET0_T_SA_S9_
FN:107,_ZSt18uninitialized_copyISt13move_iteratorIPP7myTemp_ES3_ET0_T_S6_S5_
FN:107,_ZSt18uninitialized_copyIN9__gnu_cxx17__normal_iteratorIPKSt10shared_ptrIN5lgxZJ2IS3AAIEESt6vectorIS6_SaIS6_EEEEPS6_ET0_T_SF_SE_
FN:256,_ZSt22__uninitialized_copy_aIN9__gnu_cxx17__normal_iteratorIPKP7myTemp_St6vectorIS3_SaIS3_EEEEPS3_S3_ET0_T_SC_SB_RSaIT1_E
FN:256,_ZSt22__uninitialized_copy_aIN9__gnu_cxx17__normal_iteratorIPKiSt6vectorIiSaIiEEEEPiiET0_T_SA_S9_RSaIT1_E
FN:256,_ZSt22__uninitialized_copy_aIN9__gnu_cxx17__normal_iteratorIPKSt10shared_ptrIN5lgxZJ2IS3AAIEESt6vectorIS6_SaIS6_EEEEPS6_S6_ET0_T_SF_SE_RSaIT1_E
FN:256,_ZSt22__uninitialized_copy_aIN9__gnu_cxx17__normal_iteratorIPKN5lgxZJ2LA4EdgeESt6vectorIS4_SaIS4_EEEEPS4_S4_ET0_T_SD_SC_RSaIT1_E
FN:256,_ZSt22__uninitialized_copy_aISt13move_iteratorIPP7myTemp_ES3_S2_ET0_T_S6_S5_RSaIT1_E
FN:256,_ZSt22__uninitialized_copy_aIN9__gnu_cxx17__normal_iteratorIPKN5lgxZJ2LA13DirectedGraph8RealNodeESt6vectorIS5_SaIS5_EEEEPS5_S5_ET0_T_SE_SD_RSaIT1_E
FN:274,_ZSt34__uninitialized_move_if_noexcept_aIPP7myTemp_S2_SaIS1_EET0_T_S5_S4_RT1_
FN:489,_ZNSt27__uninitialized_default_n_1ILb0EE18__uninit_default_nIPSt6vectorIP7myTemp_SaIS4_EEmEEvT_T0_
FN:538,_ZSt25__uninitialized_default_nIPSt6vectorIP7myTemp_SaIS2_EEmEvT_T0_
FN:603,_ZSt27__uninitialized_default_n_aIPSt6vectorIP7myTemp_SaIS2_EEmS4_EvT_T0_RSaIT1_E
FNDA:0,_ZNSt20__uninitialized_copyILb0EE13__uninit_copyIN9__gnu_cxx17__normal_iteratorIPKN5lgxZJ2LA4EdgeESt6vectorIS6_SaIS6_EEEEPS6_EET0_T_SF_SE_
FNDA:0,_ZNSt20__uninitialized_copyILb0EE13__uninit_copyIN9__gnu_cxx17__normal_iteratorIPKN5lgxZJ2LA13DirectedGraph8RealNodeESt6vectorIS7_SaIS7_EEEEPS7_EET0_T_SG_SF_
FNDA:0,_ZNSt20__uninitialized_copyILb0EE13__uninit_copyIN9__gnu_cxx17__normal_iteratorIPKSt10shared_ptrIN5lgxZJ2IS3AAIEESt6vectorIS8_SaIS8_EEEEPS8_EET0_T_SH_SG_
FNDA:0,_ZNSt20__uninitialized_copyILb1EE13__uninit_copyIN9__gnu_cxx17__normal_iteratorIPKiSt6vectorIiSaIiEEEEPiEET0_T_SC_SB_
FNDA:0,_ZNSt20__uninitialized_copyILb1EE13__uninit_copyISt13move_iteratorIPP7myTemp_ES5_EET0_T_S8_S7_
FNDA:0,_ZNSt20__uninitialized_copyILb1EE13__uninit_copyIN9__gnu_cxx17__normal_iteratorIPKP7myTemp_St6vectorIS5_SaIS5_EEEEPS5_EET0_T_SE_SD_
FNDA:0,_ZSt18uninitialized_copyIN9__gnu_cxx17__normal_iteratorIPKiSt6vectorIiSaIiEEEEPiET0_T_SA_S9_
FNDA:0,_ZSt18uninitialized_copyISt13move_iteratorIPP7myTemp_ES3_ET0_T_S6_S5_
FNDA:0,_ZSt18uninitialized_copyIN9__gnu_cxx17__normal_iteratorIPKP7myTemp_St6vectorIS3_SaIS3_EEEEPS3_ET0_T_SC_SB_
FNDA:0,_ZSt18uninitialized_copyIN9__gnu_cxx17__normal_iteratorIPKN5lgxZJ2LA4EdgeESt6vectorIS4_SaIS4_EEEEPS4_ET0_T_SD_SC_
FNDA:0,_ZSt18uninitialized_copyIN9__gnu_cxx17__normal_iteratorIPKN5lgxZJ2LA13DirectedGraph8RealNodeESt6vectorIS5_SaIS5_EEEEPS5_ET0_T_SE_SD_
FNDA:0,_ZSt18uninitialized_copyIN9__gnu_cxx17__normal_iteratorIPKSt10shared_ptrIN5lgxZJ2IS3AAIEESt6vectorIS6_SaIS6_EEEEPS6_ET0_T_SF_SE_
FNDA:0,_ZSt22__uninitialized_copy_aIN9__gnu_cxx17__normal_iteratorIPKiSt6vectorIiSaIiEEEEPiiET0_T_SA_S9_RSaIT1_E
FNDA:0,_ZSt22__uninitialized_copy_aISt13move_iteratorIPP7myTemp_ES3_S2_ET0_T_S6_S5_RSaIT1_E
FNDA:0,_ZSt22__uninitialized_copy_aIN9__gnu_cxx17__normal_iteratorIPKP7myTemp_St6vectorIS3_SaIS3_EEEEPS3_S3_ET0_T_SC_SB_RSaIT1_E
FNDA:0,_ZSt22__uninitialized_copy_aIN9__gnu_cxx17__normal_iteratorIPKN5lgxZJ2LA4EdgeESt6vectorIS4_SaIS4_EEEEPS4_S4_ET0_T_SD_SC_RSaIT1_E
FNDA:0,_ZSt22__uninitialized_copy_aIN9__gnu_cxx17__normal_iteratorIPKN5lgxZJ2LA13DirectedGraph8RealNodeESt6vectorIS5_SaIS5_EEEEPS5_S5_ET0_T_SE_SD_RSaIT1_E
FNDA:0,_ZSt22__uninitialized_copy_aIN9__gnu_cxx17__normal_iteratorIPKSt10shared_ptrIN5lgxZJ2IS3AAIEESt6vectorIS6_SaIS6_EEEEPS6_S6_ET0_T_SF_SE_RSaIT1_E
FNDA:0,_ZSt34__uninitialized_move_if_noexcept_aIPP7myTemp_S2_SaIS1_EET0_T_S5_S4_RT1_
FNDA:0,_ZNSt27__uninitialized_default_n_1ILb0EE18__uninit_default_nIPSt6vectorIP7myTemp_SaIS4_EEmEEvT_T0_
FNDA:0,_ZSt25__uninitialized_default_nIPSt6vectorIP7myTemp_SaIS2_EEmEvT_T0_
FNDA:0,_ZSt27__uninitialized_default_n_aIPSt6vectorIP7myTemp_SaIS2_EEmS4_EvT_T0_RSaIT1_E
FNF:22
FNH:0
DA:68,0
DA:71,0
DA:74,0
DA:75,0
DA:76,0
DA:78,0
DA:80,0
DA:81,0
DA:91,0
DA:93,0
DA:107,0
DA:117,0
DA:256,0
DA:258,0
DA:274,0
DA:281,0
DA:489,0
DA:491,0
DA:494,0
DA:495,0
DA:497,0
DA:499,0
DA:500,0
DA:502,0
DA:538,0
DA:543,0
DA:545,0
DA:603,0
DA:605,0
LF:29
LH:0
end_of_record
SF:/usr/include/c++/4.8/bits/stl_vector.h
FN:79,_ZNSt12_Vector_baseISt6vectorIP7myTemp_SaIS2_EESaIS4_EE12_Vector_implD2Ev
FN:79,_ZNSt12_Vector_baseIiSaIiEE12_Vector_implD2Ev
FN:79,_ZNSt12_Vector_baseIN5lgxZJ2LA4EdgeESaIS2_EE12_Vector_implD2Ev
FN:79,_ZNSt12_Vector_baseISt10shared_ptrIN5lgxZJ2IS3AAIEESaIS4_EE12_Vector_implD2Ev
FN:79,_ZNSt12_Vector_baseIN5lgxZJ2LA13DirectedGraph8RealNodeESaIS3_EE12_Vector_implD2Ev
FN:79,_ZNSt12_Vector_baseIP7myTemp_SaIS1_EE12_Vector_implD2Ev
FN:86,_ZNSt12_Vector_baseIP7myTemp_SaIS1_EE12_Vector_implC2Ev
FN:90,_ZNSt12_Vector_baseIN5lgxZJ2LA13DirectedGraph8RealNodeESaIS3_EE12_Vector_implC2ERKS4_
FN:90,_ZNSt12_Vector_baseISt6vectorIP7myTemp_SaIS2_EESaIS4_EE12_Vector_implC2ERKS5_
FN:90,_ZNSt12_Vector_baseIiSaIiEE12_Vector_implC2ERKS0_
FN:90,_ZNSt12_Vector_baseISt10shared_ptrIN5lgxZJ2IS3AAIEESaIS4_EE12_Vector_implC2ERKS5_
FN:90,_ZNSt12_Vector_baseIN5lgxZJ2LA4EdgeESaIS2_EE12_Vector_implC2ERKS3_
FN:90,_ZNSt12_Vector_baseIP7myTemp_SaIS1_EE12_Vector_implC2ERKS2_
FN:113,_ZNSt12_Vector_baseISt6vectorIP7myTemp_SaIS2_EESaIS4_EE19_M_get_Tp_allocatorEv
FN:113,_ZNSt12_Vector_baseIiSaIiEE19_M_get_Tp_allocatorEv
FN:113,_ZNSt12_Vector_baseIN5lgxZJ2LA4EdgeESaIS2_EE19_M_get_Tp_allocatorEv
FN:113,_ZNSt12_Vector_baseISt10shared_ptrIN5lgxZJ2IS3AAIEESaIS4_EE19_M_get_Tp_allocatorEv
FN:113,_ZNSt12_Vector_baseIN5lgxZJ2LA13DirectedGraph8RealNodeESaIS3_EE19_M_get_Tp_allocatorEv
FN:113,_ZNSt12_Vector_baseIP7myTemp_SaIS1_EE19_M_get_Tp_allocatorEv
FN:117,_ZNKSt12_Vector_baseIiSaIiEE19_M_get_Tp_allocatorEv
FN:117,_ZNKSt12_Vector_baseIN5lgxZJ2LA13DirectedGraph8RealNodeESaIS3_EE19_M_get_Tp_allocatorEv
FN:117,_ZNKSt12_Vector_baseISt10shared_ptrIN5lgxZJ2IS3AAIEESaIS4_EE19_M_get_Tp_allocatorEv
FN:117,_ZNKSt12_Vector_baseIP7myTemp_SaIS1_EE19_M_get_Tp_allocatorEv
FN:117,_ZNKSt12_Vector_baseIN5lgxZJ2LA4EdgeESaIS2_EE19_M_get_Tp_allocatorEv
FN:124,_ZNSt12_Vector_baseIP7myTemp_SaIS1_EEC2Ev
FN:134,_ZNSt12_Vector_baseIN5lgxZJ2LA4EdgeESaIS2_EEC2EmRKS3_
FN:134,_ZNSt12_Vector_baseIN5lgxZJ2LA13DirectedGraph8RealNodeESaIS3_EEC2EmRKS4_
FN:134,_ZNSt12_Vector_baseISt6vectorIP7myTemp_SaIS2_EESaIS4_EEC2EmRKS5_
FN:134,_ZNSt12_Vector_baseISt10shared_ptrIN5lgxZJ2IS3AAIEESaIS4_EEC2EmRKS5_
FN:134,_ZNSt12_Vector_baseIiSaIiEEC2EmRKS0_
FN:134,_ZNSt12_Vector_baseIP7myTemp_SaIS1_EEC2EmRKS2_
FN:159,_ZNSt12_Vector_baseIN5lgxZJ2LA13DirectedGraph8RealNodeESaIS3_EED2Ev
FN:159,_ZNSt12_Vector_baseIP7myTemp_SaIS1_EED2Ev
FN:159,_ZNSt12_Vector_baseISt6vectorIP7myTemp_SaIS2_EESaIS4_EED2Ev
FN:159,_ZNSt12_Vector_baseIN5lgxZJ2LA4EdgeESaIS2_EED2Ev
FN:159,_ZNSt12_Vector_baseIiSaIiEED2Ev
FN:159,_ZNSt12_Vector_baseISt10shared_ptrIN5lgxZJ2IS3AAIEESaIS4_EED2Ev
FN:167,_ZNSt12_Vector_baseIN5lgxZJ2LA13DirectedGraph8RealNodeESaIS3_EE11_M_allocateEm
FN:167,_ZNSt12_Vector_baseISt6vectorIP7myTemp_SaIS2_EESaIS4_EE11_M_allocateEm
FN:167,_ZNSt12_Vector_baseISt10shared_ptrIN5lgxZJ2IS3AAIEESaIS4_EE11_M_allocateEm
FN:167,_ZNSt12_Vector_baseIN5lgxZJ2LA4EdgeESaIS2_EE11_M_allocateEm
FN:167,_ZNSt12_Vector_baseIiSaIiEE11_M_allocateEm
FN:167,_ZNSt12_Vector_baseIP7myTemp_SaIS1_EE11_M_allocateEm
FN:171,_ZNSt12_Vector_baseIiSaIiEE13_M_deallocateEPim
FN:171,_ZNSt12_Vector_baseISt10shared_ptrIN5lgxZJ2IS3AAIEESaIS4_EE13_M_deallocateEPS4_m
FN:171,_ZNSt12_Vector_baseIN5lgxZJ2LA4EdgeESaIS2_EE13_M_deallocateEPS2_m
FN:171,_ZNSt12_Vector_baseISt6vectorIP7myTemp_SaIS2_EESaIS4_EE13_M_deallocateEPS4_m
FN:171,_ZNSt12_Vector_baseIP7myTemp_SaIS1_EE13_M_deallocateEPS1_m
FN:171,_ZNSt12_Vector_baseIN5lgxZJ2LA13DirectedGraph8RealNodeESaIS3_EE13_M_deallocateEPS3_m
FN:179,_ZNSt12_Vector_baseIiSaIiEE17_M_create_storageEm
FN:179,_ZNSt12_Vector_baseIP7myTemp_SaIS1_EE17_M_create_storageEm
FN:179,_ZNSt12_Vector_baseIN5lgxZJ2LA4EdgeESaIS2_EE17_M_create_storageEm
FN:179,_ZNSt12_Vector_baseISt10shared_ptrIN5lgxZJ2IS3AAIEESaIS4_EE17_M_create_storageEm
FN:179,_ZNSt12_Vector_baseIN5lgxZJ2LA13DirectedGraph8RealNodeESaIS3_EE17_M_create_storageEm
FN:179,_ZNSt12_Vector_baseISt6vectorIP7myTemp_SaIS2_EESaIS4_EE17_M_create_storageEm
FN:248,_ZNSt6vectorIP7myTemp_SaIS1_EEC2Ev
FN:269,_ZNSt6vectorIS_IP7myTemp_SaIS1_EESaIS3_EEC2EmRKS4_
FN:310,_ZNSt6vectorIiSaIiEEC2ERKS1_
FN:310,_ZNSt6vectorIN5lgxZJ2LA4EdgeESaIS2_EEC2ERKS4_
FN:310,_ZNSt6vectorIN5lgxZJ2LA13DirectedGraph8RealNodeESaIS3_EEC2ERKS5_
FN:310,_ZNSt6vectorIP7myTemp_SaIS1_EEC2ERKS3_
FN:310,_ZNSt6vectorISt10shared_ptrIN5lgxZJ2IS3AAIEESaIS4_EEC2ERKS6_
FN:414,_ZNSt6vectorIN5lgxZJ2LA13DirectedGraph8RealNodeESaIS3_EED2Ev
FN:414,_ZNSt6vectorISt10shared_ptrIN5lgxZJ2IS3AAIEESaIS4_EED2Ev
FN:414,_ZNSt6vectorIP7myTemp_SaIS1_EED2Ev
FN:414,_ZNSt6vectorIS_IP7myTemp_SaIS1_EESaIS3_EED2Ev
FN:414,_ZNSt6vectorIN5lgxZJ2LA4EdgeESaIS2_EED2Ev
FN:414,_ZNSt6vectorIiSaIiEED2Ev
FN:538,_ZNSt6vectorIP7myTemp_SaIS1_EE5beginEv
FN:547,_ZNKSt6vectorISt10shared_ptrIN5lgxZJ2IS3AAIEESaIS4_EE5beginEv
FN:547,_ZNKSt6vectorIN5lgxZJ2LA13DirectedGraph8RealNodeESaIS3_EE5beginEv
FN:547,_ZNKSt6vectorIN5lgxZJ2LA4EdgeESaIS2_EE5beginEv
FN:547,_ZNKSt6vectorIiSaIiEE5beginEv
FN:547,_ZNKSt6vectorIP7myTemp_SaIS1_EE5beginEv
FN:556,_ZNSt6vectorIP7myTemp_SaIS1_EE3endEv
FN:565,_ZNKSt6vectorIP7myTemp_SaIS1_EE3endEv
FN:565,_ZNKSt6vectorIN5lgxZJ2LA4EdgeESaIS2_EE3endEv
FN:565,_ZNKSt6vectorIN5lgxZJ2LA13DirectedGraph8RealNodeESaIS3_EE3endEv
FN:565,_ZNKSt6vectorIiSaIiEE3endEv
FN:565,_ZNKSt6vectorISt10shared_ptrIN5lgxZJ2IS3AAIEESaIS4_EE3endEv
FN:645,_ZNKSt6vectorIiSaIiEE4sizeEv
FN:645,_ZNKSt6vectorIN5lgxZJ2LA13DirectedGraph8RealNodeESaIS3_EE4sizeEv
FN:645,_ZNKSt6vectorIP7myTemp_SaIS1_EE4sizeEv
FN:645,_ZNKSt6vectorISt10shared_ptrIN5lgxZJ2IS3AAIEESaIS4_EE4sizeEv
FN:645,_ZNKSt6vectorIS_IP7myTemp_SaIS1_EESaIS3_EE4sizeEv
FN:645,_ZNKSt6vectorIN5lgxZJ2LA4EdgeESaIS2_EE4sizeEv
FN:650,_ZNKSt6vectorIP7myTemp_SaIS1_EE8max_sizeEv
FN:770,_ZNSt6vectorISt10shared_ptrIN5lgxZJ2IS3AAIEESaIS4_EEixEm
FN:770,_ZNSt6vectorIS_IP7myTemp_SaIS1_EESaIS3_EEixEm
FN:785,_ZNKSt6vectorIS_IP7myTemp_SaIS1_EESaIS3_EEixEm
FN:785,_ZNKSt6vectorISt10shared_ptrIN5lgxZJ2IS3AAIEESaIS4_EEixEm
FN:791,_ZNKSt6vectorIS_IP7myTemp_SaIS1_EESaIS3_EE14_M_range_checkEm
FN:791,_ZNKSt6vectorISt10shared_ptrIN5lgxZJ2IS3AAIEESaIS4_EE14_M_range_checkEm
FN:810,_ZNSt6vectorIS_IP7myTemp_SaIS1_EESaIS3_EE2atEm
FN:810,_ZNSt6vectorISt10shared_ptrIN5lgxZJ2IS3AAIEESaIS4_EE2atEm
FN:828,_ZNKSt6vectorIS_IP7myTemp_SaIS1_EESaIS3_EE2atEm
FN:828,_ZNKSt6vectorISt10shared_ptrIN5lgxZJ2IS3AAIEESaIS4_EE2atEm
FN:901,_ZNSt6vectorIP7myTemp_SaIS1_EE9push_backERKS1_
FN:1222,_ZNSt6vectorIS_IP7myTemp_SaIS1_EESaIS3_EE21_M_default_initializeEm
FN:1336,_ZNKSt6vectorIP7myTemp_SaIS1_EE12_M_check_lenEmPKc
FNDA:0,_ZNSt12_Vector_baseIiSaIiEE12_Vector_implD2Ev
FNDA:0,_ZNSt12_Vector_baseIP7myTemp_SaIS1_EE12_Vector_implD2Ev
FNDA:0,_ZNSt12_Vector_baseISt6vectorIP7myTemp_SaIS2_EESaIS4_EE12_Vector_implD2Ev
FNDA:0,_ZNSt12_Vector_baseIN5lgxZJ2LA4EdgeESaIS2_EE12_Vector_implD2Ev
FNDA:0,_ZNSt12_Vector_baseIN5lgxZJ2LA13DirectedGraph8RealNodeESaIS3_EE12_Vector_implD2Ev
FNDA:0,_ZNSt12_Vector_baseISt10shared_ptrIN5lgxZJ2IS3AAIEESaIS4_EE12_Vector_implD2Ev
FNDA:0,_ZNSt12_Vector_baseIP7myTemp_SaIS1_EE12_Vector_implC2Ev
FNDA:0,_ZNSt12_Vector_baseIiSaIiEE12_Vector_implC2ERKS0_
FNDA:0,_ZNSt12_Vector_baseIP7myTemp_SaIS1_EE12_Vector_implC2ERKS2_
FNDA:0,_ZNSt12_Vector_baseIN5lgxZJ2LA4EdgeESaIS2_EE12_Vector_implC2ERKS3_
FNDA:0,_ZNSt12_Vector_baseIN5lgxZJ2LA13DirectedGraph8RealNodeESaIS3_EE12_Vector_implC2ERKS4_
FNDA:0,_ZNSt12_Vector_baseISt6vectorIP7myTemp_SaIS2_EESaIS4_EE12_Vector_implC2ERKS5_
FNDA:0,_ZNSt12_Vector_baseISt10shared_ptrIN5lgxZJ2IS3AAIEESaIS4_EE12_Vector_implC2ERKS5_
FNDA:0,_ZNSt12_Vector_baseIiSaIiEE19_M_get_Tp_allocatorEv
FNDA:0,_ZNSt12_Vector_baseIP7myTemp_SaIS1_EE19_M_get_Tp_allocatorEv
FNDA:0,_ZNSt12_Vector_baseISt6vectorIP7myTemp_SaIS2_EESaIS4_EE19_M_get_Tp_allocatorEv
FNDA:0,_ZNSt12_Vector_baseIN5lgxZJ2LA4EdgeESaIS2_EE19_M_get_Tp_allocatorEv
FNDA:0,_ZNSt12_Vector_baseIN5lgxZJ2LA13DirectedGraph8RealNodeESaIS3_EE19_M_get_Tp_allocatorEv
FNDA:0,_ZNSt12_Vector_baseISt10shared_ptrIN5lgxZJ2IS3AAIEESaIS4_EE19_M_get_Tp_allocatorEv
FNDA:0,_ZNKSt12_Vector_baseIiSaIiEE19_M_get_Tp_allocatorEv
FNDA:0,_ZNKSt12_Vector_baseIP7myTemp_SaIS1_EE19_M_get_Tp_allocatorEv
FNDA:0,_ZNKSt12_Vector_baseIN5lgxZJ2LA4EdgeESaIS2_EE19_M_get_Tp_allocatorEv
FNDA:0,_ZNKSt12_Vector_baseIN5lgxZJ2LA13DirectedGraph8RealNodeESaIS3_EE19_M_get_Tp_allocatorEv
FNDA:0,_ZNKSt12_Vector_baseISt10shared_ptrIN5lgxZJ2IS3AAIEESaIS4_EE19_M_get_Tp_allocatorEv
FNDA:0,_ZNSt12_Vector_baseIP7myTemp_SaIS1_EEC2Ev
FNDA:0,_ZNSt12_Vector_baseIiSaIiEEC2EmRKS0_
FNDA:0,_ZNSt12_Vector_baseIP7myTemp_SaIS1_EEC2EmRKS2_
FNDA:0,_ZNSt12_Vector_baseIN5lgxZJ2LA4EdgeESaIS2_EEC2EmRKS3_
FNDA:0,_ZNSt12_Vector_baseIN5lgxZJ2LA13DirectedGraph8RealNodeESaIS3_EEC2EmRKS4_
FNDA:0,_ZNSt12_Vector_baseISt6vectorIP7myTemp_SaIS2_EESaIS4_EEC2EmRKS5_
FNDA:0,_ZNSt12_Vector_baseISt10shared_ptrIN5lgxZJ2IS3AAIEESaIS4_EEC2EmRKS5_
FNDA:0,_ZNSt12_Vector_baseIiSaIiEED2Ev
FNDA:0,_ZNSt12_Vector_baseIP7myTemp_SaIS1_EED2Ev
FNDA:0,_ZNSt12_Vector_baseISt6vectorIP7myTemp_SaIS2_EESaIS4_EED2Ev
FNDA:0,_ZNSt12_Vector_baseIN5lgxZJ2LA4EdgeESaIS2_EED2Ev
FNDA:0,_ZNSt12_Vector_baseIN5lgxZJ2LA13DirectedGraph8RealNodeESaIS3_EED2Ev
FNDA:0,_ZNSt12_Vector_baseISt10shared_ptrIN5lgxZJ2IS3AAIEESaIS4_EED2Ev
FNDA:0,_ZNSt12_Vector_baseIiSaIiEE11_M_allocateEm
FNDA:0,_ZNSt12_Vector_baseIN5lgxZJ2LA4EdgeESaIS2_EE11_M_allocateEm
FNDA:0,_ZNSt12_Vector_baseIN5lgxZJ2LA13DirectedGraph8RealNodeESaIS3_EE11_M_allocateEm
FNDA:0,_ZNSt12_Vector_baseISt6vectorIP7myTemp_SaIS2_EESaIS4_EE11_M_allocateEm
FNDA:0,_ZNSt12_Vector_baseISt10shared_ptrIN5lgxZJ2IS3AAIEESaIS4_EE11_M_allocateEm
FNDA:0,_ZNSt12_Vector_baseIP7myTemp_SaIS1_EE11_M_allocateEm
FNDA:0,_ZNSt12_Vector_baseIiSaIiEE13_M_deallocateEPim
FNDA:0,_ZNSt12_Vector_baseIP7myTemp_SaIS1_EE13_M_deallocateEPS1_m
FNDA:0,_ZNSt12_Vector_baseISt6vectorIP7myTemp_SaIS2_EESaIS4_EE13_M_deallocateEPS4_m
FNDA:0,_ZNSt12_Vector_baseIN5lgxZJ2LA4EdgeESaIS2_EE13_M_deallocateEPS2_m
FNDA:0,_ZNSt12_Vector_baseIN5lgxZJ2LA13DirectedGraph8RealNodeESaIS3_EE13_M_deallocateEPS3_m
FNDA:0,_ZNSt12_Vector_baseISt10shared_ptrIN5lgxZJ2IS3AAIEESaIS4_EE13_M_deallocateEPS4_m
FNDA:0,_ZNSt12_Vector_baseIiSaIiEE17_M_create_storageEm
FNDA:0,_ZNSt12_Vector_baseIP7myTemp_SaIS1_EE17_M_create_storageEm
FNDA:0,_ZNSt12_Vector_baseIN5lgxZJ2LA4EdgeESaIS2_EE17_M_create_storageEm
FNDA:0,_ZNSt12_Vector_baseIN5lgxZJ2LA13DirectedGraph8RealNodeESaIS3_EE17_M_create_storageEm
FNDA:0,_ZNSt12_Vector_baseISt6vectorIP7myTemp_SaIS2_EESaIS4_EE17_M_create_storageEm
FNDA:0,_ZNSt12_Vector_baseISt10shared_ptrIN5lgxZJ2IS3AAIEESaIS4_EE17_M_create_storageEm
FNDA:0,_ZNSt6vectorIP7myTemp_SaIS1_EEC2Ev
FNDA:22,_ZNSt6vectorIS_IP7myTemp_SaIS1_EESaIS3_EEC2EmRKS4_
FNDA:0,_ZNSt6vectorIiSaIiEEC2ERKS1_
FNDA:0,_ZNSt6vectorIP7myTemp_SaIS1_EEC2ERKS3_
FNDA:0,_ZNSt6vectorIN5lgxZJ2LA4EdgeESaIS2_EEC2ERKS4_
FNDA:0,_ZNSt6vectorIN5lgxZJ2LA13DirectedGraph8RealNodeESaIS3_EEC2ERKS5_
FNDA:0,_ZNSt6vectorISt10shared_ptrIN5lgxZJ2IS3AAIEESaIS4_EEC2ERKS6_
FNDA:0,_ZNSt6vectorIiSaIiEED2Ev
FNDA:0,_ZNSt6vectorIP7myTemp_SaIS1_EED2Ev
FNDA:0,_ZNSt6vectorIS_IP7myTemp_SaIS1_EESaIS3_EED2Ev
FNDA:0,_ZNSt6vectorIN5lgxZJ2LA4EdgeESaIS2_EED2Ev
FNDA:0,_ZNSt6vectorIN5lgxZJ2LA13DirectedGraph8RealNodeESaIS3_EED2Ev
FNDA:0,_ZNSt6vectorISt10shared_ptrIN5lgxZJ2IS3AAIEESaIS4_EED2Ev
FNDA:0,_ZNSt6vectorIP7myTemp_SaIS1_EE5beginEv
FNDA:0,_ZNKSt6vectorIiSaIiEE5beginEv
FNDA:0,_ZNKSt6vectorIP7myTemp_SaIS1_EE5beginEv
FNDA:0,_ZNKSt6vectorIN5lgxZJ2LA4EdgeESaIS2_EE5beginEv
FNDA:0,_ZNKSt6vectorIN5lgxZJ2LA13DirectedGraph8RealNodeESaIS3_EE5beginEv
FNDA:0,_ZNKSt6vectorISt10shared_ptrIN5lgxZJ2IS3AAIEESaIS4_EE5beginEv
FNDA:0,_ZNSt6vectorIP7myTemp_SaIS1_EE3endEv
FNDA:0,_ZNKSt6vectorIiSaIiEE3endEv
FNDA:0,_ZNKSt6vectorIP7myTemp_SaIS1_EE3endEv
FNDA:0,_ZNKSt6vectorIN5lgxZJ2LA4EdgeESaIS2_EE3endEv
FNDA:0,_ZNKSt6vectorIN5lgxZJ2LA13DirectedGraph8RealNodeESaIS3_EE3endEv
FNDA:0,_ZNKSt6vectorISt10shared_ptrIN5lgxZJ2IS3AAIEESaIS4_EE3endEv
FNDA:0,_ZNKSt6vectorIiSaIiEE4sizeEv
FNDA:0,_ZNKSt6vectorIP7myTemp_SaIS1_EE4sizeEv
FNDA:0,_ZNKSt6vectorIN5lgxZJ2LA4EdgeESaIS2_EE4sizeEv
FNDA:0,_ZNKSt6vectorIN5lgxZJ2LA13DirectedGraph8RealNodeESaIS3_EE4sizeEv
FNDA:0,_ZNKSt6vectorIS_IP7myTemp_SaIS1_EESaIS3_EE4sizeEv
FNDA:0,_ZNKSt6vectorISt10shared_ptrIN5lgxZJ2IS3AAIEESaIS4_EE4sizeEv
FNDA:0,_ZNKSt6vectorIP7myTemp_SaIS1_EE8max_sizeEv
FNDA:0,_ZNSt6vectorIS_IP7myTemp_SaIS1_EESaIS3_EEixEm
FNDA:289,_ZNSt6vectorISt10shared_ptrIN5lgxZJ2IS3AAIEESaIS4_EEixEm
FNDA:8,_ZNKSt6vectorISt10shared_ptrIN5lgxZJ2IS3AAIEESaIS4_EEixEm
FNDA:16,_ZNKSt6vectorIS_IP7myTemp_SaIS1_EESaIS3_EEixEm
FNDA:0,_ZNKSt6vectorIS_IP7myTemp_SaIS1_EESaIS3_EE14_M_range_checkEm
FNDA:297,_ZNKSt6vectorISt10shared_ptrIN5lgxZJ2IS3AAIEESaIS4_EE14_M_range_checkEm
FNDA:0,_ZNSt6vectorIS_IP7myTemp_SaIS1_EESaIS3_EE2atEm
FNDA:289,_ZNSt6vectorISt10shared_ptrIN5lgxZJ2IS3AAIEESaIS4_EE2atEm
FNDA:8,_ZNKSt6vectorISt10shared_ptrIN5lgxZJ2IS3AAIEESaIS4_EE2atEm
FNDA:16,_ZNKSt6vectorIS_IP7myTemp_SaIS1_EESaIS3_EE2atEm
FNDA:0,_ZNSt6vectorIP7myTemp_SaIS1_EE9push_backERKS1_
FNDA:22,_ZNSt6vectorIS_IP7myTemp_SaIS1_EESaIS3_EE21_M_default_initializeEm
FNDA:0,_ZNKSt6vectorIP7myTemp_SaIS1_EE12_M_check_lenEmPKc
FNF:100
FNH:9
DA:79,0
DA:86,0
DA:87,0
DA:88,0
DA:90,0
DA:91,0
DA:92,0
DA:113,0
DA:114,0
DA:117,0
DA:118,0
DA:124,0
DA:125,0
DA:134,0
DA:135,0
DA:136,0
DA:159,0
DA:160,0
DA:161,0
DA:167,0
DA:168,0
DA:171,0
DA:173,0
DA:174,0
DA:175,0
DA:179,0
DA:181,0
DA:182,0
DA:183,0
DA:184,0
DA:248,0
DA:249,0
DA:269,22
DA:270,22
DA:271,22
DA:310,0
DA:312,0
DA:313,0
DA:316,0
DA:317,0
DA:414,0
DA:415,0
DA:416,0
DA:538,0
DA:539,0
DA:547,0
DA:548,0
DA:556,0
DA:557,0
DA:565,0
DA:566,0
DA:645,0
DA:646,0
DA:650,0
DA:651,0
DA:770,289
DA:771,289
DA:785,24
DA:786,24
DA:791,297
DA:793,297
DA:794,0
DA:795,297
DA:810,289
DA:812,289
DA:813,289
DA:828,24
DA:830,24
DA:831,24
DA:901,0
DA:903,0
DA:905,0
DA:906,0
DA:907,0
DA:911,0
DA:915,0
DA:1222,22
DA:1224,22
DA:1225,22
DA:1226,22
DA:1227,22
DA:1336,0
DA:1338,0
DA:1339,0
DA:1341,0
DA:1342,0
LF:86
LH:21
end_of_record
SF:/usr/include/c++/4.8/bits/vector.tcc
FN:399,_ZNSt6vectorIP7myTemp_SaIS1_EE19_M_emplace_back_auxIIRKS1_EEEvDpOT_
FNDA:0,_ZNSt6vectorIP7myTemp_SaIS1_EE19_M_emplace_back_auxIIRKS1_EEEvDpOT_
FNF:1
FNH:0
DA:399,0
DA:403,0
DA:404,0
DA:405,0
DA:408,0
DA:409,0
DA:410,0
DA:412,0
DA:415,0
DA:417,0
DA:419,0
DA:421,0
DA:422,0
DA:424,0
DA:425,0
DA:426,0
DA:428,0
DA:429,0
DA:430,0
DA:432,0
DA:433,0
DA:434,0
DA:435,0
DA:436,0
LF:24
LH:0
end_of_record
SF:/usr/include/c++/4.8/ext/alloc_traits.h
FN:166,_ZN9__gnu_cxx14__alloc_traitsISaIN5lgxZJ2LA4EdgeEEE17_S_select_on_copyERKS4_
FN:166,_ZN9__gnu_cxx14__alloc_traitsISaISt10shared_ptrIN5lgxZJ2IS3AAIEEEE17_S_select_on_copyERKS6_
FN:166,_ZN9__gnu_cxx14__alloc_traitsISaIN5lgxZJ2LA13DirectedGraph8RealNodeEEE17_S_select_on_copyERKS5_
FN:166,_ZN9__gnu_cxx14__alloc_traitsISaIiEE17_S_select_on_copyERKS1_
FN:166,_ZN9__gnu_cxx14__alloc_traitsISaIP7myTemp_EE17_S_select_on_copyERKS3_
FNDA:0,_ZN9__gnu_cxx14__alloc_traitsISaIiEE17_S_select_on_copyERKS1_
FNDA:0,_ZN9__gnu_cxx14__alloc_traitsISaIP7myTemp_EE17_S_select_on_copyERKS3_
FNDA:0,_ZN9__gnu_cxx14__alloc_traitsISaIN5lgxZJ2LA4EdgeEEE17_S_select_on_copyERKS4_
FNDA:0,_ZN9__gnu_cxx14__alloc_traitsISaIN5lgxZJ2LA13DirectedGraph8RealNodeEEE17_S_select_on_copyERKS5_
FNDA:0,_ZN9__gnu_cxx14__alloc_traitsISaISt10shared_ptrIN5lgxZJ2IS3AAIEEEE17_S_select_on_copyERKS6_
FNF:5
FNH:0
DA:166,0
DA:167,0
LF:2
LH:0
end_of_record
SF:/usr/include/c++/4.8/ext/atomicity.h
FN:48,_ZN9__gnu_cxxL18__exchange_and_addEPVii
FN:52,_ZN9__gnu_cxxL12__atomic_addEPVii
FN:65,_ZN9__gnu_cxxL25__exchange_and_add_singleEPii
FN:73,_ZN9__gnu_cxxL19__atomic_add_singleEPii
FN:78,_ZN9__gnu_cxxL27__exchange_and_add_dispatchEPii
FN:92,_ZN9__gnu_cxxL21__atomic_add_dispatchEPii
FNDA:0,_ZN9__gnu_cxxL18__exchange_and_addEPVii
FNDA:0,_ZN9__gnu_cxxL12__atomic_addEPVii
FNDA:0,_ZN9__gnu_cxxL25__exchange_and_add_singleEPii
FNDA:0,_ZN9__gnu_cxxL19__atomic_add_singleEPii
FNDA:0,_ZN9__gnu_cxxL27__exchange_and_add_dispatchEPii
FNDA:0,_ZN9__gnu_cxxL21__atomic_add_dispatchEPii
FNF:6
FNH:0
DA:48,0
DA:49,0
DA:52,0
DA:53,0
DA:65,0
DA:67,0
DA:68,0
DA:69,0
DA:73,0
DA:74,0
DA:78,0
DA:81,0
DA:82,0
DA:84,0
DA:92,0
DA:95,0
DA:96,0
DA:98,0
DA:102,0
LF:19
LH:0
end_of_record
SF:/usr/include/c++/4.8/ext/new_allocator.h
FN:79,_ZN9__gnu_cxx13new_allocatorISt6vectorIP7myTemp_SaIS3_EEEC2Ev
FN:79,_ZN9__gnu_cxx13new_allocatorIP7myTemp_EC2Ev
FN:79,_ZN9__gnu_cxx13new_allocatorISt13_Rb_tree_nodeISt4pairIKP7myTemp_iEEEC2Ev
FN:81,_ZN9__gnu_cxx13new_allocatorIcEC2ERKS1_
FN:81,_ZN9__gnu_cxx13new_allocatorIP7myTemp_EC2ERKS3_
FN:81,_ZN9__gnu_cxx13new_allocatorIN5lgxZJ2LA13DirectedGraph8RealNodeEEC2ERKS5_
FN:81,_ZN9__gnu_cxx13new_allocatorIiEC2ERKS1_
FN:81,_ZN9__gnu_cxx13new_allocatorIN5lgxZJ2LA4EdgeEEC2ERKS4_
FN:81,_ZN9__gnu_cxx13new_allocatorISt10shared_ptrIN5lgxZJ2IS3AAIEEEC2ERKS6_
FN:81,_ZN9__gnu_cxx13new_allocatorISt6vectorIP7myTemp_SaIS3_EEEC2ERKS6_
FN:86,_ZN9__gnu_cxx13new_allocatorISt10shared_ptrIN5lgxZJ2IS3AAIEEED2Ev
FN:86,_ZN9__gnu_cxx13new_allocatorISt13_Rb_tree_nodeISt4pairIKP7myTemp_iEEED2Ev
FN:86,_ZN9__gnu_cxx13new_allocatorIiED2Ev
FN:86,_ZN9__gnu_cxx13new_allocatorIP7myTemp_ED2Ev
FN:86,_ZN9__gnu_cxx13new_allocatorISt6vectorIP7myTemp_SaIS3_EEED2Ev
FN:86,_ZN9__gnu_cxx13new_allocatorIcED2Ev
FN:86,_ZN9__gnu_cxx13new_allocatorIN5lgxZJ2LA4EdgeEED2Ev
FN:86,_ZN9__gnu_cxx13new_allocatorIN5lgxZJ2LA13DirectedGraph8RealNodeEED2Ev
FN:99,_ZN9__gnu_cxx13new_allocatorIN5lgxZJ2LA4EdgeEE8allocateEmPKv
FN:99,_ZN9__gnu_cxx13new_allocatorISt6vectorIP7myTemp_SaIS3_EEE8allocateEmPKv
FN:99,_ZN9__gnu_cxx13new_allocatorIP7myTemp_E8allocateEmPKv
FN:99,_ZN9__gnu_cxx13new_allocatorISt10shared_ptrIN5lgxZJ2IS3AAIEEE8allocateEmPKv
FN:99,_ZN9__gnu_cxx13new_allocatorIN5lgxZJ2LA13DirectedGraph8RealNodeEE8allocateEmPKv
FN:99,_ZN9__gnu_cxx13new_allocatorIiE8allocateEmPKv
FN:99,_ZN9__gnu_cxx13new_allocatorISt13_Rb_tree_nodeISt4pairIKP7myTemp_iEEE8allocateEmPKv
FN:109,_ZN9__gnu_cxx13new_allocatorISt10shared_ptrIN5lgxZJ2IS3AAIEEE10deallocateEPS5_m
FN:109,_ZN9__gnu_cxx13new_allocatorIiE10deallocateEPim
FN:109,_ZN9__gnu_cxx13new_allocatorISt13_Rb_tree_nodeISt4pairIKP7myTemp_iEEE10deallocateEPS7_m
FN:109,_ZN9__gnu_cxx13new_allocatorIP7myTemp_E10deallocateEPS2_m
FN:109,_ZN9__gnu_cxx13new_allocatorIN5lgxZJ2LA4EdgeEE10deallocateEPS3_m
FN:109,_ZN9__gnu_cxx13new_allocatorIN5lgxZJ2LA13DirectedGraph8RealNodeEE10deallocateEPS4_m
FN:109,_ZN9__gnu_cxx13new_allocatorISt6vectorIP7myTemp_SaIS3_EEE10deallocateEPS5_m
FN:113,_ZNK9__gnu_cxx13new_allocatorIN5lgxZJ2LA13DirectedGraph8RealNodeEE8max_sizeEv
FN:113,_ZNK9__gnu_cxx13new_allocatorISt6vectorIP7myTemp_SaIS3_EEE8max_sizeEv
FN:113,_ZNK9__gnu_cxx13new_allocatorIN5lgxZJ2LA4EdgeEE8max_sizeEv
FN:113,_ZNK9__gnu_cxx13new_allocatorIiE8max_sizeEv
FN:113,_ZNK9__gnu_cxx13new_allocatorISt13_Rb_tree_nodeISt4pairIKP7myTemp_iEEE8max_sizeEv
FN:113,_ZNK9__gnu_cxx13new_allocatorISt10shared_ptrIN5lgxZJ2IS3AAIEEE8max_sizeEv
FN:113,_ZNK9__gnu_cxx13new_allocatorIP7myTemp_E8max_sizeEv
FN:119,_ZN9__gnu_cxx13new_allocatorIP7myTemp_E9constructIS2_IRKS2_EEEvPT_DpOT0_
FN:119,_ZN9__gnu_cxx13new_allocatorISt13_Rb_tree_nodeISt4pairIKP7myTemp_iEEE9constructIS7_IRKSt21piecewise_construct_tSt5tupleIIRS5_EESD_IIEEEEEvPT_DpOT0_
FN:124,_ZN9__gnu_cxx13new_allocatorIP7myTemp_E7destroyIS2_EEvPT_
FN:124,_ZN9__gnu_cxx13new_allocatorISt13_Rb_tree_nodeISt4pairIKP7myTemp_iEEE7destroyIS7_EEvPT_
FNDA:0,_ZN9__gnu_cxx13new_allocatorIP7myTemp_EC2Ev
FNDA:11,_ZN9__gnu_cxx13new_allocatorISt13_Rb_tree_nodeISt4pairIKP7myTemp_iEEEC2Ev
FNDA:0,_ZN9__gnu_cxx13new_allocatorISt6vectorIP7myTemp_SaIS3_EEEC2Ev
FNDA:0,_ZN9__gnu_cxx13new_allocatorIiEC2ERKS1_
FNDA:0,_ZN9__gnu_cxx13new_allocatorISt6vectorIP7myTemp_SaIS3_EEEC2ERKS6_
FNDA:0,_ZN9__gnu_cxx13new_allocatorIP7myTemp_EC2ERKS3_
FNDA:0,_ZN9__gnu_cxx13new_allocatorIN5lgxZJ2LA4EdgeEEC2ERKS4_
FNDA:0,_ZN9__gnu_cxx13new_allocatorIN5lgxZJ2LA13DirectedGraph8RealNodeEEC2ERKS5_
FNDA:0,_ZN9__gnu_cxx13new_allocatorISt10shared_ptrIN5lgxZJ2IS3AAIEEEC2ERKS6_
FNDA:0,_ZN9__gnu_cxx13new_allocatorIcEC2ERKS1_
FNDA:0,_ZN9__gnu_cxx13new_allocatorIiED2Ev
FNDA:0,_ZN9__gnu_cxx13new_allocatorIP7myTemp_ED2Ev
FNDA:0,_ZN9__gnu_cxx13new_allocatorIN5lgxZJ2LA4EdgeEED2Ev
FNDA:0,_ZN9__gnu_cxx13new_allocatorIN5lgxZJ2LA13DirectedGraph8RealNodeEED2Ev
FNDA:0,_ZN9__gnu_cxx13new_allocatorISt13_Rb_tree_nodeISt4pairIKP7myTemp_iEEED2Ev
FNDA:0,_ZN9__gnu_cxx13new_allocatorISt10shared_ptrIN5lgxZJ2IS3AAIEEED2Ev
FNDA:0,_ZN9__gnu_cxx13new_allocatorIcED2Ev
FNDA:0,_ZN9__gnu_cxx13new_allocatorISt6vectorIP7myTemp_SaIS3_EEED2Ev
FNDA:0,_ZN9__gnu_cxx13new_allocatorIiE8allocateEmPKv
FNDA:0,_ZN9__gnu_cxx13new_allocatorIN5lgxZJ2LA4EdgeEE8allocateEmPKv
FNDA:0,_ZN9__gnu_cxx13new_allocatorIN5lgxZJ2LA13DirectedGraph8RealNodeEE8allocateEmPKv
FNDA:0,_ZN9__gnu_cxx13new_allocatorISt13_Rb_tree_nodeISt4pairIKP7myTemp_iEEE8allocateEmPKv
FNDA:0,_ZN9__gnu_cxx13new_allocatorISt6vectorIP7myTemp_SaIS3_EEE8allocateEmPKv
FNDA:0,_ZN9__gnu_cxx13new_allocatorISt10shared_ptrIN5lgxZJ2IS3AAIEEE8allocateEmPKv
FNDA:0,_ZN9__gnu_cxx13new_allocatorIP7myTemp_E8allocateEmPKv
FNDA:0,_ZN9__gnu_cxx13new_allocatorIiE10deallocateEPim
FNDA:0,_ZN9__gnu_cxx13new_allocatorISt13_Rb_tree_nodeISt4pairIKP7myTemp_iEEE10deallocateEPS7_m
FNDA:0,_ZN9__gnu_cxx13new_allocatorIP7myTemp_E10deallocateEPS2_m
FNDA:0,_ZN9__gnu_cxx13new_allocatorISt6vectorIP7myTemp_SaIS3_EEE10deallocateEPS5_m
FNDA:0,_ZN9__gnu_cxx13new_allocatorIN5lgxZJ2LA4EdgeEE10deallocateEPS3_m
FNDA:0,_ZN9__gnu_cxx13new_allocatorIN5lgxZJ2LA13DirectedGraph8RealNodeEE10deallocateEPS4_m
FNDA:0,_ZN9__gnu_cxx13new_allocatorISt10shared_ptrIN5lgxZJ2IS3AAIEEE10deallocateEPS5_m
FNDA:0,_ZNK9__gnu_cxx13new_allocatorIiE8max_sizeEv
FNDA:0,_ZNK9__gnu_cxx13new_allocatorIN5lgxZJ2LA4EdgeEE8max_sizeEv
FNDA:0,_ZNK9__gnu_cxx13new_allocatorIN5lgxZJ2LA13DirectedGraph8RealNodeEE8max_sizeEv
FNDA:0,_ZNK9__gnu_cxx13new_allocatorISt13_Rb_tree_nodeISt4pairIKP7myTemp_iEEE8max_sizeEv
FNDA:0,_ZNK9__gnu_cxx13new_allocatorISt6vectorIP7myTemp_SaIS3_EEE8max_sizeEv
FNDA:0,_ZNK9__gnu_cxx13new_allocatorISt10shared_ptrIN5lgxZJ2IS3AAIEEE8max_sizeEv
FNDA:0,_ZNK9__gnu_cxx13new_allocatorIP7myTemp_E8max_sizeEv
FNDA:35,_ZN9__gnu_cxx13new_allocatorISt13_Rb_tree_nodeISt4pairIKP7myTemp_iEEE9constructIS7_IRKSt21piecewise_construct_tSt5tupleIIRS5_EESD_IIEEEEEvPT_DpOT0_
FNDA:0,_ZN9__gnu_cxx13new_allocatorIP7myTemp_E9constructIS2_IRKS2_EEEvPT_DpOT0_
FNDA:0,_ZN9__gnu_cxx13new_allocatorIP7myTemp_E7destroyIS2_EEvPT_
FNDA:0,_ZN9__gnu_cxx13new_allocatorISt13_Rb_tree_nodeISt4pairIKP7myTemp_iEEE7destroyIS7_EEvPT_
FNF:43
FNH:2
DA:79,11
DA:81,0
DA:86,0
DA:99,0
DA:101,0
DA:102,0
DA:104,0
DA:109,0
DA:110,0
DA:113,0
DA:114,0
DA:119,35
DA:120,35
DA:124,0
LF:14
LH:3
end_of_record
SF:/usr/include/c++/4.8/new
FN:109,_ZnwmPv
FN:115,_ZdlPvS_
FNDA:0,_ZnwmPv
FNDA:0,_ZdlPvS_
FNF:2
FNH:0
DA:109,0
DA:110,0
DA:115,0
LF:3
LH:0
end_of_record
SF:/usr/include/c++/4.8/tuple
FN:134,_ZNSt10_Head_baseILm0ERKP7myTemp_Lb0EEC2ES3_
FN:169,_ZNSt10_Head_baseILm0ERKP7myTemp_Lb0EE7_M_headERS4_
FN:197,_ZNSt11_Tuple_implILm1EIEEC2Ev
FN:241,_ZNSt11_Tuple_implILm0EIRKP7myTemp_EE7_M_headERS4_
FN:247,_ZNSt11_Tuple_implILm0EIRKP7myTemp_EE7_M_tailERS4_
FN:256,_ZNSt11_Tuple_implILm0EIRKP7myTemp_EEC2ES3_
FN:269,_ZNSt11_Tuple_implILm0EIRKP7myTemp_EEC2EOS4_
FN:399,_ZNSt5tupleIIRKP7myTemp_EEC2ES3_
FN:411,_ZNSt5tupleIIRKP7myTemp_EEC2EOS4_
FN:744,_ZSt12__get_helperILm0ERKP7myTemp_IEENSt9__add_refIT0_E4typeERSt11_Tuple_implIXT_EIS5_DpT1_EE
FN:759,_ZSt3getILm0EIRKP7myTemp_EENSt9__add_refINSt13tuple_elementIXT_ESt5tupleIIDpT0_EEE4typeEE4typeERS9_
FN:1074,_ZNSt4pairIKP7myTemp_iEC2IIRS2_EIEEESt21piecewise_construct_tSt5tupleIIDpT_EES7_IIDpT0_EE
FN:1086,_ZNSt4pairIKP7myTemp_iEC2IIRS2_EILm0EEIEIEEERSt5tupleIIDpT_EERS6_IIDpT1_EESt12_Index_tupleIIXspT0_EEESF_IIXspT2_EEE
FNDA:70,_ZNSt10_Head_baseILm0ERKP7myTemp_Lb0EEC2ES3_
FNDA:70,_ZNSt10_Head_baseILm0ERKP7myTemp_Lb0EE7_M_headERS4_
FNDA:0,_ZNSt11_Tuple_implILm1EIEEC2Ev
FNDA:70,_ZNSt11_Tuple_implILm0EIRKP7myTemp_EE7_M_headERS4_
FNDA:35,_ZNSt11_Tuple_implILm0EIRKP7myTemp_EE7_M_tailERS4_
FNDA:35,_ZNSt11_Tuple_implILm0EIRKP7myTemp_EEC2ES3_
FNDA:35,_ZNSt11_Tuple_implILm0EIRKP7myTemp_EEC2EOS4_
FNDA:35,_ZNSt5tupleIIRKP7myTemp_EEC2ES3_
FNDA:35,_ZNSt5tupleIIRKP7myTemp_EEC2EOS4_
FNDA:35,_ZSt12__get_helperILm0ERKP7myTemp_IEENSt9__add_refIT0_E4typeERSt11_Tuple_implIXT_EIS5_DpT1_EE
FNDA:35,_ZSt3getILm0EIRKP7myTemp_EENSt9__add_refINSt13tuple_elementIXT_ESt5tupleIIDpT0_EEE4typeEE4typeERS9_
FNDA:35,_ZNSt4pairIKP7myTemp_iEC2IIRS2_EIEEESt21piecewise_construct_tSt5tupleIIDpT_EES7_IIDpT0_EE
FNDA:35,_ZNSt4pairIKP7myTemp_iEC2IIRS2_EILm0EEIEIEEERSt5tupleIIDpT_EERS6_IIDpT1_EESt12_Index_tupleIIXspT0_EEESF_IIXspT2_EEE
FNF:13
FNH:12
DA:134,70
DA:135,70
DA:169,70
DA:197,0
DA:241,70
DA:247,35
DA:256,35
DA:257,35
DA:269,35
DA:272,35
DA:273,35
DA:399,35
DA:400,35
DA:411,35
DA:744,35
DA:745,35
DA:759,35
DA:760,35
DA:1074,35
DA:1079,35
DA:1080,35
DA:1086,35
DA:1089,35
DA:1090,35
DA:1091,35
LF:25
LH:24
end_of_record
SF:/usr/include/c++/4.8/x86_64-suse-linux/bits/gthr-default.h
FN:247,_ZL18__gthread_active_pv
FNDA:0,_ZL18__gthread_active_pv
FNF:1
FNH:0
DA:247,0
DA:251,0
LF:2
LH:0
end_of_record
SF:/home/lgxZJ/Desktop/Tiger-Compiler/Compiler/myCFGraph.cpp
FN:16,_ZN5lgxZJ2LA7CFGraphC2ESt6vectorISt10shared_ptrINS_2IS3AAIEESaIS6_EE
FN:33,_ZN5lgxZJ2LA7CFGraph10SetNodeUseEiSt6vectorIP7myTemp_SaIS4_EE
FN:41,_ZN5lgxZJ2LA7CFGraph10SetNodeDefEiSt6vectorIP7myTemp_SaIS4_EE
FN:49,_ZN5lgxZJ2LA7CFGraph10SetOneEdgeEiP9mySymbol_
FN:72,_ZN5lgxZJ2LA7CFGraph14SetRegNodeMapsEv
FN:88,_ZNK5lgxZJ2LA7CFGraph8IsAAIJmpESt10shared_ptrINS_2IS3AAIEE
FN:96,_ZN5lgxZJ2LA7CFGraph13GetLabelIndexEP9mySymbol_
FN:107,_ZNK5lgxZJ2LA7CFGraph16GetDirectedGraphEv
FN:114,_ZNK5lgxZJ2LA7CFGraph21GetRegisterNodeMapRefEv
FN:121,_ZNK5lgxZJ2LA7CFGraph7GetUsesEi
FN:129,_ZNK5lgxZJ2LA7CFGraph7GetDefsEi
FN:137,_ZNK5lgxZJ2LA7CFGraph10GetNodeInsEi
FN:145,_ZNK5lgxZJ2LA7CFGraph9IsMoveInsEi
FNDA:11,_ZN5lgxZJ2LA7CFGraphC2ESt6vectorISt10shared_ptrINS_2IS3AAIEESaIS6_EE
FNDA:44,_ZN5lgxZJ2LA7CFGraph10SetNodeUseEiSt6vectorIP7myTemp_SaIS4_EE
FNDA:44,_ZN5lgxZJ2LA7CFGraph10SetNodeDefEiSt6vectorIP7myTemp_SaIS4_EE
FNDA:44,_ZN5lgxZJ2LA7CFGraph10SetOneEdgeEiP9mySymbol_
FNDA:11,_ZN5lgxZJ2LA7CFGraph14SetRegNodeMapsEv
FNDA:44,_ZNK5lgxZJ2LA7CFGraph8IsAAIJmpESt10shared_ptrINS_2IS3AAIEE
FNDA:7,_ZN5lgxZJ2LA7CFGraph13GetLabelIndexEP9mySymbol_
FNDA:2,_ZNK5lgxZJ2LA7CFGraph16GetDirectedGraphEv
FNDA:5,_ZNK5lgxZJ2LA7CFGraph21GetRegisterNodeMapRefEv
FNDA:8,_ZNK5lgxZJ2LA7CFGraph7GetUsesEi
FNDA:8,_ZNK5lgxZJ2LA7CFGraph7GetDefsEi
FNDA:2,_ZNK5lgxZJ2LA7CFGraph10GetNodeInsEi
FNDA:6,_ZNK5lgxZJ2LA7CFGraph9IsMoveInsEi
FNF:13
FNH:13
DA:16,11
DA:18,11
DA:20,55
DA:22,44
DA:23,44
DA:24,44
DA:26,11
DA:28,11
DA:29,11
DA:33,44
DA:35,87
DA:36,43
DA:37,44
DA:41,44
DA:43,77
DA:44,33
DA:45,44
DA:49,44
DA:51,44
DA:53,7
DA:56,7
DA:57,7
DA:59,0
DA:63,44
DA:64,48
DA:66,40
DA:67,31
DA:72,11
DA:74,11
DA:75,55
DA:77,77
DA:78,33
DA:79,61
DA:80,87
DA:81,43
DA:82,62
DA:84,11
DA:88,44
DA:90,44
DA:96,7
DA:98,7
DA:100,25
DA:101,25
DA:102,0
DA:107,2
DA:109,2
DA:114,5
DA:116,5
DA:121,8
DA:123,8
DA:124,8
DA:129,8
DA:131,8
DA:132,8
DA:137,2
DA:139,2
DA:140,2
DA:145,6
DA:147,6
DA:148,6
LF:60
LH:58
end_of_record
SF:/home/lgxZJ/Desktop/Tiger-Compiler/Compiler/myDirectedGraph.h
FN:43,_ZN5lgxZJ2LA13DirectedGraphD2Ev
FN:43,_ZN5lgxZJ2LA13DirectedGraphC2ERKS1_
FN:46,_ZN5lgxZJ2LA13DirectedGraph8RealNodeC2ERKS2_
FN:46,_ZN5lgxZJ2LA13DirectedGraph8RealNodeD2Ev
FNDA:0,_ZN5lgxZJ2LA13DirectedGraphC2ERKS1_
FNDA:0,_ZN5lgxZJ2LA13DirectedGraphD2Ev
FNDA:0,_ZN5lgxZJ2LA13DirectedGraph8RealNodeC2ERKS2_
FNDA:0,_ZN5lgxZJ2LA13DirectedGraph8RealNodeD2Ev
FNF:4
FNH:0
DA:43,0
DA:46,0
LF:2
LH:0
end_of_record
